Archive member included to satisfy reference by file (symbol)

/home/wall/projects/IoT/mcu/platforms/espressif/esp8266_sdk/2.2.1/ESP8266_NONOS_SDK_2.2.1/lib/libmain.a(debug-vector.o)
                              (_DebugExceptionVector)
/home/wall/projects/IoT/mcu/platforms/espressif/esp8266_sdk/2.2.1/ESP8266_NONOS_SDK_2.2.1/lib/libmain.a(double-vector.o)
                              (_DoubleExceptionVector)
/home/wall/projects/IoT/mcu/platforms/espressif/esp8266_sdk/2.2.1/ESP8266_NONOS_SDK_2.2.1/lib/libmain.a(kernel-vector.o)
                              (_KernelExceptionVector)
/home/wall/projects/IoT/mcu/platforms/espressif/esp8266_sdk/2.2.1/ESP8266_NONOS_SDK_2.2.1/lib/libmain.a(nmi-vector.o)
                              (_NMIExceptionVector)
/home/wall/projects/IoT/mcu/platforms/espressif/esp8266_sdk/2.2.1/ESP8266_NONOS_SDK_2.2.1/lib/libmain.a(user-vector.o)
                              (_UserExceptionVector)
/home/wall/projects/IoT/mcu/platforms/espressif/esp8266_sdk/2.2.1/ESP8266_NONOS_SDK_2.2.1/lib/libmain.a(vector.o)
                              (call_user_start)
/home/wall/projects/IoT/mcu/platforms/espressif/esp8266_sdk/2.2.1/ESP8266_NONOS_SDK_2.2.1/lib/libmain.a(app_main.o)
                              /home/wall/projects/IoT/mcu/platforms/espressif/esp8266_sdk/2.2.1/ESP8266_NONOS_SDK_2.2.1/lib/libmain.a(nmi-vector.o) (NMI_Handler)
/home/wall/projects/IoT/mcu/platforms/espressif/esp8266_sdk/2.2.1/ESP8266_NONOS_SDK_2.2.1/lib/libmain.a(ets_timer.o)
                              /home/wall/projects/IoT/mcu/platforms/espressif/esp8266_sdk/2.2.1/ESP8266_NONOS_SDK_2.2.1/lib/libmain.a(app_main.o) (ets_timer_setfn)
/home/wall/projects/IoT/mcu/platforms/espressif/esp8266_sdk/2.2.1/ESP8266_NONOS_SDK_2.2.1/lib/libmain.a(mem_manager.o)
                              /home/wall/projects/IoT/mcu/platforms/espressif/esp8266_sdk/2.2.1/ESP8266_NONOS_SDK_2.2.1/lib/libmain.a(app_main.o) (vPortFree)
/home/wall/projects/IoT/mcu/platforms/espressif/esp8266_sdk/2.2.1/ESP8266_NONOS_SDK_2.2.1/lib/libmain.a(user_interface.o)
                              /home/wall/projects/IoT/mcu/platforms/espressif/esp8266_sdk/2.2.1/ESP8266_NONOS_SDK_2.2.1/lib/libmain.a(app_main.o) (done_cb)
/home/wall/projects/IoT/mcu/platforms/espressif/esp8266_sdk/2.2.1/ESP8266_NONOS_SDK_2.2.1/lib/libmain.a(spi_flash.o)
                              /home/wall/projects/IoT/mcu/platforms/espressif/esp8266_sdk/2.2.1/ESP8266_NONOS_SDK_2.2.1/lib/libmain.a(user_interface.o) (spi_flash_erase_sector)
/home/wall/projects/IoT/mcu/platforms/espressif/esp8266_sdk/2.2.1/ESP8266_NONOS_SDK_2.2.1/lib/libmain.a(eagle_lib.o)
                              /home/wall/projects/IoT/mcu/platforms/espressif/esp8266_sdk/2.2.1/ESP8266_NONOS_SDK_2.2.1/lib/libmain.a(user_interface.o) (ets_sprintf)
/home/wall/projects/IoT/mcu/platforms/espressif/esp8266_sdk/2.2.1/ESP8266_NONOS_SDK_2.2.1/lib/libmain.a(eagle_lwip_if.o)
                              /home/wall/projects/IoT/mcu/platforms/espressif/esp8266_sdk/2.2.1/ESP8266_NONOS_SDK_2.2.1/lib/libmain.a(user_interface.o) (hostname)
/home/wall/projects/templates/Makefile/Makefile_generic/esp/esp8266/build/user/blinky/blinky.a(rf_init.o)
                              /home/wall/projects/IoT/mcu/platforms/espressif/esp8266_sdk/2.2.1/ESP8266_NONOS_SDK_2.2.1/lib/libmain.a(app_main.o) (user_rf_cal_sector_set)
/home/wall/projects/templates/Makefile/Makefile_generic/esp/esp8266/build/user/blinky/blinky.a(main.o)
                              /home/wall/projects/IoT/mcu/platforms/espressif/esp8266_sdk/2.2.1/ESP8266_NONOS_SDK_2.2.1/lib/libmain.a(app_main.o) (user_init)
/home/wall/projects/IoT/mcu/platforms/espressif/esp8266_sdk/2.2.1/xtensa-lx106-elf/bin/../xtensa-lx106-elf/sysroot/usr/lib/libhal.a(int_asm--set_intclear.o)
                              /home/wall/projects/IoT/mcu/platforms/espressif/esp8266_sdk/2.2.1/ESP8266_NONOS_SDK_2.2.1/lib/libmain.a(app_main.o) (xthal_set_intclear)
/home/wall/projects/IoT/mcu/platforms/espressif/esp8266_sdk/2.2.1/ESP8266_NONOS_SDK_2.2.1/lib/libpp.a(if_hwctrl.o)
                              /home/wall/projects/IoT/mcu/platforms/espressif/esp8266_sdk/2.2.1/ESP8266_NONOS_SDK_2.2.1/lib/libmain.a(user_interface.o) (ic_set_vif)
/home/wall/projects/IoT/mcu/platforms/espressif/esp8266_sdk/2.2.1/ESP8266_NONOS_SDK_2.2.1/lib/libpp.a(lmac.o)
                              /home/wall/projects/IoT/mcu/platforms/espressif/esp8266_sdk/2.2.1/ESP8266_NONOS_SDK_2.2.1/lib/libmain.a(app_main.o) (lmacInit)
/home/wall/projects/IoT/mcu/platforms/espressif/esp8266_sdk/2.2.1/ESP8266_NONOS_SDK_2.2.1/lib/libpp.a(pm.o)
                              /home/wall/projects/IoT/mcu/platforms/espressif/esp8266_sdk/2.2.1/ESP8266_NONOS_SDK_2.2.1/lib/libmain.a(user_interface.o) (pm_set_gpio_wakeup_pin)
/home/wall/projects/IoT/mcu/platforms/espressif/esp8266_sdk/2.2.1/ESP8266_NONOS_SDK_2.2.1/lib/libpp.a(pm_for_bcn_only_mode.o)
                              /home/wall/projects/IoT/mcu/platforms/espressif/esp8266_sdk/2.2.1/ESP8266_NONOS_SDK_2.2.1/lib/libpp.a(pm.o) (fpm_is_open)
/home/wall/projects/IoT/mcu/platforms/espressif/esp8266_sdk/2.2.1/ESP8266_NONOS_SDK_2.2.1/lib/libpp.a(pp.o)
                              /home/wall/projects/IoT/mcu/platforms/espressif/esp8266_sdk/2.2.1/ESP8266_NONOS_SDK_2.2.1/lib/libpp.a(pm.o) (pend_flag_noise_check)
/home/wall/projects/IoT/mcu/platforms/espressif/esp8266_sdk/2.2.1/ESP8266_NONOS_SDK_2.2.1/lib/libpp.a(rate_control.o)
                              /home/wall/projects/IoT/mcu/platforms/espressif/esp8266_sdk/2.2.1/ESP8266_NONOS_SDK_2.2.1/lib/libpp.a(lmac.o) (RC_SetBasicRate)
/home/wall/projects/IoT/mcu/platforms/espressif/esp8266_sdk/2.2.1/ESP8266_NONOS_SDK_2.2.1/lib/libpp.a(trc.o)
                              /home/wall/projects/IoT/mcu/platforms/espressif/esp8266_sdk/2.2.1/ESP8266_NONOS_SDK_2.2.1/lib/libmain.a(user_interface.o) (rc_set_rate_limit_id)
/home/wall/projects/IoT/mcu/platforms/espressif/esp8266_sdk/2.2.1/ESP8266_NONOS_SDK_2.2.1/lib/libpp.a(wdev.o)
                              /home/wall/projects/IoT/mcu/platforms/espressif/esp8266_sdk/2.2.1/ESP8266_NONOS_SDK_2.2.1/lib/libpp.a(pp.o) (wDevCtrl)
/home/wall/projects/IoT/mcu/platforms/espressif/esp8266_sdk/2.2.1/ESP8266_NONOS_SDK_2.2.1/lib/libpp.a(esf_buf.o)
                              /home/wall/projects/IoT/mcu/platforms/espressif/esp8266_sdk/2.2.1/ESP8266_NONOS_SDK_2.2.1/lib/libpp.a(wdev.o) (esf_rx_buf_alloc)
/home/wall/projects/IoT/mcu/platforms/espressif/esp8266_sdk/2.2.1/ESP8266_NONOS_SDK_2.2.1/lib/libphy.a(phy.o)
                              /home/wall/projects/IoT/mcu/platforms/espressif/esp8266_sdk/2.2.1/ESP8266_NONOS_SDK_2.2.1/lib/libmain.a(app_main.o) (phy_enable_agc)
/home/wall/projects/IoT/mcu/platforms/espressif/esp8266_sdk/2.2.1/ESP8266_NONOS_SDK_2.2.1/lib/libphy.a(phy_chip_v6_ana.o)
                              /home/wall/projects/IoT/mcu/platforms/espressif/esp8266_sdk/2.2.1/ESP8266_NONOS_SDK_2.2.1/lib/libmain.a(app_main.o) (chip_v6_set_chan_offset)
/home/wall/projects/IoT/mcu/platforms/espressif/esp8266_sdk/2.2.1/ESP8266_NONOS_SDK_2.2.1/lib/libphy.a(phy_chip_v6.o)
                              /home/wall/projects/IoT/mcu/platforms/espressif/esp8266_sdk/2.2.1/ESP8266_NONOS_SDK_2.2.1/lib/libpp.a(pm.o) (g_phyFuns)
/home/wall/projects/IoT/mcu/platforms/espressif/esp8266_sdk/2.2.1/ESP8266_NONOS_SDK_2.2.1/lib/libphy.a(phy_chip_v6_cal.o)
                              /home/wall/projects/IoT/mcu/platforms/espressif/esp8266_sdk/2.2.1/ESP8266_NONOS_SDK_2.2.1/lib/libphy.a(phy_chip_v6.o) (phy_tx_pwr_error)
/home/wall/projects/IoT/mcu/platforms/espressif/esp8266_sdk/2.2.1/ESP8266_NONOS_SDK_2.2.1/lib/libphy.a(phy_chip_v6_unused.o)
                              /home/wall/projects/IoT/mcu/platforms/espressif/esp8266_sdk/2.2.1/ESP8266_NONOS_SDK_2.2.1/lib/libphy.a(phy_chip_v6.o) (chip_v6_set_sense)
/home/wall/projects/IoT/mcu/platforms/espressif/esp8266_sdk/2.2.1/ESP8266_NONOS_SDK_2.2.1/lib/libphy.a(phy_sleep.o)
                              /home/wall/projects/IoT/mcu/platforms/espressif/esp8266_sdk/2.2.1/ESP8266_NONOS_SDK_2.2.1/lib/libmain.a(user_interface.o) (pm_usec2rtc_64)
/home/wall/projects/IoT/mcu/platforms/espressif/esp8266_sdk/2.2.1/ESP8266_NONOS_SDK_2.2.1/lib/libnet80211.a(ieee80211.o)
                              /home/wall/projects/IoT/mcu/platforms/espressif/esp8266_sdk/2.2.1/ESP8266_NONOS_SDK_2.2.1/lib/libmain.a(app_main.o) (g_ic)
/home/wall/projects/IoT/mcu/platforms/espressif/esp8266_sdk/2.2.1/ESP8266_NONOS_SDK_2.2.1/lib/libnet80211.a(ieee80211_crypto.o)
                              /home/wall/projects/IoT/mcu/platforms/espressif/esp8266_sdk/2.2.1/ESP8266_NONOS_SDK_2.2.1/lib/libnet80211.a(ieee80211.o) (ieee80211_crypto_attach)
/home/wall/projects/IoT/mcu/platforms/espressif/esp8266_sdk/2.2.1/ESP8266_NONOS_SDK_2.2.1/lib/libnet80211.a(ieee80211_ets.o)
                              /home/wall/projects/IoT/mcu/platforms/espressif/esp8266_sdk/2.2.1/ESP8266_NONOS_SDK_2.2.1/lib/libpp.a(pm.o) (ieee80211_getmgtframe)
/home/wall/projects/IoT/mcu/platforms/espressif/esp8266_sdk/2.2.1/ESP8266_NONOS_SDK_2.2.1/lib/libnet80211.a(ieee80211_hostap.o)
                              /home/wall/projects/IoT/mcu/platforms/espressif/esp8266_sdk/2.2.1/ESP8266_NONOS_SDK_2.2.1/lib/libmain.a(user_interface.o) (BcnEb_update)
/home/wall/projects/IoT/mcu/platforms/espressif/esp8266_sdk/2.2.1/ESP8266_NONOS_SDK_2.2.1/lib/libnet80211.a(ieee80211_ht.o)
                              /home/wall/projects/IoT/mcu/platforms/espressif/esp8266_sdk/2.2.1/ESP8266_NONOS_SDK_2.2.1/lib/libmain.a(user_interface.o) (ieee80211_ht_attach)
/home/wall/projects/IoT/mcu/platforms/espressif/esp8266_sdk/2.2.1/ESP8266_NONOS_SDK_2.2.1/lib/libnet80211.a(ieee80211_input.o)
                              /home/wall/projects/IoT/mcu/platforms/espressif/esp8266_sdk/2.2.1/ESP8266_NONOS_SDK_2.2.1/lib/libnet80211.a(ieee80211_hostap.o) (ieee80211_decap)
/home/wall/projects/IoT/mcu/platforms/espressif/esp8266_sdk/2.2.1/ESP8266_NONOS_SDK_2.2.1/lib/libnet80211.a(ieee80211_mesh_quick.o)
                              /home/wall/projects/IoT/mcu/platforms/espressif/esp8266_sdk/2.2.1/ESP8266_NONOS_SDK_2.2.1/lib/libnet80211.a(ieee80211_hostap.o) (ieee80211_mesh_quick_get)
/home/wall/projects/IoT/mcu/platforms/espressif/esp8266_sdk/2.2.1/ESP8266_NONOS_SDK_2.2.1/lib/libnet80211.a(ieee80211_output.o)
                              /home/wall/projects/IoT/mcu/platforms/espressif/esp8266_sdk/2.2.1/ESP8266_NONOS_SDK_2.2.1/lib/libmain.a(eagle_lwip_if.o) (ieee80211_output_pbuf)
/home/wall/projects/IoT/mcu/platforms/espressif/esp8266_sdk/2.2.1/ESP8266_NONOS_SDK_2.2.1/lib/libnet80211.a(ieee80211_phy.o)
                              /home/wall/projects/IoT/mcu/platforms/espressif/esp8266_sdk/2.2.1/ESP8266_NONOS_SDK_2.2.1/lib/libmain.a(app_main.o) (ieee80211_phy_init)
/home/wall/projects/IoT/mcu/platforms/espressif/esp8266_sdk/2.2.1/ESP8266_NONOS_SDK_2.2.1/lib/libnet80211.a(ieee80211_power.o)
                              /home/wall/projects/IoT/mcu/platforms/espressif/esp8266_sdk/2.2.1/ESP8266_NONOS_SDK_2.2.1/lib/libnet80211.a(ieee80211_hostap.o) (ieee80211_psq_init)
/home/wall/projects/IoT/mcu/platforms/espressif/esp8266_sdk/2.2.1/ESP8266_NONOS_SDK_2.2.1/lib/libnet80211.a(ieee80211_proto.o)
                              /home/wall/projects/IoT/mcu/platforms/espressif/esp8266_sdk/2.2.1/ESP8266_NONOS_SDK_2.2.1/lib/libnet80211.a(ieee80211.o) (ieee80211_proto_attach)
/home/wall/projects/IoT/mcu/platforms/espressif/esp8266_sdk/2.2.1/ESP8266_NONOS_SDK_2.2.1/lib/libnet80211.a(ieee80211_regdomain.o)
                              /home/wall/projects/IoT/mcu/platforms/espressif/esp8266_sdk/2.2.1/ESP8266_NONOS_SDK_2.2.1/lib/libnet80211.a(ieee80211.o) (ieee80211_regdomain_attach)
/home/wall/projects/IoT/mcu/platforms/espressif/esp8266_sdk/2.2.1/ESP8266_NONOS_SDK_2.2.1/lib/libnet80211.a(ieee80211_rfid.o)
                              /home/wall/projects/IoT/mcu/platforms/espressif/esp8266_sdk/2.2.1/ESP8266_NONOS_SDK_2.2.1/lib/libmain.a(user_interface.o) (ieee80211_rfid_locp_recv_open)
/home/wall/projects/IoT/mcu/platforms/espressif/esp8266_sdk/2.2.1/ESP8266_NONOS_SDK_2.2.1/lib/libnet80211.a(ieee80211_scan.o)
                              /home/wall/projects/IoT/mcu/platforms/espressif/esp8266_sdk/2.2.1/ESP8266_NONOS_SDK_2.2.1/lib/libpp.a(pp.o) (gScanStruct)
/home/wall/projects/IoT/mcu/platforms/espressif/esp8266_sdk/2.2.1/ESP8266_NONOS_SDK_2.2.1/lib/libnet80211.a(ieee80211_sta.o)
                              /home/wall/projects/IoT/mcu/platforms/espressif/esp8266_sdk/2.2.1/ESP8266_NONOS_SDK_2.2.1/lib/libmain.a(user_interface.o) (ieee80211_sta_new_state)
/home/wall/projects/IoT/mcu/platforms/espressif/esp8266_sdk/2.2.1/ESP8266_NONOS_SDK_2.2.1/lib/libnet80211.a(wl_chm.o)
                              /home/wall/projects/IoT/mcu/platforms/espressif/esp8266_sdk/2.2.1/ESP8266_NONOS_SDK_2.2.1/lib/libnet80211.a(ieee80211.o) (chm_init)
/home/wall/projects/IoT/mcu/platforms/espressif/esp8266_sdk/2.2.1/ESP8266_NONOS_SDK_2.2.1/lib/libnet80211.a(wl_cnx.o)
                              /home/wall/projects/IoT/mcu/platforms/espressif/esp8266_sdk/2.2.1/ESP8266_NONOS_SDK_2.2.1/lib/libmain.a(user_interface.o) (sta_con_timer)
/home/wall/projects/IoT/mcu/platforms/espressif/esp8266_sdk/2.2.1/ESP8266_NONOS_SDK_2.2.1/lib/libnet80211.a(ieee80211_action.o)
                              /home/wall/projects/IoT/mcu/platforms/espressif/esp8266_sdk/2.2.1/ESP8266_NONOS_SDK_2.2.1/lib/libnet80211.a(ieee80211_ht.o) (ieee80211_send_action_register)
/home/wall/projects/IoT/mcu/platforms/espressif/esp8266_sdk/2.2.1/ESP8266_NONOS_SDK_2.2.1/lib/libnet80211.a(ieee80211_action_vendor.o)
                              /home/wall/projects/IoT/mcu/platforms/espressif/esp8266_sdk/2.2.1/ESP8266_NONOS_SDK_2.2.1/lib/libnet80211.a(ieee80211.o) (ieee80211_action_vendor_spec_attach)
/home/wall/projects/IoT/mcu/platforms/espressif/esp8266_sdk/2.2.1/ESP8266_NONOS_SDK_2.2.1/lib/libnet80211.a(ieee80211_crypto_ccmp.o)
                              /home/wall/projects/IoT/mcu/platforms/espressif/esp8266_sdk/2.2.1/ESP8266_NONOS_SDK_2.2.1/lib/libnet80211.a(ieee80211_input.o) (ccmp)
/home/wall/projects/IoT/mcu/platforms/espressif/esp8266_sdk/2.2.1/ESP8266_NONOS_SDK_2.2.1/lib/libnet80211.a(ieee80211_ie_vendor.o)
                              /home/wall/projects/IoT/mcu/platforms/espressif/esp8266_sdk/2.2.1/ESP8266_NONOS_SDK_2.2.1/lib/libnet80211.a(ieee80211_mesh_quick.o) (ieee80211_add_ie_vendor_esp_mesh_assoc)
/home/wall/projects/IoT/mcu/platforms/espressif/esp8266_sdk/2.2.1/ESP8266_NONOS_SDK_2.2.1/lib/liblwip.a(dhcp.o)
                              /home/wall/projects/IoT/mcu/platforms/espressif/esp8266_sdk/2.2.1/ESP8266_NONOS_SDK_2.2.1/lib/libmain.a(user_interface.o) (dhcp_cleanup)
/home/wall/projects/IoT/mcu/platforms/espressif/esp8266_sdk/2.2.1/ESP8266_NONOS_SDK_2.2.1/lib/liblwip.a(dhcpserver.o)
                              /home/wall/projects/IoT/mcu/platforms/espressif/esp8266_sdk/2.2.1/ESP8266_NONOS_SDK_2.2.1/lib/libmain.a(user_interface.o) (dhcps_start)
/home/wall/projects/IoT/mcu/platforms/espressif/esp8266_sdk/2.2.1/ESP8266_NONOS_SDK_2.2.1/lib/liblwip.a(dns.o)
                              /home/wall/projects/IoT/mcu/platforms/espressif/esp8266_sdk/2.2.1/ESP8266_NONOS_SDK_2.2.1/lib/liblwip.a(dhcp.o) (dns_setserver)
/home/wall/projects/IoT/mcu/platforms/espressif/esp8266_sdk/2.2.1/ESP8266_NONOS_SDK_2.2.1/lib/liblwip.a(espconn_tcp.o)
                              /home/wall/projects/IoT/mcu/platforms/espressif/esp8266_sdk/2.2.1/ESP8266_NONOS_SDK_2.2.1/lib/libmain.a(app_main.o) (espconn_init)
/home/wall/projects/IoT/mcu/platforms/espressif/esp8266_sdk/2.2.1/ESP8266_NONOS_SDK_2.2.1/lib/liblwip.a(etharp.o)
                              /home/wall/projects/IoT/mcu/platforms/espressif/esp8266_sdk/2.2.1/ESP8266_NONOS_SDK_2.2.1/lib/libpp.a(wdev.o) (ethbroadcast)
/home/wall/projects/IoT/mcu/platforms/espressif/esp8266_sdk/2.2.1/ESP8266_NONOS_SDK_2.2.1/lib/liblwip.a(init.o)
                              /home/wall/projects/IoT/mcu/platforms/espressif/esp8266_sdk/2.2.1/ESP8266_NONOS_SDK_2.2.1/lib/libmain.a(app_main.o) (lwip_init)
/home/wall/projects/IoT/mcu/platforms/espressif/esp8266_sdk/2.2.1/ESP8266_NONOS_SDK_2.2.1/lib/liblwip.a(ip.o)
                              /home/wall/projects/IoT/mcu/platforms/espressif/esp8266_sdk/2.2.1/ESP8266_NONOS_SDK_2.2.1/lib/liblwip.a(etharp.o) (ip_input)
/home/wall/projects/IoT/mcu/platforms/espressif/esp8266_sdk/2.2.1/ESP8266_NONOS_SDK_2.2.1/lib/liblwip.a(ip_addr.o)
                              /home/wall/projects/IoT/mcu/platforms/espressif/esp8266_sdk/2.2.1/ESP8266_NONOS_SDK_2.2.1/lib/liblwip.a(etharp.o) (ip4_addr_isbroadcast)
/home/wall/projects/IoT/mcu/platforms/espressif/esp8266_sdk/2.2.1/ESP8266_NONOS_SDK_2.2.1/lib/liblwip.a(memp.o)
                              /home/wall/projects/IoT/mcu/platforms/espressif/esp8266_sdk/2.2.1/ESP8266_NONOS_SDK_2.2.1/lib/liblwip.a(etharp.o) (memp_sizes)
/home/wall/projects/IoT/mcu/platforms/espressif/esp8266_sdk/2.2.1/ESP8266_NONOS_SDK_2.2.1/lib/liblwip.a(netif.o)
                              /home/wall/projects/IoT/mcu/platforms/espressif/esp8266_sdk/2.2.1/ESP8266_NONOS_SDK_2.2.1/lib/liblwip.a(init.o) (netif_init)
/home/wall/projects/IoT/mcu/platforms/espressif/esp8266_sdk/2.2.1/ESP8266_NONOS_SDK_2.2.1/lib/liblwip.a(pbuf.o)
                              /home/wall/projects/IoT/mcu/platforms/espressif/esp8266_sdk/2.2.1/ESP8266_NONOS_SDK_2.2.1/lib/liblwip.a(etharp.o) (pbuf_header)
/home/wall/projects/IoT/mcu/platforms/espressif/esp8266_sdk/2.2.1/ESP8266_NONOS_SDK_2.2.1/lib/liblwip.a(raw.o)
                              /home/wall/projects/IoT/mcu/platforms/espressif/esp8266_sdk/2.2.1/ESP8266_NONOS_SDK_2.2.1/lib/liblwip.a(ip.o) (raw_input)
/home/wall/projects/IoT/mcu/platforms/espressif/esp8266_sdk/2.2.1/ESP8266_NONOS_SDK_2.2.1/lib/liblwip.a(tcp.o)
                              /home/wall/projects/IoT/mcu/platforms/espressif/esp8266_sdk/2.2.1/ESP8266_NONOS_SDK_2.2.1/lib/liblwip.a(espconn_tcp.o) (tcp_pcb_lists)
/home/wall/projects/IoT/mcu/platforms/espressif/esp8266_sdk/2.2.1/ESP8266_NONOS_SDK_2.2.1/lib/liblwip.a(tcp_in.o)
                              /home/wall/projects/IoT/mcu/platforms/espressif/esp8266_sdk/2.2.1/ESP8266_NONOS_SDK_2.2.1/lib/liblwip.a(ip.o) (tcp_input)
/home/wall/projects/IoT/mcu/platforms/espressif/esp8266_sdk/2.2.1/ESP8266_NONOS_SDK_2.2.1/lib/liblwip.a(tcp_out.o)
                              /home/wall/projects/IoT/mcu/platforms/espressif/esp8266_sdk/2.2.1/ESP8266_NONOS_SDK_2.2.1/lib/liblwip.a(espconn_tcp.o) (tcp_write)
/home/wall/projects/IoT/mcu/platforms/espressif/esp8266_sdk/2.2.1/ESP8266_NONOS_SDK_2.2.1/lib/liblwip.a(timers.o)
                              /home/wall/projects/IoT/mcu/platforms/espressif/esp8266_sdk/2.2.1/ESP8266_NONOS_SDK_2.2.1/lib/liblwip.a(tcp.o) (tcp_timer_needed)
/home/wall/projects/IoT/mcu/platforms/espressif/esp8266_sdk/2.2.1/ESP8266_NONOS_SDK_2.2.1/lib/liblwip.a(udp.o)
                              /home/wall/projects/IoT/mcu/platforms/espressif/esp8266_sdk/2.2.1/ESP8266_NONOS_SDK_2.2.1/lib/liblwip.a(ip.o) (udp_input)
/home/wall/projects/IoT/mcu/platforms/espressif/esp8266_sdk/2.2.1/ESP8266_NONOS_SDK_2.2.1/lib/liblwip.a(espconn.o)
                              /home/wall/projects/IoT/mcu/platforms/espressif/esp8266_sdk/2.2.1/ESP8266_NONOS_SDK_2.2.1/lib/liblwip.a(espconn_tcp.o) (espconn_copy_partial)
/home/wall/projects/IoT/mcu/platforms/espressif/esp8266_sdk/2.2.1/ESP8266_NONOS_SDK_2.2.1/lib/liblwip.a(espconn_buf.o)
                              /home/wall/projects/IoT/mcu/platforms/espressif/esp8266_sdk/2.2.1/ESP8266_NONOS_SDK_2.2.1/lib/liblwip.a(espconn_tcp.o) (ringbuf_new)
/home/wall/projects/IoT/mcu/platforms/espressif/esp8266_sdk/2.2.1/ESP8266_NONOS_SDK_2.2.1/lib/liblwip.a(espconn_udp.o)
                              /home/wall/projects/IoT/mcu/platforms/espressif/esp8266_sdk/2.2.1/ESP8266_NONOS_SDK_2.2.1/lib/liblwip.a(espconn.o) (espconn_udp_sendto)
/home/wall/projects/IoT/mcu/platforms/espressif/esp8266_sdk/2.2.1/ESP8266_NONOS_SDK_2.2.1/lib/liblwip.a(icmp.o)
                              /home/wall/projects/IoT/mcu/platforms/espressif/esp8266_sdk/2.2.1/ESP8266_NONOS_SDK_2.2.1/lib/liblwip.a(ip.o) (icmp_input)
/home/wall/projects/IoT/mcu/platforms/espressif/esp8266_sdk/2.2.1/ESP8266_NONOS_SDK_2.2.1/lib/liblwip.a(igmp.o)
                              /home/wall/projects/IoT/mcu/platforms/espressif/esp8266_sdk/2.2.1/ESP8266_NONOS_SDK_2.2.1/lib/liblwip.a(init.o) (igmp_init)
/home/wall/projects/IoT/mcu/platforms/espressif/esp8266_sdk/2.2.1/ESP8266_NONOS_SDK_2.2.1/lib/liblwip.a(inet_chksum.o)
                              /home/wall/projects/IoT/mcu/platforms/espressif/esp8266_sdk/2.2.1/ESP8266_NONOS_SDK_2.2.1/lib/liblwip.a(tcp_in.o) (inet_chksum_pseudo)
/home/wall/projects/IoT/mcu/platforms/espressif/esp8266_sdk/2.2.1/ESP8266_NONOS_SDK_2.2.1/lib/libwpa.a(ap_config.o)
                              /home/wall/projects/IoT/mcu/platforms/espressif/esp8266_sdk/2.2.1/ESP8266_NONOS_SDK_2.2.1/lib/libnet80211.a(ieee80211_hostap.o) (hostapd_setup_wpa_psk)
/home/wall/projects/IoT/mcu/platforms/espressif/esp8266_sdk/2.2.1/ESP8266_NONOS_SDK_2.2.1/lib/libwpa.a(common.o)
                              /home/wall/projects/IoT/mcu/platforms/espressif/esp8266_sdk/2.2.1/ESP8266_NONOS_SDK_2.2.1/lib/libmain.a(user_interface.o) (hexstr2bin)
/home/wall/projects/IoT/mcu/platforms/espressif/esp8266_sdk/2.2.1/ESP8266_NONOS_SDK_2.2.1/lib/libwpa.a(os_xtensa.o)
                              /home/wall/projects/IoT/mcu/platforms/espressif/esp8266_sdk/2.2.1/ESP8266_NONOS_SDK_2.2.1/lib/libwpa.a(common.o) (os_get_time)
/home/wall/projects/IoT/mcu/platforms/espressif/esp8266_sdk/2.2.1/ESP8266_NONOS_SDK_2.2.1/lib/libwpa.a(wpa_auth.o)
                              /home/wall/projects/IoT/mcu/platforms/espressif/esp8266_sdk/2.2.1/ESP8266_NONOS_SDK_2.2.1/lib/libnet80211.a(ieee80211_hostap.o) (resend_eapol)
/home/wall/projects/IoT/mcu/platforms/espressif/esp8266_sdk/2.2.1/ESP8266_NONOS_SDK_2.2.1/lib/libwpa.a(wpa_auth_ie.o)
                              /home/wall/projects/IoT/mcu/platforms/espressif/esp8266_sdk/2.2.1/ESP8266_NONOS_SDK_2.2.1/lib/libwpa.a(wpa_auth.o) (wpa_auth_gen_wpa_ie)
/home/wall/projects/IoT/mcu/platforms/espressif/esp8266_sdk/2.2.1/ESP8266_NONOS_SDK_2.2.1/lib/libwpa.a(wpa.o)
                              /home/wall/projects/IoT/mcu/platforms/espressif/esp8266_sdk/2.2.1/ESP8266_NONOS_SDK_2.2.1/lib/libnet80211.a(ieee80211_sta.o) (wpa_sm_rx_eapol)
/home/wall/projects/IoT/mcu/platforms/espressif/esp8266_sdk/2.2.1/ESP8266_NONOS_SDK_2.2.1/lib/libwpa.a(wpa_common.o)
                              /home/wall/projects/IoT/mcu/platforms/espressif/esp8266_sdk/2.2.1/ESP8266_NONOS_SDK_2.2.1/lib/libwpa.a(wpa_auth_ie.o) (wpa_parse_wpa_ie_rsn)
/home/wall/projects/IoT/mcu/platforms/espressif/esp8266_sdk/2.2.1/ESP8266_NONOS_SDK_2.2.1/lib/libwpa.a(wpa_debug.o)
                              /home/wall/projects/IoT/mcu/platforms/espressif/esp8266_sdk/2.2.1/ESP8266_NONOS_SDK_2.2.1/lib/libwpa.a(wpa_auth.o) (eloop_cancel_timeout)
/home/wall/projects/IoT/mcu/platforms/espressif/esp8266_sdk/2.2.1/ESP8266_NONOS_SDK_2.2.1/lib/libwpa.a(wpa_ie.o)
                              /home/wall/projects/IoT/mcu/platforms/espressif/esp8266_sdk/2.2.1/ESP8266_NONOS_SDK_2.2.1/lib/libnet80211.a(ieee80211_scan.o) (wpa_parse_wpa_ie)
/home/wall/projects/IoT/mcu/platforms/espressif/esp8266_sdk/2.2.1/ESP8266_NONOS_SDK_2.2.1/lib/libwpa.a(wpa_main.o)
                              /home/wall/projects/IoT/mcu/platforms/espressif/esp8266_sdk/2.2.1/ESP8266_NONOS_SDK_2.2.1/lib/libnet80211.a(wl_cnx.o) (ppInstallKey)
/home/wall/projects/IoT/mcu/platforms/espressif/esp8266_sdk/2.2.1/ESP8266_NONOS_SDK_2.2.1/lib/libwpa.a(wpas_glue.o)
                              /home/wall/projects/IoT/mcu/platforms/espressif/esp8266_sdk/2.2.1/ESP8266_NONOS_SDK_2.2.1/lib/libwpa.a(wpa.o) (wpa_sm_alloc_eapol)
/home/wall/projects/IoT/mcu/platforms/espressif/esp8266_sdk/2.2.1/ESP8266_NONOS_SDK_2.2.1/lib/libcrypto.a(aes-wrap.o)
                              /home/wall/projects/IoT/mcu/platforms/espressif/esp8266_sdk/2.2.1/ESP8266_NONOS_SDK_2.2.1/lib/libwpa.a(wpa_auth.o) (aes_wrap)
/home/wall/projects/IoT/mcu/platforms/espressif/esp8266_sdk/2.2.1/ESP8266_NONOS_SDK_2.2.1/lib/libcrypto.a(aes-internal-enc.o)
                              /home/wall/projects/IoT/mcu/platforms/espressif/esp8266_sdk/2.2.1/ESP8266_NONOS_SDK_2.2.1/lib/libcrypto.a(aes-wrap.o) (aes_encrypt_init)
/home/wall/projects/IoT/mcu/platforms/espressif/esp8266_sdk/2.2.1/ESP8266_NONOS_SDK_2.2.1/lib/libcrypto.a(aes-internal.o)
                              /home/wall/projects/IoT/mcu/platforms/espressif/esp8266_sdk/2.2.1/ESP8266_NONOS_SDK_2.2.1/lib/libcrypto.a(aes-internal-enc.o) (rijndaelKeySetupEnc)
/home/wall/projects/IoT/mcu/platforms/espressif/esp8266_sdk/2.2.1/ESP8266_NONOS_SDK_2.2.1/lib/libc.a(lib_a-isxdigit.o)
                              /home/wall/projects/IoT/mcu/platforms/espressif/esp8266_sdk/2.2.1/ESP8266_NONOS_SDK_2.2.1/lib/liblwip.a(ip_addr.o) (isxdigit)
/home/wall/projects/IoT/mcu/platforms/espressif/esp8266_sdk/2.2.1/ESP8266_NONOS_SDK_2.2.1/lib/libc.a(lib_a-memchr.o)
                              /home/wall/projects/IoT/mcu/platforms/espressif/esp8266_sdk/2.2.1/ESP8266_NONOS_SDK_2.2.1/lib/liblwip.a(espconn_buf.o) (memchr)
/home/wall/projects/IoT/mcu/platforms/espressif/esp8266_sdk/2.2.1/ESP8266_NONOS_SDK_2.2.1/lib/libc.a(lib_a-ctype_.o)
                              /home/wall/projects/IoT/mcu/platforms/espressif/esp8266_sdk/2.2.1/ESP8266_NONOS_SDK_2.2.1/lib/libc.a(lib_a-isxdigit.o) (__ctype_ptr__)
/home/wall/projects/IoT/mcu/platforms/espressif/esp8266_sdk/2.2.1/ESP8266_NONOS_SDK_2.2.1/lib/libgcc.a(_modsi3.o)
                              /home/wall/projects/IoT/mcu/platforms/espressif/esp8266_sdk/2.2.1/ESP8266_NONOS_SDK_2.2.1/lib/libphy.a(phy_chip_v6.o) (__modsi3)
/home/wall/projects/IoT/mcu/platforms/espressif/esp8266_sdk/2.2.1/ESP8266_NONOS_SDK_2.2.1/lib/libgcc.a(_ashrdi3.o)
                              /home/wall/projects/IoT/mcu/platforms/espressif/esp8266_sdk/2.2.1/ESP8266_NONOS_SDK_2.2.1/lib/libphy.a(phy_chip_v6.o) (__ashrdi3)
/home/wall/projects/IoT/mcu/platforms/espressif/esp8266_sdk/2.2.1/ESP8266_NONOS_SDK_2.2.1/lib/libgcc.a(_divsf3.o)
                              /home/wall/projects/IoT/mcu/platforms/espressif/esp8266_sdk/2.2.1/ESP8266_NONOS_SDK_2.2.1/lib/libphy.a(phy_chip_v6_ana.o) (__divsf3)
/home/wall/projects/IoT/mcu/platforms/espressif/esp8266_sdk/2.2.1/ESP8266_NONOS_SDK_2.2.1/lib/libgcc.a(_fixsfsi.o)
                              /home/wall/projects/IoT/mcu/platforms/espressif/esp8266_sdk/2.2.1/ESP8266_NONOS_SDK_2.2.1/lib/libphy.a(phy_chip_v6.o) (__fixsfsi)
/home/wall/projects/IoT/mcu/platforms/espressif/esp8266_sdk/2.2.1/ESP8266_NONOS_SDK_2.2.1/lib/libnet80211.a(ieee80211_crypto_tkip.o)
                              /home/wall/projects/IoT/mcu/platforms/espressif/esp8266_sdk/2.2.1/ESP8266_NONOS_SDK_2.2.1/lib/libwpa.a(wpa_auth.o) (tkip)
/home/wall/projects/IoT/mcu/platforms/espressif/esp8266_sdk/2.2.1/ESP8266_NONOS_SDK_2.2.1/lib/libnet80211.a(ieee80211_crypto_wep.o)
                              /home/wall/projects/IoT/mcu/platforms/espressif/esp8266_sdk/2.2.1/ESP8266_NONOS_SDK_2.2.1/lib/libwpa.a(wpa_auth.o) (wep)

Allocating common symbols
Common symbol       size              file

current_iphdr_src   0x4               /home/wall/projects/IoT/mcu/platforms/espressif/esp8266_sdk/2.2.1/ESP8266_NONOS_SDK_2.2.1/lib/liblwip.a(ip.o)
netif_list          0x4               /home/wall/projects/IoT/mcu/platforms/espressif/esp8266_sdk/2.2.1/ESP8266_NONOS_SDK_2.2.1/lib/liblwip.a(netif.o)
tcp_active_pcbs     0x4               /home/wall/projects/IoT/mcu/platforms/espressif/esp8266_sdk/2.2.1/ESP8266_NONOS_SDK_2.2.1/lib/liblwip.a(tcp.o)
udp_pcbs            0x4               /home/wall/projects/IoT/mcu/platforms/espressif/esp8266_sdk/2.2.1/ESP8266_NONOS_SDK_2.2.1/lib/liblwip.a(udp.o)
current_netif       0x4               /home/wall/projects/IoT/mcu/platforms/espressif/esp8266_sdk/2.2.1/ESP8266_NONOS_SDK_2.2.1/lib/liblwip.a(ip.o)
tcp_ticks           0x4               /home/wall/projects/IoT/mcu/platforms/espressif/esp8266_sdk/2.2.1/ESP8266_NONOS_SDK_2.2.1/lib/liblwip.a(tcp.o)
tcp_listen_pcbs     0x4               /home/wall/projects/IoT/mcu/platforms/espressif/esp8266_sdk/2.2.1/ESP8266_NONOS_SDK_2.2.1/lib/liblwip.a(tcp.o)
current_iphdr_dest  0x4               /home/wall/projects/IoT/mcu/platforms/espressif/esp8266_sdk/2.2.1/ESP8266_NONOS_SDK_2.2.1/lib/liblwip.a(ip.o)
tcp_tmp_pcb         0x4               /home/wall/projects/IoT/mcu/platforms/espressif/esp8266_sdk/2.2.1/ESP8266_NONOS_SDK_2.2.1/lib/liblwip.a(tcp.o)
tcp_input_pcb       0x4               /home/wall/projects/IoT/mcu/platforms/espressif/esp8266_sdk/2.2.1/ESP8266_NONOS_SDK_2.2.1/lib/liblwip.a(tcp_in.o)
current_header      0x4               /home/wall/projects/IoT/mcu/platforms/espressif/esp8266_sdk/2.2.1/ESP8266_NONOS_SDK_2.2.1/lib/liblwip.a(ip.o)
premot              0xb4              /home/wall/projects/IoT/mcu/platforms/espressif/esp8266_sdk/2.2.1/ESP8266_NONOS_SDK_2.2.1/lib/liblwip.a(espconn.o)
dhcp_rx_options_given
                    0xa               /home/wall/projects/IoT/mcu/platforms/espressif/esp8266_sdk/2.2.1/ESP8266_NONOS_SDK_2.2.1/lib/liblwip.a(dhcp.o)
tcp_bound_pcbs      0x4               /home/wall/projects/IoT/mcu/platforms/espressif/esp8266_sdk/2.2.1/ESP8266_NONOS_SDK_2.2.1/lib/liblwip.a(tcp.o)
espconn_TaskQueue   0x78              /home/wall/projects/IoT/mcu/platforms/espressif/esp8266_sdk/2.2.1/ESP8266_NONOS_SDK_2.2.1/lib/liblwip.a(espconn_tcp.o)
pktinfo             0x28              /home/wall/projects/IoT/mcu/platforms/espressif/esp8266_sdk/2.2.1/ESP8266_NONOS_SDK_2.2.1/lib/liblwip.a(espconn.o)
tcp_tw_pcbs         0x4               /home/wall/projects/IoT/mcu/platforms/espressif/esp8266_sdk/2.2.1/ESP8266_NONOS_SDK_2.2.1/lib/liblwip.a(tcp.o)
netif_default       0x4               /home/wall/projects/IoT/mcu/platforms/espressif/esp8266_sdk/2.2.1/ESP8266_NONOS_SDK_2.2.1/lib/liblwip.a(netif.o)
dhcp_rx_options_val
                    0x28              /home/wall/projects/IoT/mcu/platforms/espressif/esp8266_sdk/2.2.1/ESP8266_NONOS_SDK_2.2.1/lib/liblwip.a(dhcp.o)

Memory Configuration

Name             Origin             Length             Attributes
dport0_0_seg     0x000000003ff00000 0x0000000000000010
dram0_0_seg      0x000000003ffe8000 0x0000000000014000
iram1_0_seg      0x0000000040100000 0x0000000000008000
irom0_0_seg      0x0000000040210000 0x000000000005c000
*default*        0x0000000000000000 0xffffffffffffffff

Linker script and memory map

START GROUP
LOAD /home/wall/projects/IoT/mcu/platforms/espressif/esp8266_sdk/2.2.1/ESP8266_NONOS_SDK_2.2.1/lib/libc.a
LOAD /home/wall/projects/IoT/mcu/platforms/espressif/esp8266_sdk/2.2.1/ESP8266_NONOS_SDK_2.2.1/lib/libgcc.a
LOAD /home/wall/projects/IoT/mcu/platforms/espressif/esp8266_sdk/2.2.1/xtensa-lx106-elf/bin/../xtensa-lx106-elf/sysroot/usr/lib/libhal.a
LOAD /home/wall/projects/IoT/mcu/platforms/espressif/esp8266_sdk/2.2.1/ESP8266_NONOS_SDK_2.2.1/lib/libpp.a
LOAD /home/wall/projects/IoT/mcu/platforms/espressif/esp8266_sdk/2.2.1/ESP8266_NONOS_SDK_2.2.1/lib/libphy.a
LOAD /home/wall/projects/IoT/mcu/platforms/espressif/esp8266_sdk/2.2.1/ESP8266_NONOS_SDK_2.2.1/lib/libnet80211.a
LOAD /home/wall/projects/IoT/mcu/platforms/espressif/esp8266_sdk/2.2.1/ESP8266_NONOS_SDK_2.2.1/lib/liblwip.a
LOAD /home/wall/projects/IoT/mcu/platforms/espressif/esp8266_sdk/2.2.1/ESP8266_NONOS_SDK_2.2.1/lib/libwpa.a
LOAD /home/wall/projects/IoT/mcu/platforms/espressif/esp8266_sdk/2.2.1/ESP8266_NONOS_SDK_2.2.1/lib/libpwm.a
LOAD /home/wall/projects/IoT/mcu/platforms/espressif/esp8266_sdk/2.2.1/ESP8266_NONOS_SDK_2.2.1/lib/libupgrade.a
LOAD /home/wall/projects/IoT/mcu/platforms/espressif/esp8266_sdk/2.2.1/ESP8266_NONOS_SDK_2.2.1/lib/libmain.a
LOAD /home/wall/projects/IoT/mcu/platforms/espressif/esp8266_sdk/2.2.1/ESP8266_NONOS_SDK_2.2.1/lib/libssl.a
LOAD /home/wall/projects/IoT/mcu/platforms/espressif/esp8266_sdk/2.2.1/ESP8266_NONOS_SDK_2.2.1/lib/libcrypto.a
LOAD /home/wall/projects/IoT/mcu/platforms/espressif/esp8266_sdk/2.2.1/ESP8266_NONOS_SDK_2.2.1/lib/libsmartconfig.a
LOAD /home/wall/projects/IoT/mcu/platforms/espressif/esp8266_sdk/2.2.1/ESP8266_NONOS_SDK_2.2.1/lib/libespnow.a
LOAD /home/wall/projects/IoT/mcu/platforms/espressif/esp8266_sdk/2.2.1/ESP8266_NONOS_SDK_2.2.1/lib/libjson.a
LOAD /home/wall/projects/IoT/mcu/platforms/espressif/esp8266_sdk/2.2.1/ESP8266_NONOS_SDK_2.2.1/lib/libairkiss.a
LOAD /home/wall/projects/templates/Makefile/Makefile_generic/esp/esp8266/build/user/blinky/blinky.a
END GROUP
                [!provide]                        PROVIDE (_memmap_vecbase_reset, 0x40000000)
                0x0000000000000110                _memmap_cacheattr_wb_base = 0x110
                0x0000000000000110                _memmap_cacheattr_wt_base = 0x110
                0x0000000000000220                _memmap_cacheattr_bp_base = 0x220
                0x00000000fffff00f                _memmap_cacheattr_unused_mask = 0xfffff00f
                0x000000002222211f                _memmap_cacheattr_wb_trapnull = 0x2222211f
                0x000000002222211f                _memmap_cacheattr_wba_trapnull = 0x2222211f
                0x000000002222211f                _memmap_cacheattr_wbna_trapnull = 0x2222211f
                0x000000002222211f                _memmap_cacheattr_wt_trapnull = 0x2222211f
                0x000000002222222f                _memmap_cacheattr_bp_trapnull = 0x2222222f
                0x00000000fffff11f                _memmap_cacheattr_wb_strict = 0xfffff11f
                0x00000000fffff11f                _memmap_cacheattr_wt_strict = 0xfffff11f
                0x00000000fffff22f                _memmap_cacheattr_bp_strict = 0xfffff22f
                0x0000000022222112                _memmap_cacheattr_wb_allvalid = 0x22222112
                0x0000000022222112                _memmap_cacheattr_wt_allvalid = 0x22222112
                0x0000000022222222                _memmap_cacheattr_bp_allvalid = 0x22222222
                [!provide]                        PROVIDE (_memmap_cacheattr_reset, _memmap_cacheattr_wb_trapnull)

.dport0.rodata  0x000000003ff00000        0x0
                0x000000003ff00000                _dport0_rodata_start = ABSOLUTE (.)
 *(.dport0.rodata)
 *(.dport.rodata)
                0x000000003ff00000                _dport0_rodata_end = ABSOLUTE (.)

.dport0.literal
                0x000000003ff00000        0x0
                0x000000003ff00000                _dport0_literal_start = ABSOLUTE (.)
 *(.dport0.literal)
 *(.dport.literal)
                0x000000003ff00000                _dport0_literal_end = ABSOLUTE (.)

.dport0.data    0x000000003ff00000        0x0
                0x000000003ff00000                _dport0_data_start = ABSOLUTE (.)
 *(.dport0.data)
 *(.dport.data)
                0x000000003ff00000                _dport0_data_end = ABSOLUTE (.)

.data           0x000000003ffe8000      0x37a
                0x000000003ffe8000                _data_start = ABSOLUTE (.)
 *(.data)
 .data          0x000000003ffe8000        0x0 /home/wall/projects/IoT/mcu/platforms/espressif/esp8266_sdk/2.2.1/ESP8266_NONOS_SDK_2.2.1/lib/libmain.a(debug-vector.o)
 .data          0x000000003ffe8000        0x0 /home/wall/projects/IoT/mcu/platforms/espressif/esp8266_sdk/2.2.1/ESP8266_NONOS_SDK_2.2.1/lib/libmain.a(double-vector.o)
 .data          0x000000003ffe8000        0x0 /home/wall/projects/IoT/mcu/platforms/espressif/esp8266_sdk/2.2.1/ESP8266_NONOS_SDK_2.2.1/lib/libmain.a(kernel-vector.o)
 .data          0x000000003ffe8000        0x4 /home/wall/projects/IoT/mcu/platforms/espressif/esp8266_sdk/2.2.1/ESP8266_NONOS_SDK_2.2.1/lib/libmain.a(nmi-vector.o)
                0x000000003ffe8000                _Pri_3_HandlerAddress
 .data          0x000000003ffe8004        0x0 /home/wall/projects/IoT/mcu/platforms/espressif/esp8266_sdk/2.2.1/ESP8266_NONOS_SDK_2.2.1/lib/libmain.a(user-vector.o)
 .data          0x000000003ffe8004        0x0 /home/wall/projects/IoT/mcu/platforms/espressif/esp8266_sdk/2.2.1/ESP8266_NONOS_SDK_2.2.1/lib/libmain.a(vector.o)
 .data          0x000000003ffe8004        0x1 /home/wall/projects/IoT/mcu/platforms/espressif/esp8266_sdk/2.2.1/ESP8266_NONOS_SDK_2.2.1/lib/libmain.a(app_main.o)
 .data          0x000000003ffe8005        0x0 /home/wall/projects/IoT/mcu/platforms/espressif/esp8266_sdk/2.2.1/ESP8266_NONOS_SDK_2.2.1/lib/libmain.a(ets_timer.o)
 .data          0x000000003ffe8005        0x0 /home/wall/projects/IoT/mcu/platforms/espressif/esp8266_sdk/2.2.1/ESP8266_NONOS_SDK_2.2.1/lib/libmain.a(mem_manager.o)
 *fill*         0x000000003ffe8005        0x3 
 .data          0x000000003ffe8008        0xd /home/wall/projects/IoT/mcu/platforms/espressif/esp8266_sdk/2.2.1/ESP8266_NONOS_SDK_2.2.1/lib/libmain.a(user_interface.o)
                0x000000003ffe800c                bin_sum_len
                0x000000003ffe8010                timer2_ms_flag
                0x000000003ffe8011                dhcps_flag
                0x000000003ffe8012                dhcpc_flag
                0x000000003ffe8014                reconnect_internal
 .data          0x000000003ffe8015        0x0 /home/wall/projects/IoT/mcu/platforms/espressif/esp8266_sdk/2.2.1/ESP8266_NONOS_SDK_2.2.1/lib/libmain.a(spi_flash.o)
 .data          0x000000003ffe8015        0x0 /home/wall/projects/IoT/mcu/platforms/espressif/esp8266_sdk/2.2.1/ESP8266_NONOS_SDK_2.2.1/lib/libmain.a(eagle_lib.o)
 *fill*         0x000000003ffe8015        0x3 
 .data          0x000000003ffe8018        0x1 /home/wall/projects/IoT/mcu/platforms/espressif/esp8266_sdk/2.2.1/ESP8266_NONOS_SDK_2.2.1/lib/libmain.a(eagle_lwip_if.o)
                0x000000003ffe8018                default_hostname
 .data          0x000000003ffe8019        0x0 /home/wall/projects/templates/Makefile/Makefile_generic/esp/esp8266/build/user/blinky/blinky.a(rf_init.o)
 .data          0x000000003ffe8019        0x0 /home/wall/projects/templates/Makefile/Makefile_generic/esp/esp8266/build/user/blinky/blinky.a(main.o)
 .data          0x000000003ffe8019        0x0 /home/wall/projects/IoT/mcu/platforms/espressif/esp8266_sdk/2.2.1/xtensa-lx106-elf/bin/../xtensa-lx106-elf/sysroot/usr/lib/libhal.a(int_asm--set_intclear.o)
 .data          0x000000003ffe8019        0x0 /home/wall/projects/IoT/mcu/platforms/espressif/esp8266_sdk/2.2.1/ESP8266_NONOS_SDK_2.2.1/lib/libpp.a(if_hwctrl.o)
 .data          0x000000003ffe8019        0x0 /home/wall/projects/IoT/mcu/platforms/espressif/esp8266_sdk/2.2.1/ESP8266_NONOS_SDK_2.2.1/lib/libpp.a(lmac.o)
 *fill*         0x000000003ffe8019        0x3 
 .data          0x000000003ffe801c        0x1 /home/wall/projects/IoT/mcu/platforms/espressif/esp8266_sdk/2.2.1/ESP8266_NONOS_SDK_2.2.1/lib/libpp.a(pm.o)
 *fill*         0x000000003ffe801d        0x3 
 .data          0x000000003ffe8020        0x1 /home/wall/projects/IoT/mcu/platforms/espressif/esp8266_sdk/2.2.1/ESP8266_NONOS_SDK_2.2.1/lib/libpp.a(pm_for_bcn_only_mode.o)
 *fill*         0x000000003ffe8021        0x3 
 .data          0x000000003ffe8024       0x1c /home/wall/projects/IoT/mcu/platforms/espressif/esp8266_sdk/2.2.1/ESP8266_NONOS_SDK_2.2.1/lib/libpp.a(pp.o)
                0x000000003ffe8024                soft_wdt_interval
                0x000000003ffe8028                NoiseTimerInterval
                0x000000003ffe8030                sleep_start_wait_time
                0x000000003ffe8038                CanDoFreqCal
                0x000000003ffe8039                test_freq_val_first
                0x000000003ffe803c                tcb
 .data          0x000000003ffe8040       0x40 /home/wall/projects/IoT/mcu/platforms/espressif/esp8266_sdk/2.2.1/ESP8266_NONOS_SDK_2.2.1/lib/libpp.a(rate_control.o)
 .data          0x000000003ffe8080      0x24c /home/wall/projects/IoT/mcu/platforms/espressif/esp8266_sdk/2.2.1/ESP8266_NONOS_SDK_2.2.1/lib/libpp.a(trc.o)
 .data          0x000000003ffe82cc        0x8 /home/wall/projects/IoT/mcu/platforms/espressif/esp8266_sdk/2.2.1/ESP8266_NONOS_SDK_2.2.1/lib/libpp.a(wdev.o)
 .data          0x000000003ffe82d4        0x0 /home/wall/projects/IoT/mcu/platforms/espressif/esp8266_sdk/2.2.1/ESP8266_NONOS_SDK_2.2.1/lib/libpp.a(esf_buf.o)
 .data          0x000000003ffe82d4        0x0 /home/wall/projects/IoT/mcu/platforms/espressif/esp8266_sdk/2.2.1/ESP8266_NONOS_SDK_2.2.1/lib/libphy.a(phy.o)
 .data          0x000000003ffe82d4        0x0 /home/wall/projects/IoT/mcu/platforms/espressif/esp8266_sdk/2.2.1/ESP8266_NONOS_SDK_2.2.1/lib/libphy.a(phy_chip_v6_ana.o)
 *fill*         0x000000003ffe82d4        0xc 
 .data          0x000000003ffe82e0       0x53 /home/wall/projects/IoT/mcu/platforms/espressif/esp8266_sdk/2.2.1/ESP8266_NONOS_SDK_2.2.1/lib/libphy.a(phy_chip_v6.o)
                0x000000003ffe82e2                tx_rf_ana_gain
                0x000000003ffe8310                rx_gain_swp
                0x000000003ffe8330                test_rffreq_txcap
 *fill*         0x000000003ffe8333        0x1 
 .data          0x000000003ffe8334        0x1 /home/wall/projects/IoT/mcu/platforms/espressif/esp8266_sdk/2.2.1/ESP8266_NONOS_SDK_2.2.1/lib/libphy.a(phy_chip_v6_cal.o)
                0x000000003ffe8334                rfcal_bb_atten_init
 .data          0x000000003ffe8335        0x0 /home/wall/projects/IoT/mcu/platforms/espressif/esp8266_sdk/2.2.1/ESP8266_NONOS_SDK_2.2.1/lib/libphy.a(phy_chip_v6_unused.o)
 *fill*         0x000000003ffe8335        0x3 
 .data          0x000000003ffe8338        0x4 /home/wall/projects/IoT/mcu/platforms/espressif/esp8266_sdk/2.2.1/ESP8266_NONOS_SDK_2.2.1/lib/libphy.a(phy_sleep.o)
                0x000000003ffe8338                chip_version
 .data          0x000000003ffe833c        0x0 /home/wall/projects/IoT/mcu/platforms/espressif/esp8266_sdk/2.2.1/ESP8266_NONOS_SDK_2.2.1/lib/libnet80211.a(ieee80211.o)
 .data          0x000000003ffe833c        0x0 /home/wall/projects/IoT/mcu/platforms/espressif/esp8266_sdk/2.2.1/ESP8266_NONOS_SDK_2.2.1/lib/libnet80211.a(ieee80211_crypto.o)
 .data          0x000000003ffe833c        0x0 /home/wall/projects/IoT/mcu/platforms/espressif/esp8266_sdk/2.2.1/ESP8266_NONOS_SDK_2.2.1/lib/libnet80211.a(ieee80211_ets.o)
 .data          0x000000003ffe833c        0x1 /home/wall/projects/IoT/mcu/platforms/espressif/esp8266_sdk/2.2.1/ESP8266_NONOS_SDK_2.2.1/lib/libnet80211.a(ieee80211_hostap.o)
                0x000000003ffe833c                TmpSTAAPCloseAP
 .data          0x000000003ffe833d        0x0 /home/wall/projects/IoT/mcu/platforms/espressif/esp8266_sdk/2.2.1/ESP8266_NONOS_SDK_2.2.1/lib/libnet80211.a(ieee80211_ht.o)
 .data          0x000000003ffe833d        0x0 /home/wall/projects/IoT/mcu/platforms/espressif/esp8266_sdk/2.2.1/ESP8266_NONOS_SDK_2.2.1/lib/libnet80211.a(ieee80211_input.o)
 .data          0x000000003ffe833d        0x0 /home/wall/projects/IoT/mcu/platforms/espressif/esp8266_sdk/2.2.1/ESP8266_NONOS_SDK_2.2.1/lib/libnet80211.a(ieee80211_mesh_quick.o)
 .data          0x000000003ffe833d        0x0 /home/wall/projects/IoT/mcu/platforms/espressif/esp8266_sdk/2.2.1/ESP8266_NONOS_SDK_2.2.1/lib/libnet80211.a(ieee80211_output.o)
 .data          0x000000003ffe833d        0x0 /home/wall/projects/IoT/mcu/platforms/espressif/esp8266_sdk/2.2.1/ESP8266_NONOS_SDK_2.2.1/lib/libnet80211.a(ieee80211_phy.o)
 .data          0x000000003ffe833d        0x0 /home/wall/projects/IoT/mcu/platforms/espressif/esp8266_sdk/2.2.1/ESP8266_NONOS_SDK_2.2.1/lib/libnet80211.a(ieee80211_power.o)
 .data          0x000000003ffe833d        0x0 /home/wall/projects/IoT/mcu/platforms/espressif/esp8266_sdk/2.2.1/ESP8266_NONOS_SDK_2.2.1/lib/libnet80211.a(ieee80211_proto.o)
 .data          0x000000003ffe833d        0x0 /home/wall/projects/IoT/mcu/platforms/espressif/esp8266_sdk/2.2.1/ESP8266_NONOS_SDK_2.2.1/lib/libnet80211.a(ieee80211_regdomain.o)
 .data          0x000000003ffe833d        0x0 /home/wall/projects/IoT/mcu/platforms/espressif/esp8266_sdk/2.2.1/ESP8266_NONOS_SDK_2.2.1/lib/libnet80211.a(ieee80211_rfid.o)
 *fill*         0x000000003ffe833d        0x3 
 .data          0x000000003ffe8340        0x1 /home/wall/projects/IoT/mcu/platforms/espressif/esp8266_sdk/2.2.1/ESP8266_NONOS_SDK_2.2.1/lib/libnet80211.a(ieee80211_scan.o)
                0x000000003ffe8340                TestStaFreqCalValOK
 .data          0x000000003ffe8341        0x0 /home/wall/projects/IoT/mcu/platforms/espressif/esp8266_sdk/2.2.1/ESP8266_NONOS_SDK_2.2.1/lib/libnet80211.a(ieee80211_sta.o)
 .data          0x000000003ffe8341        0x0 /home/wall/projects/IoT/mcu/platforms/espressif/esp8266_sdk/2.2.1/ESP8266_NONOS_SDK_2.2.1/lib/libnet80211.a(wl_chm.o)
 *fill*         0x000000003ffe8341        0x3 
 .data          0x000000003ffe8344        0x1 /home/wall/projects/IoT/mcu/platforms/espressif/esp8266_sdk/2.2.1/ESP8266_NONOS_SDK_2.2.1/lib/libnet80211.a(wl_cnx.o)
 *fill*         0x000000003ffe8345        0x3 
 .data          0x000000003ffe8348       0x1c /home/wall/projects/IoT/mcu/platforms/espressif/esp8266_sdk/2.2.1/ESP8266_NONOS_SDK_2.2.1/lib/libnet80211.a(ieee80211_action.o)
 .data          0x000000003ffe8364        0x0 /home/wall/projects/IoT/mcu/platforms/espressif/esp8266_sdk/2.2.1/ESP8266_NONOS_SDK_2.2.1/lib/libnet80211.a(ieee80211_action_vendor.o)
 .data          0x000000003ffe8364        0x0 /home/wall/projects/IoT/mcu/platforms/espressif/esp8266_sdk/2.2.1/ESP8266_NONOS_SDK_2.2.1/lib/libnet80211.a(ieee80211_crypto_ccmp.o)
 .data          0x000000003ffe8364        0x0 /home/wall/projects/IoT/mcu/platforms/espressif/esp8266_sdk/2.2.1/ESP8266_NONOS_SDK_2.2.1/lib/libnet80211.a(ieee80211_ie_vendor.o)
 .data          0x000000003ffe8364        0x0 /home/wall/projects/IoT/mcu/platforms/espressif/esp8266_sdk/2.2.1/ESP8266_NONOS_SDK_2.2.1/lib/liblwip.a(dhcp.o)
 .data          0x000000003ffe8364        0x0 /home/wall/projects/IoT/mcu/platforms/espressif/esp8266_sdk/2.2.1/ESP8266_NONOS_SDK_2.2.1/lib/liblwip.a(dhcpserver.o)
 .data          0x000000003ffe8364        0x0 /home/wall/projects/IoT/mcu/platforms/espressif/esp8266_sdk/2.2.1/ESP8266_NONOS_SDK_2.2.1/lib/liblwip.a(dns.o)
 .data          0x000000003ffe8364        0x0 /home/wall/projects/IoT/mcu/platforms/espressif/esp8266_sdk/2.2.1/ESP8266_NONOS_SDK_2.2.1/lib/liblwip.a(espconn_tcp.o)
 .data          0x000000003ffe8364        0x0 /home/wall/projects/IoT/mcu/platforms/espressif/esp8266_sdk/2.2.1/ESP8266_NONOS_SDK_2.2.1/lib/liblwip.a(etharp.o)
 .data          0x000000003ffe8364        0x0 /home/wall/projects/IoT/mcu/platforms/espressif/esp8266_sdk/2.2.1/ESP8266_NONOS_SDK_2.2.1/lib/liblwip.a(init.o)
 .data          0x000000003ffe8364        0x0 /home/wall/projects/IoT/mcu/platforms/espressif/esp8266_sdk/2.2.1/ESP8266_NONOS_SDK_2.2.1/lib/liblwip.a(ip.o)
 .data          0x000000003ffe8364        0x0 /home/wall/projects/IoT/mcu/platforms/espressif/esp8266_sdk/2.2.1/ESP8266_NONOS_SDK_2.2.1/lib/liblwip.a(ip_addr.o)
 .data          0x000000003ffe8364        0x0 /home/wall/projects/IoT/mcu/platforms/espressif/esp8266_sdk/2.2.1/ESP8266_NONOS_SDK_2.2.1/lib/liblwip.a(memp.o)
 .data          0x000000003ffe8364        0x0 /home/wall/projects/IoT/mcu/platforms/espressif/esp8266_sdk/2.2.1/ESP8266_NONOS_SDK_2.2.1/lib/liblwip.a(netif.o)
 .data          0x000000003ffe8364        0x0 /home/wall/projects/IoT/mcu/platforms/espressif/esp8266_sdk/2.2.1/ESP8266_NONOS_SDK_2.2.1/lib/liblwip.a(pbuf.o)
 .data          0x000000003ffe8364        0x0 /home/wall/projects/IoT/mcu/platforms/espressif/esp8266_sdk/2.2.1/ESP8266_NONOS_SDK_2.2.1/lib/liblwip.a(raw.o)
 .data          0x000000003ffe8364        0x0 /home/wall/projects/IoT/mcu/platforms/espressif/esp8266_sdk/2.2.1/ESP8266_NONOS_SDK_2.2.1/lib/liblwip.a(tcp.o)
 .data          0x000000003ffe8364        0x0 /home/wall/projects/IoT/mcu/platforms/espressif/esp8266_sdk/2.2.1/ESP8266_NONOS_SDK_2.2.1/lib/liblwip.a(tcp_in.o)
 .data          0x000000003ffe8364        0x0 /home/wall/projects/IoT/mcu/platforms/espressif/esp8266_sdk/2.2.1/ESP8266_NONOS_SDK_2.2.1/lib/liblwip.a(tcp_out.o)
 .data          0x000000003ffe8364        0x0 /home/wall/projects/IoT/mcu/platforms/espressif/esp8266_sdk/2.2.1/ESP8266_NONOS_SDK_2.2.1/lib/liblwip.a(timers.o)
 .data          0x000000003ffe8364        0x0 /home/wall/projects/IoT/mcu/platforms/espressif/esp8266_sdk/2.2.1/ESP8266_NONOS_SDK_2.2.1/lib/liblwip.a(udp.o)
 .data          0x000000003ffe8364        0x0 /home/wall/projects/IoT/mcu/platforms/espressif/esp8266_sdk/2.2.1/ESP8266_NONOS_SDK_2.2.1/lib/liblwip.a(espconn.o)
 .data          0x000000003ffe8364        0x0 /home/wall/projects/IoT/mcu/platforms/espressif/esp8266_sdk/2.2.1/ESP8266_NONOS_SDK_2.2.1/lib/liblwip.a(espconn_buf.o)
 .data          0x000000003ffe8364        0x0 /home/wall/projects/IoT/mcu/platforms/espressif/esp8266_sdk/2.2.1/ESP8266_NONOS_SDK_2.2.1/lib/liblwip.a(espconn_udp.o)
 .data          0x000000003ffe8364        0x0 /home/wall/projects/IoT/mcu/platforms/espressif/esp8266_sdk/2.2.1/ESP8266_NONOS_SDK_2.2.1/lib/liblwip.a(icmp.o)
 .data          0x000000003ffe8364        0x0 /home/wall/projects/IoT/mcu/platforms/espressif/esp8266_sdk/2.2.1/ESP8266_NONOS_SDK_2.2.1/lib/liblwip.a(igmp.o)
 .data          0x000000003ffe8364        0x0 /home/wall/projects/IoT/mcu/platforms/espressif/esp8266_sdk/2.2.1/ESP8266_NONOS_SDK_2.2.1/lib/liblwip.a(inet_chksum.o)
 .data          0x000000003ffe8364        0x0 /home/wall/projects/IoT/mcu/platforms/espressif/esp8266_sdk/2.2.1/ESP8266_NONOS_SDK_2.2.1/lib/libwpa.a(ap_config.o)
 .data          0x000000003ffe8364        0x0 /home/wall/projects/IoT/mcu/platforms/espressif/esp8266_sdk/2.2.1/ESP8266_NONOS_SDK_2.2.1/lib/libwpa.a(common.o)
 .data          0x000000003ffe8364        0x0 /home/wall/projects/IoT/mcu/platforms/espressif/esp8266_sdk/2.2.1/ESP8266_NONOS_SDK_2.2.1/lib/libwpa.a(os_xtensa.o)
 .data          0x000000003ffe8364        0x0 /home/wall/projects/IoT/mcu/platforms/espressif/esp8266_sdk/2.2.1/ESP8266_NONOS_SDK_2.2.1/lib/libwpa.a(wpa_auth.o)
 .data          0x000000003ffe8364        0x0 /home/wall/projects/IoT/mcu/platforms/espressif/esp8266_sdk/2.2.1/ESP8266_NONOS_SDK_2.2.1/lib/libwpa.a(wpa_auth_ie.o)
 .data          0x000000003ffe8364        0x0 /home/wall/projects/IoT/mcu/platforms/espressif/esp8266_sdk/2.2.1/ESP8266_NONOS_SDK_2.2.1/lib/libwpa.a(wpa.o)
 .data          0x000000003ffe8364        0x0 /home/wall/projects/IoT/mcu/platforms/espressif/esp8266_sdk/2.2.1/ESP8266_NONOS_SDK_2.2.1/lib/libwpa.a(wpa_common.o)
 .data          0x000000003ffe8364        0x0 /home/wall/projects/IoT/mcu/platforms/espressif/esp8266_sdk/2.2.1/ESP8266_NONOS_SDK_2.2.1/lib/libwpa.a(wpa_debug.o)
 .data          0x000000003ffe8364        0x0 /home/wall/projects/IoT/mcu/platforms/espressif/esp8266_sdk/2.2.1/ESP8266_NONOS_SDK_2.2.1/lib/libwpa.a(wpa_ie.o)
 .data          0x000000003ffe8364        0x0 /home/wall/projects/IoT/mcu/platforms/espressif/esp8266_sdk/2.2.1/ESP8266_NONOS_SDK_2.2.1/lib/libwpa.a(wpa_main.o)
 .data          0x000000003ffe8364        0x0 /home/wall/projects/IoT/mcu/platforms/espressif/esp8266_sdk/2.2.1/ESP8266_NONOS_SDK_2.2.1/lib/libwpa.a(wpas_glue.o)
 .data          0x000000003ffe8364        0x0 /home/wall/projects/IoT/mcu/platforms/espressif/esp8266_sdk/2.2.1/ESP8266_NONOS_SDK_2.2.1/lib/libcrypto.a(aes-wrap.o)
 .data          0x000000003ffe8364        0x0 /home/wall/projects/IoT/mcu/platforms/espressif/esp8266_sdk/2.2.1/ESP8266_NONOS_SDK_2.2.1/lib/libcrypto.a(aes-internal-enc.o)
 .data          0x000000003ffe8364        0x0 /home/wall/projects/IoT/mcu/platforms/espressif/esp8266_sdk/2.2.1/ESP8266_NONOS_SDK_2.2.1/lib/libcrypto.a(aes-internal.o)
 .data          0x000000003ffe8364        0x0 /home/wall/projects/IoT/mcu/platforms/espressif/esp8266_sdk/2.2.1/ESP8266_NONOS_SDK_2.2.1/lib/libc.a(lib_a-isxdigit.o)
 .data          0x000000003ffe8364        0x0 /home/wall/projects/IoT/mcu/platforms/espressif/esp8266_sdk/2.2.1/ESP8266_NONOS_SDK_2.2.1/lib/libc.a(lib_a-memchr.o)
 .data          0x000000003ffe8364        0x4 /home/wall/projects/IoT/mcu/platforms/espressif/esp8266_sdk/2.2.1/ESP8266_NONOS_SDK_2.2.1/lib/libc.a(lib_a-ctype_.o)
                0x000000003ffe8364                __ctype_ptr__
 .data          0x000000003ffe8368        0x0 /home/wall/projects/IoT/mcu/platforms/espressif/esp8266_sdk/2.2.1/ESP8266_NONOS_SDK_2.2.1/lib/libgcc.a(_modsi3.o)
 .data          0x000000003ffe8368        0x0 /home/wall/projects/IoT/mcu/platforms/espressif/esp8266_sdk/2.2.1/ESP8266_NONOS_SDK_2.2.1/lib/libgcc.a(_ashrdi3.o)
 .data          0x000000003ffe8368        0x0 /home/wall/projects/IoT/mcu/platforms/espressif/esp8266_sdk/2.2.1/ESP8266_NONOS_SDK_2.2.1/lib/libgcc.a(_divsf3.o)
 .data          0x000000003ffe8368        0x0 /home/wall/projects/IoT/mcu/platforms/espressif/esp8266_sdk/2.2.1/ESP8266_NONOS_SDK_2.2.1/lib/libgcc.a(_fixsfsi.o)
 .data          0x000000003ffe8368        0x0 /home/wall/projects/IoT/mcu/platforms/espressif/esp8266_sdk/2.2.1/ESP8266_NONOS_SDK_2.2.1/lib/libnet80211.a(ieee80211_crypto_tkip.o)
 .data          0x000000003ffe8368        0x0 /home/wall/projects/IoT/mcu/platforms/espressif/esp8266_sdk/2.2.1/ESP8266_NONOS_SDK_2.2.1/lib/libnet80211.a(ieee80211_crypto_wep.o)
 *(.data.*)
 .data.xid$2591
                0x000000003ffe8368        0x4 /home/wall/projects/IoT/mcu/platforms/espressif/esp8266_sdk/2.2.1/ESP8266_NONOS_SDK_2.2.1/lib/liblwip.a(dhcp.o)
 .data.dhcps_lease_time
                0x000000003ffe836c        0x4 /home/wall/projects/IoT/mcu/platforms/espressif/esp8266_sdk/2.2.1/ESP8266_NONOS_SDK_2.2.1/lib/liblwip.a(dhcpserver.o)
                0x000000003ffe836c                dhcps_lease_time
 .data.offer    0x000000003ffe8370        0x1 /home/wall/projects/IoT/mcu/platforms/espressif/esp8266_sdk/2.2.1/ESP8266_NONOS_SDK_2.2.1/lib/liblwip.a(dhcpserver.o)
 *fill*         0x000000003ffe8371        0x1 
 .data.memp_sizes_test
                0x000000003ffe8372        0x2 /home/wall/projects/IoT/mcu/platforms/espressif/esp8266_sdk/2.2.1/ESP8266_NONOS_SDK_2.2.1/lib/liblwip.a(memp.o)
                0x000000003ffe8372                memp_sizes_test
 .data.iss$2679
                0x000000003ffe8374        0x4 /home/wall/projects/IoT/mcu/platforms/espressif/esp8266_sdk/2.2.1/ESP8266_NONOS_SDK_2.2.1/lib/liblwip.a(tcp.o)
 .data.port$2535
                0x000000003ffe8378        0x2 /home/wall/projects/IoT/mcu/platforms/espressif/esp8266_sdk/2.2.1/ESP8266_NONOS_SDK_2.2.1/lib/liblwip.a(tcp.o)
 *(.gnu.linkonce.d.*)
 *(.data1)
 *(.sdata)
 *(.sdata.*)
 *(.gnu.linkonce.s.*)
 *(.sdata2)
 *(.sdata2.*)
 *(.gnu.linkonce.s2.*)
 *(.jcr)
                0x000000003ffe837a                _data_end = ABSOLUTE (.)

.rodata         0x000000003ffe8380      0x300
                0x000000003ffe8380                _rodata_start = ABSOLUTE (.)
 *(.sdk.version)
 .sdk.version   0x000000003ffe8380        0xf /home/wall/projects/IoT/mcu/platforms/espressif/esp8266_sdk/2.2.1/ESP8266_NONOS_SDK_2.2.1/lib/libmain.a(app_main.o)
                0x000000003ffe8380                SDK_VERSION
 *(.rodata)
 *fill*         0x000000003ffe838f        0x1 
 .rodata        0x000000003ffe8390        0x8 /home/wall/projects/IoT/mcu/platforms/espressif/esp8266_sdk/2.2.1/ESP8266_NONOS_SDK_2.2.1/lib/libpp.a(pp.o)
 .rodata        0x000000003ffe8398        0x8 /home/wall/projects/IoT/mcu/platforms/espressif/esp8266_sdk/2.2.1/ESP8266_NONOS_SDK_2.2.1/lib/libphy.a(phy_chip_v6_ana.o)
 .rodata        0x000000003ffe83a0        0x8 /home/wall/projects/IoT/mcu/platforms/espressif/esp8266_sdk/2.2.1/ESP8266_NONOS_SDK_2.2.1/lib/libphy.a(phy_chip_v6.o)
 .rodata        0x000000003ffe83a8        0x8 /home/wall/projects/IoT/mcu/platforms/espressif/esp8266_sdk/2.2.1/ESP8266_NONOS_SDK_2.2.1/lib/libnet80211.a(ieee80211_hostap.o)
 .rodata        0x000000003ffe83b0        0x9 /home/wall/projects/IoT/mcu/platforms/espressif/esp8266_sdk/2.2.1/ESP8266_NONOS_SDK_2.2.1/lib/libnet80211.a(ieee80211_output.o)
 *fill*         0x000000003ffe83b9        0x3 
 .rodata        0x000000003ffe83bc       0x44 /home/wall/projects/IoT/mcu/platforms/espressif/esp8266_sdk/2.2.1/ESP8266_NONOS_SDK_2.2.1/lib/liblwip.a(espconn_tcp.o)
 .rodata        0x000000003ffe8400       0x14 /home/wall/projects/IoT/mcu/platforms/espressif/esp8266_sdk/2.2.1/ESP8266_NONOS_SDK_2.2.1/lib/liblwip.a(pbuf.o)
 .rodata        0x000000003ffe8414       0x20 /home/wall/projects/IoT/mcu/platforms/espressif/esp8266_sdk/2.2.1/ESP8266_NONOS_SDK_2.2.1/lib/liblwip.a(tcp_in.o)
 *fill*         0x000000003ffe8434        0xc 
 .rodata        0x000000003ffe8440       0x20 /home/wall/projects/IoT/mcu/platforms/espressif/esp8266_sdk/2.2.1/ESP8266_NONOS_SDK_2.2.1/lib/libwpa.a(wpa.o)
 .rodata        0x000000003ffe8460      0x101 /home/wall/projects/IoT/mcu/platforms/espressif/esp8266_sdk/2.2.1/ESP8266_NONOS_SDK_2.2.1/lib/libc.a(lib_a-ctype_.o)
                0x000000003ffe8460                _ctype_
 *(.rodata.*)
 *fill*         0x000000003ffe8561        0x3 
 .rodata.str1.4
                0x000000003ffe8564        0xc /home/wall/projects/IoT/mcu/platforms/espressif/esp8266_sdk/2.2.1/ESP8266_NONOS_SDK_2.2.1/lib/libmain.a(app_main.o)
 .rodata.str1.4
                0x000000003ffe8570        0x4 /home/wall/projects/IoT/mcu/platforms/espressif/esp8266_sdk/2.2.1/ESP8266_NONOS_SDK_2.2.1/lib/libmain.a(ets_timer.o)
                                          0xc (size before relaxing)
 .rodata.str1.4
                0x000000003ffe8574       0x1a /home/wall/projects/IoT/mcu/platforms/espressif/esp8266_sdk/2.2.1/ESP8266_NONOS_SDK_2.2.1/lib/libmain.a(mem_manager.o)
 .rodata.CSWTCH$2
                0x000000003ffe858e        0xe /home/wall/projects/templates/Makefile/Makefile_generic/esp/esp8266/build/user/blinky/blinky.a(rf_init.o)
 .rodata.str1.1
                0x000000003ffe859c       0x18 /home/wall/projects/templates/Makefile/Makefile_generic/esp/esp8266/build/user/blinky/blinky.a(main.o)
 .rodata.str1.4
                0x000000003ffe85b4        0x4 /home/wall/projects/IoT/mcu/platforms/espressif/esp8266_sdk/2.2.1/ESP8266_NONOS_SDK_2.2.1/lib/libpp.a(lmac.o)
                                          0xc (size before relaxing)
 .rodata.str1.4
                0x000000003ffe85b8        0x3 /home/wall/projects/IoT/mcu/platforms/espressif/esp8266_sdk/2.2.1/ESP8266_NONOS_SDK_2.2.1/lib/libpp.a(pm.o)
                                          0xb (size before relaxing)
 *fill*         0x000000003ffe85bb        0x1 
 .rodata.str1.4
                0x000000003ffe85bc        0x4 /home/wall/projects/IoT/mcu/platforms/espressif/esp8266_sdk/2.2.1/ESP8266_NONOS_SDK_2.2.1/lib/libpp.a(pm_for_bcn_only_mode.o)
                                          0xc (size before relaxing)
 .rodata.str1.4
                0x000000003ffe85c0        0x8 /home/wall/projects/IoT/mcu/platforms/espressif/esp8266_sdk/2.2.1/ESP8266_NONOS_SDK_2.2.1/lib/libpp.a(pp.o)
                                         0x10 (size before relaxing)
 .rodata.str1.4
                0x000000003ffe85c8        0x4 /home/wall/projects/IoT/mcu/platforms/espressif/esp8266_sdk/2.2.1/ESP8266_NONOS_SDK_2.2.1/lib/libpp.a(wdev.o)
                                          0xc (size before relaxing)
 .rodata.str1.4
                0x000000003ffe85cc        0x3 /home/wall/projects/IoT/mcu/platforms/espressif/esp8266_sdk/2.2.1/ESP8266_NONOS_SDK_2.2.1/lib/libnet80211.a(ieee80211_hostap.o)
                                          0x8 (size before relaxing)
 *fill*         0x000000003ffe85cf        0x1 
 .rodata.str1.4
                0x000000003ffe85d0        0x7 /home/wall/projects/IoT/mcu/platforms/espressif/esp8266_sdk/2.2.1/ESP8266_NONOS_SDK_2.2.1/lib/libnet80211.a(ieee80211_mesh_quick.o)
 .rodata.str1.4
                0x000000003ffe85d7        0x4 /home/wall/projects/IoT/mcu/platforms/espressif/esp8266_sdk/2.2.1/ESP8266_NONOS_SDK_2.2.1/lib/libnet80211.a(ieee80211_sta.o)
 .rodata.str1.4
                0x000000003ffe85d7        0x4 /home/wall/projects/IoT/mcu/platforms/espressif/esp8266_sdk/2.2.1/ESP8266_NONOS_SDK_2.2.1/lib/libnet80211.a(ieee80211_action_vendor.o)
 .rodata.str1.4
                0x000000003ffe85d7        0x4 /home/wall/projects/IoT/mcu/platforms/espressif/esp8266_sdk/2.2.1/ESP8266_NONOS_SDK_2.2.1/lib/libnet80211.a(ieee80211_ie_vendor.o)
 .rodata.str1.1
                0x000000003ffe85d7       0x18 /home/wall/projects/IoT/mcu/platforms/espressif/esp8266_sdk/2.2.1/ESP8266_NONOS_SDK_2.2.1/lib/liblwip.a(espconn_tcp.o)
                                          0x1 (size before relaxing)
 .rodata.ethzero
                0x000000003ffe85d7        0x6 /home/wall/projects/IoT/mcu/platforms/espressif/esp8266_sdk/2.2.1/ESP8266_NONOS_SDK_2.2.1/lib/liblwip.a(etharp.o)
                0x000000003ffe85d7                ethzero
 .rodata.ethbroadcast
                0x000000003ffe85dd        0x6 /home/wall/projects/IoT/mcu/platforms/espressif/esp8266_sdk/2.2.1/ESP8266_NONOS_SDK_2.2.1/lib/liblwip.a(etharp.o)
                0x000000003ffe85dd                ethbroadcast
 *fill*         0x000000003ffe85e3        0x1 
 .rodata.tcp_close_shutdown
                0x000000003ffe85e4       0x20 /home/wall/projects/IoT/mcu/platforms/espressif/esp8266_sdk/2.2.1/ESP8266_NONOS_SDK_2.2.1/lib/liblwip.a(tcp.o)
 .rodata.__func__$2009
                0x000000003ffe8604       0x14 /home/wall/projects/IoT/mcu/platforms/espressif/esp8266_sdk/2.2.1/ESP8266_NONOS_SDK_2.2.1/lib/liblwip.a(espconn_buf.o)
 .rodata.__func__$1993
                0x000000003ffe8618       0x14 /home/wall/projects/IoT/mcu/platforms/espressif/esp8266_sdk/2.2.1/ESP8266_NONOS_SDK_2.2.1/lib/liblwip.a(espconn_buf.o)
 .rodata.__func__$1954
                0x000000003ffe862c        0xe /home/wall/projects/IoT/mcu/platforms/espressif/esp8266_sdk/2.2.1/ESP8266_NONOS_SDK_2.2.1/lib/liblwip.a(espconn_buf.o)
 .rodata.__func__$1977
                0x000000003ffe863a        0xf /home/wall/projects/IoT/mcu/platforms/espressif/esp8266_sdk/2.2.1/ESP8266_NONOS_SDK_2.2.1/lib/liblwip.a(espconn_buf.o)
 .rodata.__func__$1964
                0x000000003ffe8649       0x10 /home/wall/projects/IoT/mcu/platforms/espressif/esp8266_sdk/2.2.1/ESP8266_NONOS_SDK_2.2.1/lib/liblwip.a(espconn_buf.o)
 .rodata.__func__$1923
                0x000000003ffe8659        0xd /home/wall/projects/IoT/mcu/platforms/espressif/esp8266_sdk/2.2.1/ESP8266_NONOS_SDK_2.2.1/lib/liblwip.a(espconn_buf.o)
 *fill*         0x000000003ffe8666        0x2 
 .rodata.str1.4
                0x000000003ffe8668       0x10 /home/wall/projects/IoT/mcu/platforms/espressif/esp8266_sdk/2.2.1/ESP8266_NONOS_SDK_2.2.1/lib/libwpa.a(wpa_debug.o)
                                          0xd (size before relaxing)
 *(.gnu.linkonce.r.*)
 *(.rodata1)
                0x000000003ffe8678                __XT_EXCEPTION_TABLE__ = ABSOLUTE (.)
 *(.xt_except_table)
 *(.gcc_except_table)
 *(.gnu.linkonce.e.*)
 *(.gnu.version_r)
 *(.eh_frame)
 *crtbegin.o(.ctors)
 *(EXCLUDE_FILE(*crtend.o) .ctors)
 *(SORT(.ctors.*))
 *(.ctors)
 *crtbegin.o(.dtors)
 *(EXCLUDE_FILE(*crtend.o) .dtors)
 *(SORT(.dtors.*))
 *(.dtors)
                0x000000003ffe8678                __XT_EXCEPTION_DESCS__ = ABSOLUTE (.)
 *(.xt_except_desc)
 *(.gnu.linkonce.h.*)
                0x000000003ffe8678                __XT_EXCEPTION_DESCS_END__ = ABSOLUTE (.)
 *(.xt_except_desc_end)
 *(.dynamic)
 *(.gnu.version_d)
                0x000000003ffe8678                . = ALIGN (0x4)
                0x000000003ffe8678                _bss_table_start = ABSOLUTE (.)
                0x000000003ffe8678        0x4 LONG 0x3ffe8680 _bss_start
                0x000000003ffe867c        0x4 LONG 0x3ffee9b0 _bss_end
                0x000000003ffe8680                _bss_table_end = ABSOLUTE (.)
                0x000000003ffe8680                _rodata_end = ABSOLUTE (.)

.bss            0x000000003ffe8680     0x6330
                0x000000003ffe8680                . = ALIGN (0x8)
                0x000000003ffe8680                _bss_start = ABSOLUTE (.)
 *(.dynsbss)
 *(.sbss)
 *(.sbss.*)
 *(.gnu.linkonce.sb.*)
 *(.scommon)
 *(.sbss2)
 *(.sbss2.*)
 *(.gnu.linkonce.sb2.*)
 *(.dynbss)
 *(.bss)
 .bss           0x000000003ffe8680        0x0 /home/wall/projects/IoT/mcu/platforms/espressif/esp8266_sdk/2.2.1/ESP8266_NONOS_SDK_2.2.1/lib/libmain.a(debug-vector.o)
 .bss           0x000000003ffe8680        0x0 /home/wall/projects/IoT/mcu/platforms/espressif/esp8266_sdk/2.2.1/ESP8266_NONOS_SDK_2.2.1/lib/libmain.a(double-vector.o)
 .bss           0x000000003ffe8680        0x0 /home/wall/projects/IoT/mcu/platforms/espressif/esp8266_sdk/2.2.1/ESP8266_NONOS_SDK_2.2.1/lib/libmain.a(kernel-vector.o)
 .bss           0x000000003ffe8680      0x1c0 /home/wall/projects/IoT/mcu/platforms/espressif/esp8266_sdk/2.2.1/ESP8266_NONOS_SDK_2.2.1/lib/libmain.a(nmi-vector.o)
 .bss           0x000000003ffe8840        0x0 /home/wall/projects/IoT/mcu/platforms/espressif/esp8266_sdk/2.2.1/ESP8266_NONOS_SDK_2.2.1/lib/libmain.a(user-vector.o)
 .bss           0x000000003ffe8840        0x0 /home/wall/projects/IoT/mcu/platforms/espressif/esp8266_sdk/2.2.1/ESP8266_NONOS_SDK_2.2.1/lib/libmain.a(vector.o)
 .bss           0x000000003ffe8840       0x45 /home/wall/projects/IoT/mcu/platforms/espressif/esp8266_sdk/2.2.1/ESP8266_NONOS_SDK_2.2.1/lib/libmain.a(app_main.o)
                0x000000003ffe8844                info
                0x000000003ffe8868                freq_trace_enable
                0x000000003ffe886a                lwip_timer_interval
                0x000000003ffe886c                check_timeouts_timer
                0x000000003ffe8880                rf_cal_sec
                0x000000003ffe8884                user_init_flag
 *fill*         0x000000003ffe8885        0xb 
 .bss           0x000000003ffe8890       0x30 /home/wall/projects/IoT/mcu/platforms/espressif/esp8266_sdk/2.2.1/ESP8266_NONOS_SDK_2.2.1/lib/libmain.a(ets_timer.o)
                0x000000003ffe8890                dbg_timer_flag
                0x000000003ffe8894                timer_list
                0x000000003ffe8898                debug_timer
                0x000000003ffe889c                debug_timerfn
 .bss           0x000000003ffe88c0       0x3c /home/wall/projects/IoT/mcu/platforms/espressif/esp8266_sdk/2.2.1/ESP8266_NONOS_SDK_2.2.1/lib/libmain.a(mem_manager.o)
 *fill*         0x000000003ffe88fc        0x4 
 .bss           0x000000003ffe8900      0x252 /home/wall/projects/IoT/mcu/platforms/espressif/esp8266_sdk/2.2.1/ESP8266_NONOS_SDK_2.2.1/lib/libmain.a(user_interface.o)
                0x000000003ffe89fe                protect_flag
                0x000000003ffe8a08                deep_sleep_flag
                0x000000003ffe8a09                cpu_overclock
                0x000000003ffe8a0c                event_cb
                0x000000003ffe8a10                status_led_output_level
                0x000000003ffe8a14                done_cb
                0x000000003ffe8a18                rst_if
                0x000000003ffe8a34                default_interface
                0x000000003ffe8a35                OpmodChgIsOnGoing
                0x000000003ffe8a38                promiscuous_cb
                0x000000003ffe8a50                event_TaskQueue
 *fill*         0x000000003ffe8b52        0x2 
 .bss           0x000000003ffe8b54        0x4 /home/wall/projects/IoT/mcu/platforms/espressif/esp8266_sdk/2.2.1/ESP8266_NONOS_SDK_2.2.1/lib/libmain.a(spi_flash.o)
                0x000000003ffe8b54                flash_read
 .bss           0x000000003ffe8b58        0x0 /home/wall/projects/IoT/mcu/platforms/espressif/esp8266_sdk/2.2.1/ESP8266_NONOS_SDK_2.2.1/lib/libmain.a(eagle_lib.o)
 .bss           0x000000003ffe8b58        0xc /home/wall/projects/IoT/mcu/platforms/espressif/esp8266_sdk/2.2.1/ESP8266_NONOS_SDK_2.2.1/lib/libmain.a(eagle_lwip_if.o)
                0x000000003ffe8b58                hostname
 .bss           0x000000003ffe8b64        0x0 /home/wall/projects/templates/Makefile/Makefile_generic/esp/esp8266/build/user/blinky/blinky.a(rf_init.o)
 .bss           0x000000003ffe8b64        0x0 /home/wall/projects/templates/Makefile/Makefile_generic/esp/esp8266/build/user/blinky/blinky.a(main.o)
 .bss           0x000000003ffe8b64        0x0 /home/wall/projects/IoT/mcu/platforms/espressif/esp8266_sdk/2.2.1/xtensa-lx106-elf/bin/../xtensa-lx106-elf/sysroot/usr/lib/libhal.a(int_asm--set_intclear.o)
 *fill*         0x000000003ffe8b64        0xc 
 .bss           0x000000003ffe8b70       0x40 /home/wall/projects/IoT/mcu/platforms/espressif/esp8266_sdk/2.2.1/ESP8266_NONOS_SDK_2.2.1/lib/libpp.a(if_hwctrl.o)
                0x000000003ffe8b70                interface_mask
                0x000000003ffe8b90                if_ctrl
 .bss           0x000000003ffe8bb0      0x150 /home/wall/projects/IoT/mcu/platforms/espressif/esp8266_sdk/2.2.1/ESP8266_NONOS_SDK_2.2.1/lib/libpp.a(lmac.o)
                0x000000003ffe8bb4                lmacConfMib
                0x000000003ffe8bd8                our_tx_eb
 .bss           0x000000003ffe8d00      0x13a /home/wall/projects/IoT/mcu/platforms/espressif/esp8266_sdk/2.2.1/ESP8266_NONOS_SDK_2.2.1/lib/libpp.a(pm.o)
                0x000000003ffe8d00                pmc
 *fill*         0x000000003ffe8e3a        0x2 
 .bss           0x000000003ffe8e3c       0x38 /home/wall/projects/IoT/mcu/platforms/espressif/esp8266_sdk/2.2.1/ESP8266_NONOS_SDK_2.2.1/lib/libpp.a(pm_for_bcn_only_mode.o)
 *fill*         0x000000003ffe8e74        0xc 
 .bss           0x000000003ffe8e80      0x342 /home/wall/projects/IoT/mcu/platforms/espressif/esp8266_sdk/2.2.1/ESP8266_NONOS_SDK_2.2.1/lib/libpp.a(pp.o)
                0x000000003ffe8e98                pend_flag_noise_check
                0x000000003ffe8ea0                pend_flag_periodic_cal
                0x000000003ffe8eb8                idle_timer_reopen_flag
                0x000000003ffe8eba                dbg_stop_sw_wdt
                0x000000003ffe8ebb                dbg_stop_hw_wdt
                0x000000003ffe8ebd                total_buffed_eb_num
                0x000000003ffe8ec0                freq_change_sta_scan
                0x000000003ffe8ed4                test_freq_val_force_flag
                0x000000003ffe8ed6                TestStaFreqCalValFilter
                0x000000003ffe8ed8                PktsNumInOneChk
                0x000000003ffe8edc                AllFreqOffsetInOneChk
                0x000000003ffe8ee0                AvgFreqOffsetInOneChk
                0x000000003ffe8ee2                HighestFreqOffsetInOneChk
                0x000000003ffe8ee4                LowestFreqOffsetInOneChk
                0x000000003ffe8ee6                pktnum_sta_freqcal
                0x000000003ffe8ee8                all_freqoffset_sta_freqcal
                0x000000003ffe8eea                avg_freqoffset_sta_freqcal
                0x000000003ffe8eec                DefFreqCalTimer
                0x000000003ffe8f00                PktNumInOneChk
                0x000000003ffe9080                buffed_eb_arr
 *fill*         0x000000003ffe91c2        0xe 
 .bss           0x000000003ffe91d0      0x100 /home/wall/projects/IoT/mcu/platforms/espressif/esp8266_sdk/2.2.1/ESP8266_NONOS_SDK_2.2.1/lib/libpp.a(rate_control.o)
 .bss           0x000000003ffe92d0      0x46c /home/wall/projects/IoT/mcu/platforms/espressif/esp8266_sdk/2.2.1/ESP8266_NONOS_SDK_2.2.1/lib/libpp.a(trc.o)
 *fill*         0x000000003ffe973c        0x4 
 .bss           0x000000003ffe9740     0x2f88 /home/wall/projects/IoT/mcu/platforms/espressif/esp8266_sdk/2.2.1/ESP8266_NONOS_SDK_2.2.1/lib/libpp.a(wdev.o)
                0x000000003ffe9740                wDevCtrl
                0x000000003ffe98e8                WdevTimOffSet
 *fill*         0x000000003ffec6c8        0x8 
 .bss           0x000000003ffec6d0      0xaa4 /home/wall/projects/IoT/mcu/platforms/espressif/esp8266_sdk/2.2.1/ESP8266_NONOS_SDK_2.2.1/lib/libpp.a(esf_buf.o)
 .bss           0x000000003ffed174        0x4 /home/wall/projects/IoT/mcu/platforms/espressif/esp8266_sdk/2.2.1/ESP8266_NONOS_SDK_2.2.1/lib/libphy.a(phy.o)
 .bss           0x000000003ffed178        0x2 /home/wall/projects/IoT/mcu/platforms/espressif/esp8266_sdk/2.2.1/ESP8266_NONOS_SDK_2.2.1/lib/libphy.a(phy_chip_v6_ana.o)
                0x000000003ffed178                tout_dis_txpwr_track
                0x000000003ffed179                sleep_mode_flag
 *fill*         0x000000003ffed17a        0x6 
 .bss           0x000000003ffed180      0x153 /home/wall/projects/IoT/mcu/platforms/espressif/esp8266_sdk/2.2.1/ESP8266_NONOS_SDK_2.2.1/lib/libphy.a(phy_chip_v6.o)
                0x000000003ffed180                g_phyFuns
                0x000000003ffed184                rxiq_compute_num
                0x000000003ffed188                rx_table_renew_en
                0x000000003ffed18c                check_result
                0x000000003ffed190                chip6_sleep_params
                0x000000003ffed224                chip6_phy_init_ctrl
                0x000000003ffed298                phy_freq_offset
                0x000000003ffed29a                do_pwctrl_flag
                0x000000003ffed29b                txbk_dpdby_flag
                0x000000003ffed29d                sw_scan_mode
                0x000000003ffed29e                rxmax_ext_level
                0x000000003ffed2a0                phy_rx_gain_dc_table
                0x000000003ffed2a4                tx_data1
                0x000000003ffed2a8                tx_data2
                0x000000003ffed2ac                tx_data3
                0x000000003ffed2b0                tx_data4
                0x000000003ffed2b4                periodic_cal_flag
                0x000000003ffed2b5                bbpll_cal_flag
                0x000000003ffed2b6                phy_in_most_power
                0x000000003ffed2b7                init_rf_no_cal
                0x000000003ffed2b8                test_print_time
                0x000000003ffed2bc                phy_in_vdd33_offset
                0x000000003ffed2bd                phy_set_most_tpw_disbg
                0x000000003ffed2be                phy_set_most_tpw_index
                0x000000003ffed2c0                adc_rand_noise
                0x000000003ffed2c4                phy_rx_gain_dc_flag
                0x000000003ffed2c5                dpd_bypass_original
                0x000000003ffed2c6                phy_txpwr_diff_flash
                0x000000003ffed2c8                noise_array
 *fill*         0x000000003ffed2d3        0x1 
 .bss           0x000000003ffed2d4        0x9 /home/wall/projects/IoT/mcu/platforms/espressif/esp8266_sdk/2.2.1/ESP8266_NONOS_SDK_2.2.1/lib/libphy.a(phy_chip_v6_cal.o)
                0x000000003ffed2d4                phy_tx_power_out
                0x000000003ffed2d6                phy_tx_pwr_error
                0x000000003ffed2d8                tx_pwctrl_track_num
                0x000000003ffed2d9                rxiq_cover_fail_num
                0x000000003ffed2da                phy_meas_freq_offset
                0x000000003ffed2dc                tx_pwctrl_pk_num
 .bss           0x000000003ffed2dd        0x0 /home/wall/projects/IoT/mcu/platforms/espressif/esp8266_sdk/2.2.1/ESP8266_NONOS_SDK_2.2.1/lib/libphy.a(phy_chip_v6_unused.o)
 *fill*         0x000000003ffed2dd        0x3 
 .bss           0x000000003ffed2e0        0x7 /home/wall/projects/IoT/mcu/platforms/espressif/esp8266_sdk/2.2.1/ESP8266_NONOS_SDK_2.2.1/lib/libphy.a(phy_sleep.o)
                0x000000003ffed2e0                periodic_cal_sat
                0x000000003ffed2e2                lslp_mem_opt_8266
                0x000000003ffed2e4                software_slp_reject
                0x000000003ffed2e5                SDIO_slp_reject
                0x000000003ffed2e6                hardware_reject
 *fill*         0x000000003ffed2e7        0x1 
 .bss           0x000000003ffed2e8      0x6a8 /home/wall/projects/IoT/mcu/platforms/espressif/esp8266_sdk/2.2.1/ESP8266_NONOS_SDK_2.2.1/lib/libnet80211.a(ieee80211.o)
                0x000000003ffed2e8                g_ic
 .bss           0x000000003ffed990        0x0 /home/wall/projects/IoT/mcu/platforms/espressif/esp8266_sdk/2.2.1/ESP8266_NONOS_SDK_2.2.1/lib/libnet80211.a(ieee80211_crypto.o)
 .bss           0x000000003ffed990        0x0 /home/wall/projects/IoT/mcu/platforms/espressif/esp8266_sdk/2.2.1/ESP8266_NONOS_SDK_2.2.1/lib/libnet80211.a(ieee80211_ets.o)
 .bss           0x000000003ffed990       0x55 /home/wall/projects/IoT/mcu/platforms/espressif/esp8266_sdk/2.2.1/ESP8266_NONOS_SDK_2.2.1/lib/libnet80211.a(ieee80211_hostap.o)
                0x000000003ffed990                BcnEb_update
                0x000000003ffed99d                BcnWithMcastSendStart
                0x000000003ffed99e                BcnWithMcastSendCnt
                0x000000003ffed9b8                PendFreeBcnEb
                0x000000003ffed9ba                ap_freq_force_to_scan
                0x000000003ffed9bc                ApFreqCalTimer
                0x000000003ffed9d0                APRecvBcnStartTick
 .bss           0x000000003ffed9e5        0x0 /home/wall/projects/IoT/mcu/platforms/espressif/esp8266_sdk/2.2.1/ESP8266_NONOS_SDK_2.2.1/lib/libnet80211.a(ieee80211_ht.o)
 .bss           0x000000003ffed9e5        0x0 /home/wall/projects/IoT/mcu/platforms/espressif/esp8266_sdk/2.2.1/ESP8266_NONOS_SDK_2.2.1/lib/libnet80211.a(ieee80211_input.o)
 .bss           0x000000003ffed9e5        0x0 /home/wall/projects/IoT/mcu/platforms/espressif/esp8266_sdk/2.2.1/ESP8266_NONOS_SDK_2.2.1/lib/libnet80211.a(ieee80211_mesh_quick.o)
 .bss           0x000000003ffed9e5        0x0 /home/wall/projects/IoT/mcu/platforms/espressif/esp8266_sdk/2.2.1/ESP8266_NONOS_SDK_2.2.1/lib/libnet80211.a(ieee80211_output.o)
 .bss           0x000000003ffed9e5        0x0 /home/wall/projects/IoT/mcu/platforms/espressif/esp8266_sdk/2.2.1/ESP8266_NONOS_SDK_2.2.1/lib/libnet80211.a(ieee80211_phy.o)
 .bss           0x000000003ffed9e5        0x0 /home/wall/projects/IoT/mcu/platforms/espressif/esp8266_sdk/2.2.1/ESP8266_NONOS_SDK_2.2.1/lib/libnet80211.a(ieee80211_power.o)
 .bss           0x000000003ffed9e5        0x0 /home/wall/projects/IoT/mcu/platforms/espressif/esp8266_sdk/2.2.1/ESP8266_NONOS_SDK_2.2.1/lib/libnet80211.a(ieee80211_proto.o)
 .bss           0x000000003ffed9e5        0x0 /home/wall/projects/IoT/mcu/platforms/espressif/esp8266_sdk/2.2.1/ESP8266_NONOS_SDK_2.2.1/lib/libnet80211.a(ieee80211_regdomain.o)
 .bss           0x000000003ffed9e5        0x0 /home/wall/projects/IoT/mcu/platforms/espressif/esp8266_sdk/2.2.1/ESP8266_NONOS_SDK_2.2.1/lib/libnet80211.a(ieee80211_rfid.o)
 *fill*         0x000000003ffed9e5        0x3 
 .bss           0x000000003ffed9e8       0xcc /home/wall/projects/IoT/mcu/platforms/espressif/esp8266_sdk/2.2.1/ESP8266_NONOS_SDK_2.2.1/lib/libnet80211.a(ieee80211_scan.o)
                0x000000003ffed9e8                gScanStruct
                0x000000003ffeda94                freq_change_check_softap_link_enable
                0x000000003ffeda95                FreqCalCntForScan
                0x000000003ffeda96                TestStaFreqCalValInput
                0x000000003ffeda98                TestStaFreqCalValDev
                0x000000003ffeda9a                connect_scan_flag
                0x000000003ffeda9b                auth_type
                0x000000003ffeda9c                scannum
 *fill*         0x000000003ffedab4        0x4 
 .bss           0x000000003ffedab8       0x28 /home/wall/projects/IoT/mcu/platforms/espressif/esp8266_sdk/2.2.1/ESP8266_NONOS_SDK_2.2.1/lib/libnet80211.a(ieee80211_sta.o)
 .bss           0x000000003ffedae0       0x54 /home/wall/projects/IoT/mcu/platforms/espressif/esp8266_sdk/2.2.1/ESP8266_NONOS_SDK_2.2.1/lib/libnet80211.a(wl_chm.o)
 *fill*         0x000000003ffedb34        0x4 
 .bss           0x000000003ffedb38      0x3ac /home/wall/projects/IoT/mcu/platforms/espressif/esp8266_sdk/2.2.1/ESP8266_NONOS_SDK_2.2.1/lib/libnet80211.a(wl_cnx.o)
                0x000000003ffedeb0                sta_con_timer
                0x000000003ffedec4                backup_ni_connect_status
                0x000000003ffedec8                g_cnx_probe_rc_list_cb
                0x000000003ffedecc                reconnect_flag
                0x000000003ffedecd                no_ap_found_index
 .bss           0x000000003ffedee4        0x0 /home/wall/projects/IoT/mcu/platforms/espressif/esp8266_sdk/2.2.1/ESP8266_NONOS_SDK_2.2.1/lib/libnet80211.a(ieee80211_action.o)
 *fill*         0x000000003ffedee4        0x4 
 .bss           0x000000003ffedee8       0x18 /home/wall/projects/IoT/mcu/platforms/espressif/esp8266_sdk/2.2.1/ESP8266_NONOS_SDK_2.2.1/lib/libnet80211.a(ieee80211_action_vendor.o)
 .bss           0x000000003ffedf00        0x0 /home/wall/projects/IoT/mcu/platforms/espressif/esp8266_sdk/2.2.1/ESP8266_NONOS_SDK_2.2.1/lib/libnet80211.a(ieee80211_crypto_ccmp.o)
 .bss           0x000000003ffedf00        0x0 /home/wall/projects/IoT/mcu/platforms/espressif/esp8266_sdk/2.2.1/ESP8266_NONOS_SDK_2.2.1/lib/libnet80211.a(ieee80211_ie_vendor.o)
 .bss           0x000000003ffedf00        0x0 /home/wall/projects/IoT/mcu/platforms/espressif/esp8266_sdk/2.2.1/ESP8266_NONOS_SDK_2.2.1/lib/liblwip.a(dhcp.o)
 .bss           0x000000003ffedf00        0x0 /home/wall/projects/IoT/mcu/platforms/espressif/esp8266_sdk/2.2.1/ESP8266_NONOS_SDK_2.2.1/lib/liblwip.a(dhcpserver.o)
 .bss           0x000000003ffedf00        0x0 /home/wall/projects/IoT/mcu/platforms/espressif/esp8266_sdk/2.2.1/ESP8266_NONOS_SDK_2.2.1/lib/liblwip.a(dns.o)
 .bss           0x000000003ffedf00        0x0 /home/wall/projects/IoT/mcu/platforms/espressif/esp8266_sdk/2.2.1/ESP8266_NONOS_SDK_2.2.1/lib/liblwip.a(espconn_tcp.o)
 .bss           0x000000003ffedf00        0x0 /home/wall/projects/IoT/mcu/platforms/espressif/esp8266_sdk/2.2.1/ESP8266_NONOS_SDK_2.2.1/lib/liblwip.a(etharp.o)
 .bss           0x000000003ffedf00        0x0 /home/wall/projects/IoT/mcu/platforms/espressif/esp8266_sdk/2.2.1/ESP8266_NONOS_SDK_2.2.1/lib/liblwip.a(init.o)
 .bss           0x000000003ffedf00        0x0 /home/wall/projects/IoT/mcu/platforms/espressif/esp8266_sdk/2.2.1/ESP8266_NONOS_SDK_2.2.1/lib/liblwip.a(ip.o)
 .bss           0x000000003ffedf00        0x0 /home/wall/projects/IoT/mcu/platforms/espressif/esp8266_sdk/2.2.1/ESP8266_NONOS_SDK_2.2.1/lib/liblwip.a(ip_addr.o)
 .bss           0x000000003ffedf00        0x0 /home/wall/projects/IoT/mcu/platforms/espressif/esp8266_sdk/2.2.1/ESP8266_NONOS_SDK_2.2.1/lib/liblwip.a(memp.o)
 .bss           0x000000003ffedf00        0x0 /home/wall/projects/IoT/mcu/platforms/espressif/esp8266_sdk/2.2.1/ESP8266_NONOS_SDK_2.2.1/lib/liblwip.a(netif.o)
 .bss           0x000000003ffedf00        0x0 /home/wall/projects/IoT/mcu/platforms/espressif/esp8266_sdk/2.2.1/ESP8266_NONOS_SDK_2.2.1/lib/liblwip.a(pbuf.o)
 .bss           0x000000003ffedf00        0x0 /home/wall/projects/IoT/mcu/platforms/espressif/esp8266_sdk/2.2.1/ESP8266_NONOS_SDK_2.2.1/lib/liblwip.a(raw.o)
 .bss           0x000000003ffedf00        0x0 /home/wall/projects/IoT/mcu/platforms/espressif/esp8266_sdk/2.2.1/ESP8266_NONOS_SDK_2.2.1/lib/liblwip.a(tcp.o)
 .bss           0x000000003ffedf00        0x0 /home/wall/projects/IoT/mcu/platforms/espressif/esp8266_sdk/2.2.1/ESP8266_NONOS_SDK_2.2.1/lib/liblwip.a(tcp_in.o)
 .bss           0x000000003ffedf00        0x0 /home/wall/projects/IoT/mcu/platforms/espressif/esp8266_sdk/2.2.1/ESP8266_NONOS_SDK_2.2.1/lib/liblwip.a(tcp_out.o)
 .bss           0x000000003ffedf00        0x0 /home/wall/projects/IoT/mcu/platforms/espressif/esp8266_sdk/2.2.1/ESP8266_NONOS_SDK_2.2.1/lib/liblwip.a(timers.o)
 .bss           0x000000003ffedf00        0x0 /home/wall/projects/IoT/mcu/platforms/espressif/esp8266_sdk/2.2.1/ESP8266_NONOS_SDK_2.2.1/lib/liblwip.a(udp.o)
 .bss           0x000000003ffedf00        0x0 /home/wall/projects/IoT/mcu/platforms/espressif/esp8266_sdk/2.2.1/ESP8266_NONOS_SDK_2.2.1/lib/liblwip.a(espconn.o)
 .bss           0x000000003ffedf00        0x0 /home/wall/projects/IoT/mcu/platforms/espressif/esp8266_sdk/2.2.1/ESP8266_NONOS_SDK_2.2.1/lib/liblwip.a(espconn_buf.o)
 .bss           0x000000003ffedf00        0x0 /home/wall/projects/IoT/mcu/platforms/espressif/esp8266_sdk/2.2.1/ESP8266_NONOS_SDK_2.2.1/lib/liblwip.a(espconn_udp.o)
 .bss           0x000000003ffedf00        0x0 /home/wall/projects/IoT/mcu/platforms/espressif/esp8266_sdk/2.2.1/ESP8266_NONOS_SDK_2.2.1/lib/liblwip.a(icmp.o)
 .bss           0x000000003ffedf00        0x0 /home/wall/projects/IoT/mcu/platforms/espressif/esp8266_sdk/2.2.1/ESP8266_NONOS_SDK_2.2.1/lib/liblwip.a(igmp.o)
 .bss           0x000000003ffedf00        0x0 /home/wall/projects/IoT/mcu/platforms/espressif/esp8266_sdk/2.2.1/ESP8266_NONOS_SDK_2.2.1/lib/liblwip.a(inet_chksum.o)
 .bss           0x000000003ffedf00        0x0 /home/wall/projects/IoT/mcu/platforms/espressif/esp8266_sdk/2.2.1/ESP8266_NONOS_SDK_2.2.1/lib/libwpa.a(ap_config.o)
 .bss           0x000000003ffedf00        0x0 /home/wall/projects/IoT/mcu/platforms/espressif/esp8266_sdk/2.2.1/ESP8266_NONOS_SDK_2.2.1/lib/libwpa.a(common.o)
 .bss           0x000000003ffedf00        0x0 /home/wall/projects/IoT/mcu/platforms/espressif/esp8266_sdk/2.2.1/ESP8266_NONOS_SDK_2.2.1/lib/libwpa.a(os_xtensa.o)
 .bss           0x000000003ffedf00       0x60 /home/wall/projects/IoT/mcu/platforms/espressif/esp8266_sdk/2.2.1/ESP8266_NONOS_SDK_2.2.1/lib/libwpa.a(wpa_auth.o)
                0x000000003ffedf04                resend_eapol
 .bss           0x000000003ffedf60        0x0 /home/wall/projects/IoT/mcu/platforms/espressif/esp8266_sdk/2.2.1/ESP8266_NONOS_SDK_2.2.1/lib/libwpa.a(wpa_auth_ie.o)
 .bss           0x000000003ffedf60      0x26a /home/wall/projects/IoT/mcu/platforms/espressif/esp8266_sdk/2.2.1/ESP8266_NONOS_SDK_2.2.1/lib/libwpa.a(wpa.o)
 .bss           0x000000003ffee1ca        0x0 /home/wall/projects/IoT/mcu/platforms/espressif/esp8266_sdk/2.2.1/ESP8266_NONOS_SDK_2.2.1/lib/libwpa.a(wpa_common.o)
 .bss           0x000000003ffee1ca        0x0 /home/wall/projects/IoT/mcu/platforms/espressif/esp8266_sdk/2.2.1/ESP8266_NONOS_SDK_2.2.1/lib/libwpa.a(wpa_debug.o)
 .bss           0x000000003ffee1ca        0x0 /home/wall/projects/IoT/mcu/platforms/espressif/esp8266_sdk/2.2.1/ESP8266_NONOS_SDK_2.2.1/lib/libwpa.a(wpa_ie.o)
 .bss           0x000000003ffee1ca        0x0 /home/wall/projects/IoT/mcu/platforms/espressif/esp8266_sdk/2.2.1/ESP8266_NONOS_SDK_2.2.1/lib/libwpa.a(wpa_main.o)
 .bss           0x000000003ffee1ca        0x0 /home/wall/projects/IoT/mcu/platforms/espressif/esp8266_sdk/2.2.1/ESP8266_NONOS_SDK_2.2.1/lib/libwpa.a(wpas_glue.o)
 .bss           0x000000003ffee1ca        0x0 /home/wall/projects/IoT/mcu/platforms/espressif/esp8266_sdk/2.2.1/ESP8266_NONOS_SDK_2.2.1/lib/libcrypto.a(aes-wrap.o)
 .bss           0x000000003ffee1ca        0x0 /home/wall/projects/IoT/mcu/platforms/espressif/esp8266_sdk/2.2.1/ESP8266_NONOS_SDK_2.2.1/lib/libcrypto.a(aes-internal-enc.o)
 .bss           0x000000003ffee1ca        0x0 /home/wall/projects/IoT/mcu/platforms/espressif/esp8266_sdk/2.2.1/ESP8266_NONOS_SDK_2.2.1/lib/libcrypto.a(aes-internal.o)
 .bss           0x000000003ffee1ca        0x0 /home/wall/projects/IoT/mcu/platforms/espressif/esp8266_sdk/2.2.1/ESP8266_NONOS_SDK_2.2.1/lib/libc.a(lib_a-isxdigit.o)
 .bss           0x000000003ffee1ca        0x0 /home/wall/projects/IoT/mcu/platforms/espressif/esp8266_sdk/2.2.1/ESP8266_NONOS_SDK_2.2.1/lib/libc.a(lib_a-memchr.o)
 .bss           0x000000003ffee1ca        0x0 /home/wall/projects/IoT/mcu/platforms/espressif/esp8266_sdk/2.2.1/ESP8266_NONOS_SDK_2.2.1/lib/libc.a(lib_a-ctype_.o)
 .bss           0x000000003ffee1ca        0x0 /home/wall/projects/IoT/mcu/platforms/espressif/esp8266_sdk/2.2.1/ESP8266_NONOS_SDK_2.2.1/lib/libgcc.a(_modsi3.o)
 .bss           0x000000003ffee1ca        0x0 /home/wall/projects/IoT/mcu/platforms/espressif/esp8266_sdk/2.2.1/ESP8266_NONOS_SDK_2.2.1/lib/libgcc.a(_ashrdi3.o)
 .bss           0x000000003ffee1ca        0x0 /home/wall/projects/IoT/mcu/platforms/espressif/esp8266_sdk/2.2.1/ESP8266_NONOS_SDK_2.2.1/lib/libgcc.a(_divsf3.o)
 .bss           0x000000003ffee1ca        0x0 /home/wall/projects/IoT/mcu/platforms/espressif/esp8266_sdk/2.2.1/ESP8266_NONOS_SDK_2.2.1/lib/libgcc.a(_fixsfsi.o)
 *fill*         0x000000003ffee1ca        0x6 
 .bss           0x000000003ffee1d0        0x8 /home/wall/projects/IoT/mcu/platforms/espressif/esp8266_sdk/2.2.1/ESP8266_NONOS_SDK_2.2.1/lib/libnet80211.a(ieee80211_crypto_tkip.o)
 .bss           0x000000003ffee1d8        0x0 /home/wall/projects/IoT/mcu/platforms/espressif/esp8266_sdk/2.2.1/ESP8266_NONOS_SDK_2.2.1/lib/libnet80211.a(ieee80211_crypto_wep.o)
 *(.bss.*)
 .bss.led_timer
                0x000000003ffee1d8       0x14 /home/wall/projects/templates/Makefile/Makefile_generic/esp/esp8266/build/user/blinky/blinky.a(main.o)
 .bss.manual_set_flag
                0x000000003ffee1ec        0x1 /home/wall/projects/IoT/mcu/platforms/espressif/esp8266_sdk/2.2.1/ESP8266_NONOS_SDK_2.2.1/lib/liblwip.a(dhcp.o)
                0x000000003ffee1ec                manual_set_flag
 .bss.renew     0x000000003ffee1ed        0x1 /home/wall/projects/IoT/mcu/platforms/espressif/esp8266_sdk/2.2.1/ESP8266_NONOS_SDK_2.2.1/lib/liblwip.a(dhcpserver.o)
 *fill*         0x000000003ffee1ee        0x2 
 .bss.plist     0x000000003ffee1f0        0x4 /home/wall/projects/IoT/mcu/platforms/espressif/esp8266_sdk/2.2.1/ESP8266_NONOS_SDK_2.2.1/lib/liblwip.a(dhcpserver.o)
 .bss.dhcps_lease
                0x000000003ffee1f4        0xc /home/wall/projects/IoT/mcu/platforms/espressif/esp8266_sdk/2.2.1/ESP8266_NONOS_SDK_2.2.1/lib/liblwip.a(dhcpserver.o)
 .bss.client_address
                0x000000003ffee200        0x4 /home/wall/projects/IoT/mcu/platforms/espressif/esp8266_sdk/2.2.1/ESP8266_NONOS_SDK_2.2.1/lib/liblwip.a(dhcpserver.o)
 .bss.server_address
                0x000000003ffee204        0x4 /home/wall/projects/IoT/mcu/platforms/espressif/esp8266_sdk/2.2.1/ESP8266_NONOS_SDK_2.2.1/lib/liblwip.a(dhcpserver.o)
 .bss.broadcast_dhcps
                0x000000003ffee208        0x4 /home/wall/projects/IoT/mcu/platforms/espressif/esp8266_sdk/2.2.1/ESP8266_NONOS_SDK_2.2.1/lib/liblwip.a(dhcpserver.o)
 .bss.pcb_dhcps
                0x000000003ffee20c        0x4 /home/wall/projects/IoT/mcu/platforms/espressif/esp8266_sdk/2.2.1/ESP8266_NONOS_SDK_2.2.1/lib/liblwip.a(dhcpserver.o)
 .bss.dns_random
                0x000000003ffee210        0x2 /home/wall/projects/IoT/mcu/platforms/espressif/esp8266_sdk/2.2.1/ESP8266_NONOS_SDK_2.2.1/lib/liblwip.a(dns.o)
 *fill*         0x000000003ffee212        0x2 
 .bss.dns_payload
                0x000000003ffee214        0x4 /home/wall/projects/IoT/mcu/platforms/espressif/esp8266_sdk/2.2.1/ESP8266_NONOS_SDK_2.2.1/lib/liblwip.a(dns.o)
 .bss.dns_servers
                0x000000003ffee218        0x8 /home/wall/projects/IoT/mcu/platforms/espressif/esp8266_sdk/2.2.1/ESP8266_NONOS_SDK_2.2.1/lib/liblwip.a(dns.o)
 .bss.dns_table
                0x000000003ffee220      0x460 /home/wall/projects/IoT/mcu/platforms/espressif/esp8266_sdk/2.2.1/ESP8266_NONOS_SDK_2.2.1/lib/liblwip.a(dns.o)
 .bss.dns_seqno
                0x000000003ffee680        0x1 /home/wall/projects/IoT/mcu/platforms/espressif/esp8266_sdk/2.2.1/ESP8266_NONOS_SDK_2.2.1/lib/liblwip.a(dns.o)
 *fill*         0x000000003ffee681        0x3 
 .bss.dns_pcb   0x000000003ffee684        0x4 /home/wall/projects/IoT/mcu/platforms/espressif/esp8266_sdk/2.2.1/ESP8266_NONOS_SDK_2.2.1/lib/liblwip.a(dns.o)
 .bss.etharp_cached_entry
                0x000000003ffee688        0x1 /home/wall/projects/IoT/mcu/platforms/espressif/esp8266_sdk/2.2.1/ESP8266_NONOS_SDK_2.2.1/lib/liblwip.a(etharp.o)
 *fill*         0x000000003ffee689        0x3 
 .bss.arp_table
                0x000000003ffee68c       0xf0 /home/wall/projects/IoT/mcu/platforms/espressif/esp8266_sdk/2.2.1/ESP8266_NONOS_SDK_2.2.1/lib/liblwip.a(etharp.o)
 .bss.ip_id     0x000000003ffee77c        0x2 /home/wall/projects/IoT/mcu/platforms/espressif/esp8266_sdk/2.2.1/ESP8266_NONOS_SDK_2.2.1/lib/liblwip.a(ip.o)
 .bss.str$2080  0x000000003ffee77e       0x10 /home/wall/projects/IoT/mcu/platforms/espressif/esp8266_sdk/2.2.1/ESP8266_NONOS_SDK_2.2.1/lib/liblwip.a(ip_addr.o)
 .bss.netifnum$2632
                0x000000003ffee78e        0x1 /home/wall/projects/IoT/mcu/platforms/espressif/esp8266_sdk/2.2.1/ESP8266_NONOS_SDK_2.2.1/lib/liblwip.a(netif.o)
 *fill*         0x000000003ffee78f        0x1 
 .bss.raw_pcbs  0x000000003ffee790        0x4 /home/wall/projects/IoT/mcu/platforms/espressif/esp8266_sdk/2.2.1/ESP8266_NONOS_SDK_2.2.1/lib/liblwip.a(raw.o)
 .bss.tcp_timer
                0x000000003ffee794        0x1 /home/wall/projects/IoT/mcu/platforms/espressif/esp8266_sdk/2.2.1/ESP8266_NONOS_SDK_2.2.1/lib/liblwip.a(tcp.o)
 *fill*         0x000000003ffee795        0x3 
 .bss.recv_data
                0x000000003ffee798        0x4 /home/wall/projects/IoT/mcu/platforms/espressif/esp8266_sdk/2.2.1/ESP8266_NONOS_SDK_2.2.1/lib/liblwip.a(tcp_in.o)
 .bss.recv_flags
                0x000000003ffee79c        0x1 /home/wall/projects/IoT/mcu/platforms/espressif/esp8266_sdk/2.2.1/ESP8266_NONOS_SDK_2.2.1/lib/liblwip.a(tcp_in.o)
 *fill*         0x000000003ffee79d        0x1 
 .bss.tcplen    0x000000003ffee79e        0x2 /home/wall/projects/IoT/mcu/platforms/espressif/esp8266_sdk/2.2.1/ESP8266_NONOS_SDK_2.2.1/lib/liblwip.a(tcp_in.o)
 .bss.flags     0x000000003ffee7a0        0x1 /home/wall/projects/IoT/mcu/platforms/espressif/esp8266_sdk/2.2.1/ESP8266_NONOS_SDK_2.2.1/lib/liblwip.a(tcp_in.o)
 *fill*         0x000000003ffee7a1        0x3 
 .bss.ackno     0x000000003ffee7a4        0x4 /home/wall/projects/IoT/mcu/platforms/espressif/esp8266_sdk/2.2.1/ESP8266_NONOS_SDK_2.2.1/lib/liblwip.a(tcp_in.o)
 .bss.seqno     0x000000003ffee7a8        0x4 /home/wall/projects/IoT/mcu/platforms/espressif/esp8266_sdk/2.2.1/ESP8266_NONOS_SDK_2.2.1/lib/liblwip.a(tcp_in.o)
 .bss.iphdr     0x000000003ffee7ac        0x4 /home/wall/projects/IoT/mcu/platforms/espressif/esp8266_sdk/2.2.1/ESP8266_NONOS_SDK_2.2.1/lib/liblwip.a(tcp_in.o)
 .bss.tcphdr    0x000000003ffee7b0        0x4 /home/wall/projects/IoT/mcu/platforms/espressif/esp8266_sdk/2.2.1/ESP8266_NONOS_SDK_2.2.1/lib/liblwip.a(tcp_in.o)
 .bss.inseg     0x000000003ffee7b4       0x14 /home/wall/projects/IoT/mcu/platforms/espressif/esp8266_sdk/2.2.1/ESP8266_NONOS_SDK_2.2.1/lib/liblwip.a(tcp_in.o)
 .bss.tcpip_tcp_timer_active
                0x000000003ffee7c8        0x4 /home/wall/projects/IoT/mcu/platforms/espressif/esp8266_sdk/2.2.1/ESP8266_NONOS_SDK_2.2.1/lib/liblwip.a(timers.o)
 .bss.timeouts_last_time
                0x000000003ffee7cc        0x4 /home/wall/projects/IoT/mcu/platforms/espressif/esp8266_sdk/2.2.1/ESP8266_NONOS_SDK_2.2.1/lib/liblwip.a(timers.o)
 .bss.next_timeout
                0x000000003ffee7d0        0x4 /home/wall/projects/IoT/mcu/platforms/espressif/esp8266_sdk/2.2.1/ESP8266_NONOS_SDK_2.2.1/lib/liblwip.a(timers.o)
 .bss.randnum$3781
                0x000000003ffee7d4        0x4 /home/wall/projects/IoT/mcu/platforms/espressif/esp8266_sdk/2.2.1/ESP8266_NONOS_SDK_2.2.1/lib/liblwip.a(espconn.o)
 .bss.pserver_list
                0x000000003ffee7d8        0x4 /home/wall/projects/IoT/mcu/platforms/espressif/esp8266_sdk/2.2.1/ESP8266_NONOS_SDK_2.2.1/lib/liblwip.a(espconn.o)
                0x000000003ffee7d8                pserver_list
 .bss.plink_active
                0x000000003ffee7dc        0x4 /home/wall/projects/IoT/mcu/platforms/espressif/esp8266_sdk/2.2.1/ESP8266_NONOS_SDK_2.2.1/lib/liblwip.a(espconn.o)
                0x000000003ffee7dc                plink_active
 .bss.allrouters
                0x000000003ffee7e0        0x4 /home/wall/projects/IoT/mcu/platforms/espressif/esp8266_sdk/2.2.1/ESP8266_NONOS_SDK_2.2.1/lib/liblwip.a(igmp.o)
 .bss.allsystems
                0x000000003ffee7e4        0x4 /home/wall/projects/IoT/mcu/platforms/espressif/esp8266_sdk/2.2.1/ESP8266_NONOS_SDK_2.2.1/lib/liblwip.a(igmp.o)
 .bss.igmp_group_list
                0x000000003ffee7e8        0x4 /home/wall/projects/IoT/mcu/platforms/espressif/esp8266_sdk/2.2.1/ESP8266_NONOS_SDK_2.2.1/lib/liblwip.a(igmp.o)
 *(.gnu.linkonce.b.*)
 *(COMMON)
 COMMON         0x000000003ffee7ec       0x34 /home/wall/projects/IoT/mcu/platforms/espressif/esp8266_sdk/2.2.1/ESP8266_NONOS_SDK_2.2.1/lib/liblwip.a(dhcp.o)
                0x000000003ffee7ec                dhcp_rx_options_given
                0x000000003ffee7f8                dhcp_rx_options_val
 COMMON         0x000000003ffee820       0x78 /home/wall/projects/IoT/mcu/platforms/espressif/esp8266_sdk/2.2.1/ESP8266_NONOS_SDK_2.2.1/lib/liblwip.a(espconn_tcp.o)
                0x000000003ffee820                espconn_TaskQueue
 COMMON         0x000000003ffee898       0x10 /home/wall/projects/IoT/mcu/platforms/espressif/esp8266_sdk/2.2.1/ESP8266_NONOS_SDK_2.2.1/lib/liblwip.a(ip.o)
                0x000000003ffee898                current_iphdr_src
                0x000000003ffee89c                current_netif
                0x000000003ffee8a0                current_iphdr_dest
                0x000000003ffee8a4                current_header
 COMMON         0x000000003ffee8a8        0x8 /home/wall/projects/IoT/mcu/platforms/espressif/esp8266_sdk/2.2.1/ESP8266_NONOS_SDK_2.2.1/lib/liblwip.a(netif.o)
                0x000000003ffee8a8                netif_list
                0x000000003ffee8ac                netif_default
 COMMON         0x000000003ffee8b0       0x18 /home/wall/projects/IoT/mcu/platforms/espressif/esp8266_sdk/2.2.1/ESP8266_NONOS_SDK_2.2.1/lib/liblwip.a(tcp.o)
                0x000000003ffee8b0                tcp_active_pcbs
                0x000000003ffee8b4                tcp_ticks
                0x000000003ffee8b8                tcp_listen_pcbs
                0x000000003ffee8bc                tcp_tmp_pcb
                0x000000003ffee8c0                tcp_bound_pcbs
                0x000000003ffee8c4                tcp_tw_pcbs
 COMMON         0x000000003ffee8c8        0x4 /home/wall/projects/IoT/mcu/platforms/espressif/esp8266_sdk/2.2.1/ESP8266_NONOS_SDK_2.2.1/lib/liblwip.a(tcp_in.o)
                0x000000003ffee8c8                tcp_input_pcb
 COMMON         0x000000003ffee8cc        0x4 /home/wall/projects/IoT/mcu/platforms/espressif/esp8266_sdk/2.2.1/ESP8266_NONOS_SDK_2.2.1/lib/liblwip.a(udp.o)
                0x000000003ffee8cc                udp_pcbs
 COMMON         0x000000003ffee8d0       0xdc /home/wall/projects/IoT/mcu/platforms/espressif/esp8266_sdk/2.2.1/ESP8266_NONOS_SDK_2.2.1/lib/liblwip.a(espconn.o)
                0x000000003ffee8d0                premot
                0x000000003ffee984                pktinfo
                0x000000003ffee9b0                . = ALIGN (0x8)
 *fill*         0x000000003ffee9ac        0x4 
                0x000000003ffee9b0                _bss_end = ABSOLUTE (.)
                0x000000003ffee9b0                _heap_start = ABSOLUTE (.)

.irom0.text     0x0000000040210000    0x30f44
                0x0000000040210000                _irom0_text_start = ABSOLUTE (.)
 *libat.a:(.literal.* .text.*)
 *libcrypto.a:(.literal.* .text.*)
 .text.aes_wrap
                0x0000000040210000       0xe7 /home/wall/projects/IoT/mcu/platforms/espressif/esp8266_sdk/2.2.1/ESP8266_NONOS_SDK_2.2.1/lib/libcrypto.a(aes-wrap.o)
                                        0x103 (size before relaxing)
                0x0000000040210008                aes_wrap
 *fill*         0x00000000402100e7        0x1 
 .text.rijndaelEncrypt
                0x00000000402100e8      0x426 /home/wall/projects/IoT/mcu/platforms/espressif/esp8266_sdk/2.2.1/ESP8266_NONOS_SDK_2.2.1/lib/libcrypto.a(aes-internal-enc.o)
                0x00000000402100f8                rijndaelEncrypt
 *fill*         0x000000004021050e        0x2 
 .text.aes_encrypt_init
                0x0000000040210510       0x5f /home/wall/projects/IoT/mcu/platforms/espressif/esp8266_sdk/2.2.1/ESP8266_NONOS_SDK_2.2.1/lib/libcrypto.a(aes-internal-enc.o)
                                         0x67 (size before relaxing)
                0x000000004021051c                aes_encrypt_init
 *fill*         0x000000004021056f        0x1 
 .text.aes_encrypt
                0x0000000040210570       0x19 /home/wall/projects/IoT/mcu/platforms/espressif/esp8266_sdk/2.2.1/ESP8266_NONOS_SDK_2.2.1/lib/libcrypto.a(aes-internal-enc.o)
                                         0x1d (size before relaxing)
                0x0000000040210570                aes_encrypt
 *fill*         0x0000000040210589        0x3 
 .text.aes_encrypt_deinit
                0x000000004021058c       0x2b /home/wall/projects/IoT/mcu/platforms/espressif/esp8266_sdk/2.2.1/ESP8266_NONOS_SDK_2.2.1/lib/libcrypto.a(aes-internal-enc.o)
                                         0x37 (size before relaxing)
                0x000000004021058c                aes_encrypt_deinit
 *fill*         0x00000000402105b7        0x1 
 .text.rijndaelKeySetupEnc
                0x00000000402105b8      0x304 /home/wall/projects/IoT/mcu/platforms/espressif/esp8266_sdk/2.2.1/ESP8266_NONOS_SDK_2.2.1/lib/libcrypto.a(aes-internal.o)
                                        0x31c (size before relaxing)
                0x00000000402105bc                rijndaelKeySetupEnc
 .literal.aes_wrap
                0x00000000402108bc        0x0 /home/wall/projects/IoT/mcu/platforms/espressif/esp8266_sdk/2.2.1/ESP8266_NONOS_SDK_2.2.1/lib/libcrypto.a(aes-wrap.o)
 *fill*         0x00000000402108bc        0x0 
 .literal.rijndaelEncrypt
                0x00000000402108bc        0x0 /home/wall/projects/IoT/mcu/platforms/espressif/esp8266_sdk/2.2.1/ESP8266_NONOS_SDK_2.2.1/lib/libcrypto.a(aes-internal-enc.o)
 .literal.aes_encrypt_init
                0x00000000402108bc        0x0 /home/wall/projects/IoT/mcu/platforms/espressif/esp8266_sdk/2.2.1/ESP8266_NONOS_SDK_2.2.1/lib/libcrypto.a(aes-internal-enc.o)
 .literal.aes_encrypt
                0x00000000402108bc        0x0 /home/wall/projects/IoT/mcu/platforms/espressif/esp8266_sdk/2.2.1/ESP8266_NONOS_SDK_2.2.1/lib/libcrypto.a(aes-internal-enc.o)
 .literal.aes_encrypt_deinit
                0x00000000402108bc        0x0 /home/wall/projects/IoT/mcu/platforms/espressif/esp8266_sdk/2.2.1/ESP8266_NONOS_SDK_2.2.1/lib/libcrypto.a(aes-internal-enc.o)
 *fill*         0x00000000402108bc        0x0 
 *fill*         0x00000000402108bc        0x0 
 *fill*         0x00000000402108bc        0x0 
 *fill*         0x00000000402108bc        0x0 
 .literal.rijndaelKeySetupEnc
                0x00000000402108bc        0x0 /home/wall/projects/IoT/mcu/platforms/espressif/esp8266_sdk/2.2.1/ESP8266_NONOS_SDK_2.2.1/lib/libcrypto.a(aes-internal.o)
 *libespnow.a:(.literal.* .text.*)
 *libjson.a:(.literal.* .text.*)
 *liblwip.a:(.literal.* .text.*)
 .text.tcp_new_port
                0x00000000402108bc       0x6b /home/wall/projects/IoT/mcu/platforms/espressif/esp8266_sdk/2.2.1/ESP8266_NONOS_SDK_2.2.1/lib/liblwip.a(tcp.o)
                                         0x73 (size before relaxing)
 *fill*         0x0000000040210927        0x1 
 .text.tcp_close_shutdown
                0x0000000040210928      0x141 /home/wall/projects/IoT/mcu/platforms/espressif/esp8266_sdk/2.2.1/ESP8266_NONOS_SDK_2.2.1/lib/liblwip.a(tcp.o)
                                        0x165 (size before relaxing)
 *fill*         0x0000000040210a69        0x3 
 .text.dns_timer
                0x0000000040210a6c       0x21 /home/wall/projects/IoT/mcu/platforms/espressif/esp8266_sdk/2.2.1/ESP8266_NONOS_SDK_2.2.1/lib/liblwip.a(timers.o)
                                         0x2d (size before relaxing)
 *fill*         0x0000000040210a8d        0x3 
 .text.igmp_timer
                0x0000000040210a90       0x21 /home/wall/projects/IoT/mcu/platforms/espressif/esp8266_sdk/2.2.1/ESP8266_NONOS_SDK_2.2.1/lib/liblwip.a(timers.o)
                                         0x2d (size before relaxing)
 *fill*         0x0000000040210ab1        0x3 
 .text.dhcp_timer_fine
                0x0000000040210ab4       0x21 /home/wall/projects/IoT/mcu/platforms/espressif/esp8266_sdk/2.2.1/ESP8266_NONOS_SDK_2.2.1/lib/liblwip.a(timers.o)
                                         0x2d (size before relaxing)
 *fill*         0x0000000040210ad5        0x3 
 .text.dhcp_timer_coarse
                0x0000000040210ad8       0x27 /home/wall/projects/IoT/mcu/platforms/espressif/esp8266_sdk/2.2.1/ESP8266_NONOS_SDK_2.2.1/lib/liblwip.a(timers.o)
                                         0x3b (size before relaxing)
 *fill*         0x0000000040210aff        0x1 
 .literal.tcp_accept_null
                0x0000000040210b00        0x0 /home/wall/projects/IoT/mcu/platforms/espressif/esp8266_sdk/2.2.1/ESP8266_NONOS_SDK_2.2.1/lib/liblwip.a(tcp.o)
 .literal.tcp_new_port
                0x0000000040210b00        0x0 /home/wall/projects/IoT/mcu/platforms/espressif/esp8266_sdk/2.2.1/ESP8266_NONOS_SDK_2.2.1/lib/liblwip.a(tcp.o)
 .literal.tcp_close_shutdown
                0x0000000040210b00        0x0 /home/wall/projects/IoT/mcu/platforms/espressif/esp8266_sdk/2.2.1/ESP8266_NONOS_SDK_2.2.1/lib/liblwip.a(tcp.o)
 .text.tcp_accept_null
                0x0000000040210b00        0x4 /home/wall/projects/IoT/mcu/platforms/espressif/esp8266_sdk/2.2.1/ESP8266_NONOS_SDK_2.2.1/lib/liblwip.a(tcp.o)
 *fill*         0x0000000040210b04        0x0 
 *fill*         0x0000000040210b04        0x0 
 .literal.dns_timer
                0x0000000040210b04        0x0 /home/wall/projects/IoT/mcu/platforms/espressif/esp8266_sdk/2.2.1/ESP8266_NONOS_SDK_2.2.1/lib/liblwip.a(timers.o)
 .literal.igmp_timer
                0x0000000040210b04        0x0 /home/wall/projects/IoT/mcu/platforms/espressif/esp8266_sdk/2.2.1/ESP8266_NONOS_SDK_2.2.1/lib/liblwip.a(timers.o)
 .literal.dhcp_timer_fine
                0x0000000040210b04        0x0 /home/wall/projects/IoT/mcu/platforms/espressif/esp8266_sdk/2.2.1/ESP8266_NONOS_SDK_2.2.1/lib/liblwip.a(timers.o)
 .literal.dhcp_timer_coarse
                0x0000000040210b04        0x0 /home/wall/projects/IoT/mcu/platforms/espressif/esp8266_sdk/2.2.1/ESP8266_NONOS_SDK_2.2.1/lib/liblwip.a(timers.o)
 *fill*         0x0000000040210b04        0x0 
 *fill*         0x0000000040210b04        0x0 
 *fill*         0x0000000040210b04        0x0 
 *libnet80211.a:(.literal.* .text.*)
 .text.ieee80211_chan_init
                0x0000000040210b04       0x8b /home/wall/projects/IoT/mcu/platforms/espressif/esp8266_sdk/2.2.1/ESP8266_NONOS_SDK_2.2.1/lib/libnet80211.a(ieee80211.o)
                                         0x93 (size before relaxing)
 *fill*         0x0000000040210b8f        0x1 
 .text.ieee80211_rate_ref_init
                0x0000000040210b90       0x16 /home/wall/projects/IoT/mcu/platforms/espressif/esp8266_sdk/2.2.1/ESP8266_NONOS_SDK_2.2.1/lib/libnet80211.a(ieee80211.o)
                0x0000000040210b94                ieee80211_rate_ref_init
 *fill*         0x0000000040210ba6        0x2 
 .text.ieee80211_freedom_inside_cb
                0x0000000040210ba8       0x2e /home/wall/projects/IoT/mcu/platforms/espressif/esp8266_sdk/2.2.1/ESP8266_NONOS_SDK_2.2.1/lib/libnet80211.a(ieee80211.o)
                0x0000000040210bac                ieee80211_freedom_inside_cb
 *fill*         0x0000000040210bd6        0x2 
 .text.ieee80211_freedom_init
                0x0000000040210bd8       0x28 /home/wall/projects/IoT/mcu/platforms/espressif/esp8266_sdk/2.2.1/ESP8266_NONOS_SDK_2.2.1/lib/libnet80211.a(ieee80211.o)
                                         0x30 (size before relaxing)
                0x0000000040210bdc                ieee80211_freedom_init
 .text.ieee80211_user_ie_init
                0x0000000040210c00       0x20 /home/wall/projects/IoT/mcu/platforms/espressif/esp8266_sdk/2.2.1/ESP8266_NONOS_SDK_2.2.1/lib/libnet80211.a(ieee80211.o)
                0x0000000040210c04                ieee80211_user_ie_init
 .text.ieee80211_ifattach
                0x0000000040210c20       0x67 /home/wall/projects/IoT/mcu/platforms/espressif/esp8266_sdk/2.2.1/ESP8266_NONOS_SDK_2.2.1/lib/libnet80211.a(ieee80211.o)
                                         0xc3 (size before relaxing)
                0x0000000040210c20                ieee80211_ifattach
 *fill*         0x0000000040210c87        0x1 
 .text.ieee80211_mhz2ieee
                0x0000000040210c88       0x6c /home/wall/projects/IoT/mcu/platforms/espressif/esp8266_sdk/2.2.1/ESP8266_NONOS_SDK_2.2.1/lib/libnet80211.a(ieee80211.o)
                                         0x74 (size before relaxing)
                0x0000000040210c98                ieee80211_mhz2ieee
 .text.ieee80211_chan2ieee
                0x0000000040210cf4       0x19 /home/wall/projects/IoT/mcu/platforms/espressif/esp8266_sdk/2.2.1/ESP8266_NONOS_SDK_2.2.1/lib/libnet80211.a(ieee80211.o)
                0x0000000040210cf8                ieee80211_chan2ieee
 *fill*         0x0000000040210d0d        0x3 
 .text.ieee80211_ieee2mhz
                0x0000000040210d10       0x42 /home/wall/projects/IoT/mcu/platforms/espressif/esp8266_sdk/2.2.1/ESP8266_NONOS_SDK_2.2.1/lib/libnet80211.a(ieee80211.o)
                                         0x46 (size before relaxing)
                0x0000000040210d14                ieee80211_ieee2mhz
 *fill*         0x0000000040210d52        0x2 
 .text.wifi_mode_set
                0x0000000040210d54      0x209 /home/wall/projects/IoT/mcu/platforms/espressif/esp8266_sdk/2.2.1/ESP8266_NONOS_SDK_2.2.1/lib/libnet80211.a(ieee80211.o)
                                        0x25d (size before relaxing)
                0x0000000040210d88                wifi_mode_set
 *fill*         0x0000000040210f5d        0x3 
 .text.ieee80211_crypto_encap
                0x0000000040210f60       0x58 /home/wall/projects/IoT/mcu/platforms/espressif/esp8266_sdk/2.2.1/ESP8266_NONOS_SDK_2.2.1/lib/libnet80211.a(ieee80211_crypto.o)
                                         0x5c (size before relaxing)
                0x0000000040210f60                ieee80211_crypto_encap
 .text.ieee80211_crypto_decap
                0x0000000040210fb8       0x6b /home/wall/projects/IoT/mcu/platforms/espressif/esp8266_sdk/2.2.1/ESP8266_NONOS_SDK_2.2.1/lib/libnet80211.a(ieee80211_crypto.o)
                                         0x6f (size before relaxing)
                0x0000000040210fb8                ieee80211_crypto_decap
 *fill*         0x0000000040211023        0x1 
 .text.ieee80211_getmgtframe
                0x0000000040211024       0x4c /home/wall/projects/IoT/mcu/platforms/espressif/esp8266_sdk/2.2.1/ESP8266_NONOS_SDK_2.2.1/lib/libnet80211.a(ieee80211_ets.o)
                                         0x50 (size before relaxing)
                0x0000000040211028                ieee80211_getmgtframe
 .text.ieee80211_hostap_send_beacon
                0x0000000040211070      0x34d /home/wall/projects/IoT/mcu/platforms/espressif/esp8266_sdk/2.2.1/ESP8266_NONOS_SDK_2.2.1/lib/libnet80211.a(ieee80211_hostap.o)
                                        0x3cd (size before relaxing)
 *fill*         0x00000000402113bd        0x3 
 .text.ieee80211_hostapd_beacon_txcb
                0x00000000402113c0      0x102 /home/wall/projects/IoT/mcu/platforms/espressif/esp8266_sdk/2.2.1/ESP8266_NONOS_SDK_2.2.1/lib/libnet80211.a(ieee80211_hostap.o)
                                        0x166 (size before relaxing)
 *fill*         0x00000000402114c2        0x2 
 .text.ieee80211_hostap_init
                0x00000000402114c4      0x172 /home/wall/projects/IoT/mcu/platforms/espressif/esp8266_sdk/2.2.1/ESP8266_NONOS_SDK_2.2.1/lib/libnet80211.a(ieee80211_hostap.o)
                                        0x1b2 (size before relaxing)
 *fill*         0x0000000040211636        0x2 
 .text.ieee80211_hostap_deinit
                0x0000000040211638       0xd7 /home/wall/projects/IoT/mcu/platforms/espressif/esp8266_sdk/2.2.1/ESP8266_NONOS_SDK_2.2.1/lib/libnet80211.a(ieee80211_hostap.o)
                                         0xff (size before relaxing)
 *fill*         0x000000004021170f        0x1 
 .text.ieee80211_hostap_attach
                0x0000000040211710       0xc8 /home/wall/projects/IoT/mcu/platforms/espressif/esp8266_sdk/2.2.1/ESP8266_NONOS_SDK_2.2.1/lib/libnet80211.a(ieee80211_hostap.o)
                                        0x10e (size before relaxing)
                0x000000004021171c                ieee80211_hostap_attach
 *fill*         0x00000000402117d8        0x0 
 .text.hostap_deliver_data
                0x00000000402117d8       0x3b /home/wall/projects/IoT/mcu/platforms/espressif/esp8266_sdk/2.2.1/ESP8266_NONOS_SDK_2.2.1/lib/libnet80211.a(ieee80211_hostap.o)
                                         0x3f (size before relaxing)
 *fill*         0x0000000040211813        0x1 
 .text.hostap_handle_timer
                0x0000000040211814       0xcf /home/wall/projects/IoT/mcu/platforms/espressif/esp8266_sdk/2.2.1/ESP8266_NONOS_SDK_2.2.1/lib/libnet80211.a(ieee80211_hostap.o)
                                        0x107 (size before relaxing)
                0x0000000040211828                hostap_handle_timer
 *fill*         0x00000000402118e3        0x1 
 .text.hostap_input
                0x00000000402118e4      0x4bd /home/wall/projects/IoT/mcu/platforms/espressif/esp8266_sdk/2.2.1/ESP8266_NONOS_SDK_2.2.1/lib/libnet80211.a(ieee80211_hostap.o)
                                        0x569 (size before relaxing)
                0x00000000402118f0                hostap_input
 *fill*         0x0000000040211da1        0x3 
 .text.hostap_auth_open
                0x0000000040211da4       0xd4 /home/wall/projects/IoT/mcu/platforms/espressif/esp8266_sdk/2.2.1/ESP8266_NONOS_SDK_2.2.1/lib/libnet80211.a(ieee80211_hostap.o)
                                        0x108 (size before relaxing)
 .text.is11bclient
                0x0000000040211e78       0x2e /home/wall/projects/IoT/mcu/platforms/espressif/esp8266_sdk/2.2.1/ESP8266_NONOS_SDK_2.2.1/lib/libnet80211.a(ieee80211_hostap.o)
 *fill*         0x0000000040211ea6        0x2 
 .text.hostap_recv_mgmt
                0x0000000040211ea8      0x660 /home/wall/projects/IoT/mcu/platforms/espressif/esp8266_sdk/2.2.1/ESP8266_NONOS_SDK_2.2.1/lib/libnet80211.a(ieee80211_hostap.o)
                                        0x708 (size before relaxing)
 .text.hostap_recv_ctl
                0x0000000040212508       0x18 /home/wall/projects/IoT/mcu/platforms/espressif/esp8266_sdk/2.2.1/ESP8266_NONOS_SDK_2.2.1/lib/libnet80211.a(ieee80211_hostap.o)
                                         0x1f (size before relaxing)
 *fill*         0x0000000040212520        0x0 
 .text.hostap_recv_pspoll
                0x0000000040212520       0xca /home/wall/projects/IoT/mcu/platforms/espressif/esp8266_sdk/2.2.1/ESP8266_NONOS_SDK_2.2.1/lib/libnet80211.a(ieee80211_hostap.o)
                                         0xf5 (size before relaxing)
 *fill*         0x00000000402125ea        0x2 
 .text.freqcal_scan_done
                0x00000000402125ec       0x14 /home/wall/projects/IoT/mcu/platforms/espressif/esp8266_sdk/2.2.1/ESP8266_NONOS_SDK_2.2.1/lib/libnet80211.a(ieee80211_hostap.o)
                                         0x18 (size before relaxing)
                0x00000000402125ec                freqcal_scan_done
 .text.ApFreqCalTimerCB
                0x0000000040212600      0x432 /home/wall/projects/IoT/mcu/platforms/espressif/esp8266_sdk/2.2.1/ESP8266_NONOS_SDK_2.2.1/lib/libnet80211.a(ieee80211_hostap.o)
                                        0x536 (size before relaxing)
 *fill*         0x0000000040212a32        0x2 
 .text.wifi_softap_start
                0x0000000040212a34      0x18b /home/wall/projects/IoT/mcu/platforms/espressif/esp8266_sdk/2.2.1/ESP8266_NONOS_SDK_2.2.1/lib/libnet80211.a(ieee80211_hostap.o)
                                        0x21b (size before relaxing)
                0x0000000040212a4c                wifi_softap_start
 *fill*         0x0000000040212bbf        0x1 
 .text.wifi_softap_stop
                0x0000000040212bc0      0x1ac /home/wall/projects/IoT/mcu/platforms/espressif/esp8266_sdk/2.2.1/ESP8266_NONOS_SDK_2.2.1/lib/libnet80211.a(ieee80211_hostap.o)
                                        0x263 (size before relaxing)
                0x0000000040212bd0                wifi_softap_stop
 *fill*         0x0000000040212d6c        0x0 
 .text.ieee80211_ht_attach
                0x0000000040212d6c       0x5a /home/wall/projects/IoT/mcu/platforms/espressif/esp8266_sdk/2.2.1/ESP8266_NONOS_SDK_2.2.1/lib/libnet80211.a(ieee80211_ht.o)
                                         0x66 (size before relaxing)
                0x0000000040212d7c                ieee80211_ht_attach
 *fill*         0x0000000040212dc6        0x2 
 .text.ieee80211_ht_node_init
                0x0000000040212dc8       0x44 /home/wall/projects/IoT/mcu/platforms/espressif/esp8266_sdk/2.2.1/ESP8266_NONOS_SDK_2.2.1/lib/libnet80211.a(ieee80211_ht.o)
                                         0x48 (size before relaxing)
                0x0000000040212dcc                ieee80211_ht_node_init
 .text.findhtchan
                0x0000000040212e0c       0x24 /home/wall/projects/IoT/mcu/platforms/espressif/esp8266_sdk/2.2.1/ESP8266_NONOS_SDK_2.2.1/lib/libnet80211.a(ieee80211_ht.o)
                                         0x28 (size before relaxing)
 .text.ieee80211_parse_htcap
                0x0000000040212e30       0x45 /home/wall/projects/IoT/mcu/platforms/espressif/esp8266_sdk/2.2.1/ESP8266_NONOS_SDK_2.2.1/lib/libnet80211.a(ieee80211_ht.o)
                                         0x49 (size before relaxing)
                0x0000000040212e30                ieee80211_parse_htcap
 *fill*         0x0000000040212e75        0x3 
 .text.htinfo_update_chw
                0x0000000040212e78       0x6c /home/wall/projects/IoT/mcu/platforms/espressif/esp8266_sdk/2.2.1/ESP8266_NONOS_SDK_2.2.1/lib/libnet80211.a(ieee80211_ht.o)
                                         0x88 (size before relaxing)
 .text.ieee80211_ht_updateparams
                0x0000000040212ee4      0x134 /home/wall/projects/IoT/mcu/platforms/espressif/esp8266_sdk/2.2.1/ESP8266_NONOS_SDK_2.2.1/lib/libnet80211.a(ieee80211_ht.o)
                                        0x158 (size before relaxing)
                0x0000000040212f04                ieee80211_ht_updateparams
 .text.ieee80211_setup_htrates
                0x0000000040213018       0xd4 /home/wall/projects/IoT/mcu/platforms/espressif/esp8266_sdk/2.2.1/ESP8266_NONOS_SDK_2.2.1/lib/libnet80211.a(ieee80211_ht.o)
                                         0xdc (size before relaxing)
                0x0000000040213020                ieee80211_setup_htrates
 .text.ieee80211_setup_basic_htrates
                0x00000000402130ec       0x80 /home/wall/projects/IoT/mcu/platforms/espressif/esp8266_sdk/2.2.1/ESP8266_NONOS_SDK_2.2.1/lib/libnet80211.a(ieee80211_ht.o)
                                         0x84 (size before relaxing)
                0x00000000402130ec                ieee80211_setup_basic_htrates
 .text.ieee80211_set_mcsset
                0x000000004021316c      0x157 /home/wall/projects/IoT/mcu/platforms/espressif/esp8266_sdk/2.2.1/ESP8266_NONOS_SDK_2.2.1/lib/libnet80211.a(ieee80211_ht.o)
                                        0x167 (size before relaxing)
 *fill*         0x00000000402132c3        0x1 
 .text.ieee80211_add_htcap_body
                0x00000000402132c4      0x164 /home/wall/projects/IoT/mcu/platforms/espressif/esp8266_sdk/2.2.1/ESP8266_NONOS_SDK_2.2.1/lib/libnet80211.a(ieee80211_ht.o)
                                        0x19c (size before relaxing)
 .text.ieee80211_add_htcap
                0x0000000040213428       0x1e /home/wall/projects/IoT/mcu/platforms/espressif/esp8266_sdk/2.2.1/ESP8266_NONOS_SDK_2.2.1/lib/libnet80211.a(ieee80211_ht.o)
                                         0x22 (size before relaxing)
                0x0000000040213428                ieee80211_add_htcap
 *fill*         0x0000000040213446        0x2 
 .text.ieee80211_add_htcap_vendor
                0x0000000040213448       0x34 /home/wall/projects/IoT/mcu/platforms/espressif/esp8266_sdk/2.2.1/ESP8266_NONOS_SDK_2.2.1/lib/libnet80211.a(ieee80211_ht.o)
                                         0x38 (size before relaxing)
                0x0000000040213448                ieee80211_add_htcap_vendor
 .text.ieee80211_set_basic_htrates
                0x000000004021347c       0x66 /home/wall/projects/IoT/mcu/platforms/espressif/esp8266_sdk/2.2.1/ESP8266_NONOS_SDK_2.2.1/lib/libnet80211.a(ieee80211_ht.o)
                                         0x6a (size before relaxing)
 *fill*         0x00000000402134e2        0x2 
 .text.ieee80211_add_htinfo_body
                0x00000000402134e4       0x8a /home/wall/projects/IoT/mcu/platforms/espressif/esp8266_sdk/2.2.1/ESP8266_NONOS_SDK_2.2.1/lib/libnet80211.a(ieee80211_ht.o)
                                         0x96 (size before relaxing)
 *fill*         0x000000004021356e        0x2 
 .text.ieee80211_add_htinfo
                0x0000000040213570       0x1e /home/wall/projects/IoT/mcu/platforms/espressif/esp8266_sdk/2.2.1/ESP8266_NONOS_SDK_2.2.1/lib/libnet80211.a(ieee80211_ht.o)
                                         0x22 (size before relaxing)
                0x0000000040213570                ieee80211_add_htinfo
 *fill*         0x000000004021358e        0x2 
 .text.ieee80211_add_htinfo_vendor
                0x0000000040213590       0x34 /home/wall/projects/IoT/mcu/platforms/espressif/esp8266_sdk/2.2.1/ESP8266_NONOS_SDK_2.2.1/lib/libnet80211.a(ieee80211_ht.o)
                                         0x38 (size before relaxing)
                0x0000000040213590                ieee80211_add_htinfo_vendor
 .text.ht_recv_action_ba_addba_request
                0x00000000402135c4       0x82 /home/wall/projects/IoT/mcu/platforms/espressif/esp8266_sdk/2.2.1/ESP8266_NONOS_SDK_2.2.1/lib/libnet80211.a(ieee80211_ht.o)
                                         0x8a (size before relaxing)
 *fill*         0x0000000040213646        0x2 
 .text.ht_send_action_ba_addba
                0x0000000040213648      0x186 /home/wall/projects/IoT/mcu/platforms/espressif/esp8266_sdk/2.2.1/ESP8266_NONOS_SDK_2.2.1/lib/libnet80211.a(ieee80211_ht.o)
                                        0x19e (size before relaxing)
 *fill*         0x00000000402137ce        0x2 
 .text.ieee80211_deliver_data
                0x00000000402137d0       0x48 /home/wall/projects/IoT/mcu/platforms/espressif/esp8266_sdk/2.2.1/ESP8266_NONOS_SDK_2.2.1/lib/libnet80211.a(ieee80211_input.o)
                                         0x54 (size before relaxing)
                0x00000000402137d0                ieee80211_deliver_data
 .text.ieee80211_decap
                0x0000000040213818      0x10f /home/wall/projects/IoT/mcu/platforms/espressif/esp8266_sdk/2.2.1/ESP8266_NONOS_SDK_2.2.1/lib/libnet80211.a(ieee80211_input.o)
                                        0x12f (size before relaxing)
                0x0000000040213824                ieee80211_decap
 *fill*         0x0000000040213927        0x1 
 .text.ieee80211_setup_rates
                0x0000000040213928       0x6a /home/wall/projects/IoT/mcu/platforms/espressif/esp8266_sdk/2.2.1/ESP8266_NONOS_SDK_2.2.1/lib/libnet80211.a(ieee80211_input.o)
                                         0x76 (size before relaxing)
                0x0000000040213928                ieee80211_setup_rates
 *fill*         0x0000000040213992        0x2 
 .text.ieee80211_alloc_challenge
                0x0000000040213994       0x30 /home/wall/projects/IoT/mcu/platforms/espressif/esp8266_sdk/2.2.1/ESP8266_NONOS_SDK_2.2.1/lib/libnet80211.a(ieee80211_input.o)
                                         0x34 (size before relaxing)
                0x0000000040213998                ieee80211_alloc_challenge
 .text.ieee80211_parse_beacon
                0x00000000402139c4      0x516 /home/wall/projects/IoT/mcu/platforms/espressif/esp8266_sdk/2.2.1/ESP8266_NONOS_SDK_2.2.1/lib/libnet80211.a(ieee80211_input.o)
                                        0x546 (size before relaxing)
                0x00000000402139e4                ieee80211_parse_beacon
 *fill*         0x0000000040213eda        0x2 
 .text.wpa_cipher
                0x0000000040213edc       0x6a /home/wall/projects/IoT/mcu/platforms/espressif/esp8266_sdk/2.2.1/ESP8266_NONOS_SDK_2.2.1/lib/libnet80211.a(ieee80211_input.o)
                                         0x76 (size before relaxing)
 *fill*         0x0000000040213f46        0x2 
 .text.wpa_keymgmt
                0x0000000040213f48       0x3c /home/wall/projects/IoT/mcu/platforms/espressif/esp8266_sdk/2.2.1/ESP8266_NONOS_SDK_2.2.1/lib/libnet80211.a(ieee80211_input.o)
                                         0x48 (size before relaxing)
 .text.rsn_cipher
                0x0000000040213f84       0x84 /home/wall/projects/IoT/mcu/platforms/espressif/esp8266_sdk/2.2.1/ESP8266_NONOS_SDK_2.2.1/lib/libnet80211.a(ieee80211_input.o)
 .text.rsn_keymgmt
                0x0000000040214008       0x3c /home/wall/projects/IoT/mcu/platforms/espressif/esp8266_sdk/2.2.1/ESP8266_NONOS_SDK_2.2.1/lib/libnet80211.a(ieee80211_input.o)
                                         0x48 (size before relaxing)
 .text.ieee80211_parse_wpa
                0x0000000040214044      0x11e /home/wall/projects/IoT/mcu/platforms/espressif/esp8266_sdk/2.2.1/ESP8266_NONOS_SDK_2.2.1/lib/libnet80211.a(ieee80211_input.o)
                                        0x132 (size before relaxing)
                0x0000000040214048                ieee80211_parse_wpa
 *fill*         0x0000000040214162        0x2 
 .text.ieee80211_parse_rsn
                0x0000000040214164      0x108 /home/wall/projects/IoT/mcu/platforms/espressif/esp8266_sdk/2.2.1/ESP8266_NONOS_SDK_2.2.1/lib/libnet80211.a(ieee80211_input.o)
                                        0x11c (size before relaxing)
                0x0000000040214164                ieee80211_parse_rsn
 .text.ieee80211_parse_action
                0x000000004021426c       0x9f /home/wall/projects/IoT/mcu/platforms/espressif/esp8266_sdk/2.2.1/ESP8266_NONOS_SDK_2.2.1/lib/libnet80211.a(ieee80211_input.o)
                                         0xa3 (size before relaxing)
                0x0000000040214270                ieee80211_parse_action
 *fill*         0x000000004021430b        0x1 
 .text.ieee80211_mesh_quick_init
                0x000000004021430c       0x7b /home/wall/projects/IoT/mcu/platforms/espressif/esp8266_sdk/2.2.1/ESP8266_NONOS_SDK_2.2.1/lib/libnet80211.a(ieee80211_mesh_quick.o)
                                         0x8f (size before relaxing)
                0x0000000040214318                ieee80211_mesh_quick_init
 *fill*         0x0000000040214387        0x1 
 .text.ieee80211_mesh_quick_deinit
                0x0000000040214388       0x2c /home/wall/projects/IoT/mcu/platforms/espressif/esp8266_sdk/2.2.1/ESP8266_NONOS_SDK_2.2.1/lib/libnet80211.a(ieee80211_mesh_quick.o)
                                         0x3c (size before relaxing)
                0x0000000040214388                ieee80211_mesh_quick_deinit
 .text.ieee80211_mesh_quick_set
                0x00000000402143b4       0xfc /home/wall/projects/IoT/mcu/platforms/espressif/esp8266_sdk/2.2.1/ESP8266_NONOS_SDK_2.2.1/lib/libnet80211.a(ieee80211_mesh_quick.o)
                                        0x118 (size before relaxing)
                0x00000000402143b8                ieee80211_mesh_quick_set
 .text.ieee80211_mesh_quick_get
                0x00000000402144b0       0xd0 /home/wall/projects/IoT/mcu/platforms/espressif/esp8266_sdk/2.2.1/ESP8266_NONOS_SDK_2.2.1/lib/libnet80211.a(ieee80211_mesh_quick.o)
                                         0xe4 (size before relaxing)
                0x00000000402144b4                ieee80211_mesh_quick_get
 .text.ieee80211_mesh_quick_ie_add
                0x0000000040214580       0x32 /home/wall/projects/IoT/mcu/platforms/espressif/esp8266_sdk/2.2.1/ESP8266_NONOS_SDK_2.2.1/lib/libnet80211.a(ieee80211_mesh_quick.o)
                                         0x3a (size before relaxing)
                0x0000000040214580                ieee80211_mesh_quick_ie_add
 *fill*         0x00000000402145b2        0x2 
 .text.ieee80211_output_pbuf
                0x00000000402145b4      0x28d /home/wall/projects/IoT/mcu/platforms/espressif/esp8266_sdk/2.2.1/ESP8266_NONOS_SDK_2.2.1/lib/libnet80211.a(ieee80211_output.o)
                                        0x2e1 (size before relaxing)
                0x00000000402145d0                ieee80211_output_pbuf
 *fill*         0x0000000040214841        0x3 
 .text.ieee80211_send_setup
                0x0000000040214844      0x131 /home/wall/projects/IoT/mcu/platforms/espressif/esp8266_sdk/2.2.1/ESP8266_NONOS_SDK_2.2.1/lib/libnet80211.a(ieee80211_output.o)
                                        0x159 (size before relaxing)
                0x0000000040214844                ieee80211_send_setup
 *fill*         0x0000000040214975        0x3 
 .text.ieee80211_mgmt_output
                0x0000000040214978       0xeb /home/wall/projects/IoT/mcu/platforms/espressif/esp8266_sdk/2.2.1/ESP8266_NONOS_SDK_2.2.1/lib/libnet80211.a(ieee80211_output.o)
                                        0x11f (size before relaxing)
                0x0000000040214978                ieee80211_mgmt_output
 *fill*         0x0000000040214a63        0x1 
 .text.ieee80211_send_nulldata
                0x0000000040214a64      0x147 /home/wall/projects/IoT/mcu/platforms/espressif/esp8266_sdk/2.2.1/ESP8266_NONOS_SDK_2.2.1/lib/libnet80211.a(ieee80211_output.o)
                                        0x173 (size before relaxing)
                0x0000000040214a68                ieee80211_send_nulldata
 *fill*         0x0000000040214bab        0x1 
 .text.ieee80211_encap_esfbuf
                0x0000000040214bac      0x2b8 /home/wall/projects/IoT/mcu/platforms/espressif/esp8266_sdk/2.2.1/ESP8266_NONOS_SDK_2.2.1/lib/libnet80211.a(ieee80211_output.o)
                                        0x2e4 (size before relaxing)
 .text.ieee80211_classify_pbuf
                0x0000000040214e64       0x75 /home/wall/projects/IoT/mcu/platforms/espressif/esp8266_sdk/2.2.1/ESP8266_NONOS_SDK_2.2.1/lib/libnet80211.a(ieee80211_output.o)
                                         0x79 (size before relaxing)
 *fill*         0x0000000040214ed9        0x3 
 .text.ieee80211_add_rates
                0x0000000040214edc       0x4e /home/wall/projects/IoT/mcu/platforms/espressif/esp8266_sdk/2.2.1/ESP8266_NONOS_SDK_2.2.1/lib/libnet80211.a(ieee80211_output.o)
                                         0x56 (size before relaxing)
                0x0000000040214edc                ieee80211_add_rates
 *fill*         0x0000000040214f2a        0x2 
 .text.ieee80211_add_xrates
                0x0000000040214f2c       0x45 /home/wall/projects/IoT/mcu/platforms/espressif/esp8266_sdk/2.2.1/ESP8266_NONOS_SDK_2.2.1/lib/libnet80211.a(ieee80211_output.o)
                                         0x4d (size before relaxing)
                0x0000000040214f2c                ieee80211_add_xrates
 *fill*         0x0000000040214f71        0x3 
 .text.ieee80211_add_ssid
                0x0000000040214f74       0x2e /home/wall/projects/IoT/mcu/platforms/espressif/esp8266_sdk/2.2.1/ESP8266_NONOS_SDK_2.2.1/lib/libnet80211.a(ieee80211_output.o)
                                         0x32 (size before relaxing)
 *fill*         0x0000000040214fa2        0x2 
 .text.add_appie
                0x0000000040214fa4       0x28 /home/wall/projects/IoT/mcu/platforms/espressif/esp8266_sdk/2.2.1/ESP8266_NONOS_SDK_2.2.1/lib/libnet80211.a(ieee80211_output.o)
                                         0x2c (size before relaxing)
 .text.ieee80211_add_wme_info
                0x0000000040214fcc       0x23 /home/wall/projects/IoT/mcu/platforms/espressif/esp8266_sdk/2.2.1/ESP8266_NONOS_SDK_2.2.1/lib/libnet80211.a(ieee80211_output.o)
                                         0x27 (size before relaxing)
 *fill*         0x0000000040214fef        0x1 
 .text.ieee80211_add_csa
                0x0000000040214ff0       0x22 /home/wall/projects/IoT/mcu/platforms/espressif/esp8266_sdk/2.2.1/ESP8266_NONOS_SDK_2.2.1/lib/libnet80211.a(ieee80211_output.o)
                                         0x26 (size before relaxing)
 *fill*         0x0000000040215012        0x2 
 .text.ieee80211_send_probereq
                0x0000000040215014      0x274 /home/wall/projects/IoT/mcu/platforms/espressif/esp8266_sdk/2.2.1/ESP8266_NONOS_SDK_2.2.1/lib/libnet80211.a(ieee80211_output.o)
                                        0x2e8 (size before relaxing)
                0x000000004021501c                ieee80211_send_probereq
 .text.ieee80211_getcapinfo
                0x0000000040215288       0x4e /home/wall/projects/IoT/mcu/platforms/espressif/esp8266_sdk/2.2.1/ESP8266_NONOS_SDK_2.2.1/lib/libnet80211.a(ieee80211_output.o)
                                         0x52 (size before relaxing)
                0x0000000040215288                ieee80211_getcapinfo
 *fill*         0x00000000402152d6        0x2 
 .text.ieee80211_send_mgmt
                0x00000000402152d8      0x5a0 /home/wall/projects/IoT/mcu/platforms/espressif/esp8266_sdk/2.2.1/ESP8266_NONOS_SDK_2.2.1/lib/libnet80211.a(ieee80211_output.o)
                                        0x66c (size before relaxing)
                0x00000000402152e4                ieee80211_send_mgmt
 .text.ieee80211_alloc_proberesp
                0x0000000040215878      0x265 /home/wall/projects/IoT/mcu/platforms/espressif/esp8266_sdk/2.2.1/ESP8266_NONOS_SDK_2.2.1/lib/libnet80211.a(ieee80211_output.o)
                                        0x2ed (size before relaxing)
                0x0000000040215884                ieee80211_alloc_proberesp
 *fill*         0x0000000040215add        0x3 
 .text.ieee80211_send_proberesp
                0x0000000040215ae0      0x152 /home/wall/projects/IoT/mcu/platforms/espressif/esp8266_sdk/2.2.1/ESP8266_NONOS_SDK_2.2.1/lib/libnet80211.a(ieee80211_output.o)
                                        0x192 (size before relaxing)
                0x0000000040215ae4                ieee80211_send_proberesp
 *fill*         0x0000000040215c32        0x2 
 .text.ieee80211_alloc_deauth
                0x0000000040215c34       0x3e /home/wall/projects/IoT/mcu/platforms/espressif/esp8266_sdk/2.2.1/ESP8266_NONOS_SDK_2.2.1/lib/libnet80211.a(ieee80211_output.o)
                                         0x42 (size before relaxing)
                0x0000000040215c34                ieee80211_alloc_deauth
 *fill*         0x0000000040215c72        0x2 
 .text.ieee80211_send_deauth
                0x0000000040215c74      0x13b /home/wall/projects/IoT/mcu/platforms/espressif/esp8266_sdk/2.2.1/ESP8266_NONOS_SDK_2.2.1/lib/libnet80211.a(ieee80211_output.o)
                                        0x17b (size before relaxing)
                0x0000000040215c74                ieee80211_send_deauth
 *fill*         0x0000000040215daf        0x1 
 .text.ieee80211_freedom_output
                0x0000000040215db0      0x1ea /home/wall/projects/IoT/mcu/platforms/espressif/esp8266_sdk/2.2.1/ESP8266_NONOS_SDK_2.2.1/lib/libnet80211.a(ieee80211_output.o)
                                        0x222 (size before relaxing)
                0x0000000040215db4                ieee80211_freedom_output
 *fill*         0x0000000040215f9a        0x2 
 .text.ieee80211_beacon_construct
                0x0000000040215f9c      0x24d /home/wall/projects/IoT/mcu/platforms/espressif/esp8266_sdk/2.2.1/ESP8266_NONOS_SDK_2.2.1/lib/libnet80211.a(ieee80211_output.o)
                                        0x2e1 (size before relaxing)
 *fill*         0x00000000402161e9        0x3 
 .text.ieee80211_beacon_alloc
                0x00000000402161ec      0x1de /home/wall/projects/IoT/mcu/platforms/espressif/esp8266_sdk/2.2.1/ESP8266_NONOS_SDK_2.2.1/lib/libnet80211.a(ieee80211_output.o)
                                        0x22a (size before relaxing)
                0x00000000402161f0                ieee80211_beacon_alloc
 *fill*         0x00000000402163ca        0x2 
 .text.ieee80211_phy_init
                0x00000000402163cc       0x34 /home/wall/projects/IoT/mcu/platforms/espressif/esp8266_sdk/2.2.1/ESP8266_NONOS_SDK_2.2.1/lib/libnet80211.a(ieee80211_phy.o)
                                         0x3c (size before relaxing)
                0x00000000402163cc                ieee80211_phy_init
 .text.ieee80211_phy_type_get
                0x0000000040216400        0xf /home/wall/projects/IoT/mcu/platforms/espressif/esp8266_sdk/2.2.1/ESP8266_NONOS_SDK_2.2.1/lib/libnet80211.a(ieee80211_phy.o)
                                         0x13 (size before relaxing)
                0x0000000040216400                ieee80211_phy_type_get
 *fill*         0x000000004021640f        0x1 
 .text.ieee80211_setup_ratetable
                0x0000000040216410       0x9c /home/wall/projects/IoT/mcu/platforms/espressif/esp8266_sdk/2.2.1/ESP8266_NONOS_SDK_2.2.1/lib/libnet80211.a(ieee80211_phy.o)
                                         0xbc (size before relaxing)
                0x000000004021641c                ieee80211_setup_ratetable
 .text.ieee80211_psq_init
                0x00000000402164ac       0x20 /home/wall/projects/IoT/mcu/platforms/espressif/esp8266_sdk/2.2.1/ESP8266_NONOS_SDK_2.2.1/lib/libnet80211.a(ieee80211_power.o)
                                         0x24 (size before relaxing)
                0x00000000402164ac                ieee80211_psq_init
 .text.ieee80211_set_tim
                0x00000000402164cc       0x41 /home/wall/projects/IoT/mcu/platforms/espressif/esp8266_sdk/2.2.1/ESP8266_NONOS_SDK_2.2.1/lib/libnet80211.a(ieee80211_power.o)
                0x00000000402164d0                ieee80211_set_tim
 *fill*         0x000000004021650d        0x3 
 .text.ieee80211_pwrsave
                0x0000000040216510       0x68 /home/wall/projects/IoT/mcu/platforms/espressif/esp8266_sdk/2.2.1/ESP8266_NONOS_SDK_2.2.1/lib/libnet80211.a(ieee80211_power.o)
                                         0x78 (size before relaxing)
                0x0000000040216510                ieee80211_pwrsave
 .text.pwrsave_flushq
                0x0000000040216578       0xaf /home/wall/projects/IoT/mcu/platforms/espressif/esp8266_sdk/2.2.1/ESP8266_NONOS_SDK_2.2.1/lib/libnet80211.a(ieee80211_power.o)
                                         0xdb (size before relaxing)
                0x0000000040216578                pwrsave_flushq
 *fill*         0x0000000040216627        0x1 
 .text.ieee80211_node_pwrsave
                0x0000000040216628       0x38 /home/wall/projects/IoT/mcu/platforms/espressif/esp8266_sdk/2.2.1/ESP8266_NONOS_SDK_2.2.1/lib/libnet80211.a(ieee80211_power.o)
                                         0x44 (size before relaxing)
                0x0000000040216628                ieee80211_node_pwrsave
 .text.ieee80211_proto_attach
                0x0000000040216660       0x2b /home/wall/projects/IoT/mcu/platforms/espressif/esp8266_sdk/2.2.1/ESP8266_NONOS_SDK_2.2.1/lib/libnet80211.a(ieee80211_proto.o)
                                         0x33 (size before relaxing)
                0x0000000040216664                ieee80211_proto_attach
 *fill*         0x000000004021668b        0x1 
 .text.ieee80211_iserp_rateset
                0x000000004021668c       0x38 /home/wall/projects/IoT/mcu/platforms/espressif/esp8266_sdk/2.2.1/ESP8266_NONOS_SDK_2.2.1/lib/libnet80211.a(ieee80211_proto.o)
                0x0000000040216690                ieee80211_iserp_rateset
 .text.ieee80211_mlme_connect_bss
                0x00000000402166c4       0x9d /home/wall/projects/IoT/mcu/platforms/espressif/esp8266_sdk/2.2.1/ESP8266_NONOS_SDK_2.2.1/lib/libnet80211.a(ieee80211_proto.o)
                                         0xcd (size before relaxing)
                0x00000000402166c8                ieee80211_mlme_connect_bss
 *fill*         0x0000000040216761        0x3 
 .text.ieee80211_regdomain_update
                0x0000000040216764       0xc7 /home/wall/projects/IoT/mcu/platforms/espressif/esp8266_sdk/2.2.1/ESP8266_NONOS_SDK_2.2.1/lib/libnet80211.a(ieee80211_regdomain.o)
                                         0xdb (size before relaxing)
                0x0000000040216768                ieee80211_regdomain_update
 *fill*         0x000000004021682b        0x1 
 .text.ieee80211_regdomain_get_country
                0x000000004021682c       0x2e /home/wall/projects/IoT/mcu/platforms/espressif/esp8266_sdk/2.2.1/ESP8266_NONOS_SDK_2.2.1/lib/libnet80211.a(ieee80211_regdomain.o)
                                         0x32 (size before relaxing)
                0x0000000040216830                ieee80211_regdomain_get_country
 *fill*         0x000000004021685a        0x2 
 .text.ieee80211_add_countryie
                0x000000004021685c       0x45 /home/wall/projects/IoT/mcu/platforms/espressif/esp8266_sdk/2.2.1/ESP8266_NONOS_SDK_2.2.1/lib/libnet80211.a(ieee80211_regdomain.o)
                                         0x49 (size before relaxing)
                0x000000004021685c                ieee80211_add_countryie
 *fill*         0x00000000402168a1        0x3 
 .text.ieee80211_regdomain_max_chan
                0x00000000402168a4       0x1f /home/wall/projects/IoT/mcu/platforms/espressif/esp8266_sdk/2.2.1/ESP8266_NONOS_SDK_2.2.1/lib/libnet80211.a(ieee80211_regdomain.o)
                                         0x23 (size before relaxing)
                0x00000000402168a4                ieee80211_regdomain_max_chan
 *fill*         0x00000000402168c3        0x1 
 .text.ieee80211_regdomain_min_chan
                0x00000000402168c4       0x15 /home/wall/projects/IoT/mcu/platforms/espressif/esp8266_sdk/2.2.1/ESP8266_NONOS_SDK_2.2.1/lib/libnet80211.a(ieee80211_regdomain.o)
                                         0x19 (size before relaxing)
                0x00000000402168c4                ieee80211_regdomain_min_chan
 *fill*         0x00000000402168d9        0x3 
 .text.ieee80211_regdomain_chan_in_range
                0x00000000402168dc       0x27 /home/wall/projects/IoT/mcu/platforms/espressif/esp8266_sdk/2.2.1/ESP8266_NONOS_SDK_2.2.1/lib/libnet80211.a(ieee80211_regdomain.o)
                                         0x33 (size before relaxing)
                0x00000000402168dc                ieee80211_regdomain_chan_in_range
 *fill*         0x0000000040216903        0x1 
 .text.ieee80211_regdomain_is_active_scan
                0x0000000040216904       0x4b /home/wall/projects/IoT/mcu/platforms/espressif/esp8266_sdk/2.2.1/ESP8266_NONOS_SDK_2.2.1/lib/libnet80211.a(ieee80211_regdomain.o)
                                         0x5f (size before relaxing)
                0x0000000040216904                ieee80211_regdomain_is_active_scan
 *fill*         0x000000004021694f        0x1 
 .text.ieee80211_rfid_locp_recv_open
                0x0000000040216950       0x39 /home/wall/projects/IoT/mcu/platforms/espressif/esp8266_sdk/2.2.1/ESP8266_NONOS_SDK_2.2.1/lib/libnet80211.a(ieee80211_rfid.o)
                                         0x41 (size before relaxing)
                0x0000000040216954                ieee80211_rfid_locp_recv_open
 *fill*         0x0000000040216989        0x3 
 .text.ieee80211_rfid_locp_recv_close
                0x000000004021698c       0x1b /home/wall/projects/IoT/mcu/platforms/espressif/esp8266_sdk/2.2.1/ESP8266_NONOS_SDK_2.2.1/lib/libnet80211.a(ieee80211_rfid.o)
                                         0x1f (size before relaxing)
                0x0000000040216990                ieee80211_rfid_locp_recv_close
 *fill*         0x00000000402169a7        0x1 
 .text.ieee80211_rfid_locp_recv_reset
                0x00000000402169a8       0x1f /home/wall/projects/IoT/mcu/platforms/espressif/esp8266_sdk/2.2.1/ESP8266_NONOS_SDK_2.2.1/lib/libnet80211.a(ieee80211_rfid.o)
                                         0x2b (size before relaxing)
                0x00000000402169a8                ieee80211_rfid_locp_recv_reset
 *fill*         0x00000000402169c7        0x1 
 .text.ieee80211_rfid_locp_recv
                0x00000000402169c8       0x1d /home/wall/projects/IoT/mcu/platforms/espressif/esp8266_sdk/2.2.1/ESP8266_NONOS_SDK_2.2.1/lib/libnet80211.a(ieee80211_rfid.o)
                                         0x21 (size before relaxing)
                0x00000000402169c8                ieee80211_rfid_locp_recv
 *fill*         0x00000000402169e5        0x3 
 .text.register_ieee80211_rfid_locp_recv_cb
                0x00000000402169e8       0x13 /home/wall/projects/IoT/mcu/platforms/espressif/esp8266_sdk/2.2.1/ESP8266_NONOS_SDK_2.2.1/lib/libnet80211.a(ieee80211_rfid.o)
                                         0x17 (size before relaxing)
                0x00000000402169e8                register_ieee80211_rfid_locp_recv_cb
 *fill*         0x00000000402169fb        0x1 
 .text.unregister_ieee80211_rfid_locp_recv_cb
                0x00000000402169fc        0xa /home/wall/projects/IoT/mcu/platforms/espressif/esp8266_sdk/2.2.1/ESP8266_NONOS_SDK_2.2.1/lib/libnet80211.a(ieee80211_rfid.o)
                                          0xe (size before relaxing)
                0x00000000402169fc                unregister_ieee80211_rfid_locp_recv_cb
 *fill*         0x0000000040216a06        0x2 
 .text.ieee80211_scan_attach
                0x0000000040216a08       0x62 /home/wall/projects/IoT/mcu/platforms/espressif/esp8266_sdk/2.2.1/ESP8266_NONOS_SDK_2.2.1/lib/libnet80211.a(ieee80211_scan.o)
                                         0x6a (size before relaxing)
                0x0000000040216a18                ieee80211_scan_attach
 *fill*         0x0000000040216a6a        0x2 
 .text.slp_wk_cpu_scan_wait_timout
                0x0000000040216a6c       0x21 /home/wall/projects/IoT/mcu/platforms/espressif/esp8266_sdk/2.2.1/ESP8266_NONOS_SDK_2.2.1/lib/libnet80211.a(ieee80211_scan.o)
                                         0x29 (size before relaxing)
 *fill*         0x0000000040216a8d        0x3 
 .text.freq_changle_enable_softap_link_check
                0x0000000040216a90        0x8 /home/wall/projects/IoT/mcu/platforms/espressif/esp8266_sdk/2.2.1/ESP8266_NONOS_SDK_2.2.1/lib/libnet80211.a(ieee80211_scan.o)
                                          0xc (size before relaxing)
                0x0000000040216a90                freq_changle_enable_softap_link_check
 .text.freq_changle_scan_start
                0x0000000040216a98      0x130 /home/wall/projects/IoT/mcu/platforms/espressif/esp8266_sdk/2.2.1/ESP8266_NONOS_SDK_2.2.1/lib/libnet80211.a(ieee80211_scan.o)
                                        0x178 (size before relaxing)
                0x0000000040216aa8                freq_changle_scan_start
 .text.scan_start
                0x0000000040216bc8      0x132 /home/wall/projects/IoT/mcu/platforms/espressif/esp8266_sdk/2.2.1/ESP8266_NONOS_SDK_2.2.1/lib/libnet80211.a(ieee80211_scan.o)
                                        0x1ae (size before relaxing)
                0x0000000040216bd8                scan_start
 *fill*         0x0000000040216cfa        0x2 
 .text.scan_pm_channel_op_cb
                0x0000000040216cfc       0x2d /home/wall/projects/IoT/mcu/platforms/espressif/esp8266_sdk/2.2.1/ESP8266_NONOS_SDK_2.2.1/lib/libnet80211.a(ieee80211_scan.o)
                                         0x39 (size before relaxing)
                0x0000000040216cfc                scan_pm_channel_op_cb
 *fill*         0x0000000040216d29        0x3 
 .text.scan_next_channel
                0x0000000040216d2c       0x20 /home/wall/projects/IoT/mcu/platforms/espressif/esp8266_sdk/2.2.1/ESP8266_NONOS_SDK_2.2.1/lib/libnet80211.a(ieee80211_scan.o)
                                         0x33 (size before relaxing)
 *fill*         0x0000000040216d4c        0x0 
 .text.scan_perform
                0x0000000040216d4c       0x5e /home/wall/projects/IoT/mcu/platforms/espressif/esp8266_sdk/2.2.1/ESP8266_NONOS_SDK_2.2.1/lib/libnet80211.a(ieee80211_scan.o)
                                         0x6a (size before relaxing)
 *fill*         0x0000000040216daa        0x2 
 .text.scan_op_start
                0x0000000040216dac       0x42 /home/wall/projects/IoT/mcu/platforms/espressif/esp8266_sdk/2.2.1/ESP8266_NONOS_SDK_2.2.1/lib/libnet80211.a(ieee80211_scan.o)
                                         0x56 (size before relaxing)
 *fill*         0x0000000040216dee        0x2 
 .text.scan_op_end
                0x0000000040216df0       0xd7 /home/wall/projects/IoT/mcu/platforms/espressif/esp8266_sdk/2.2.1/ESP8266_NONOS_SDK_2.2.1/lib/libnet80211.a(ieee80211_scan.o)
                                        0x10e (size before relaxing)
 *fill*         0x0000000040216ec7        0x1 
 .text.scan_cancel
                0x0000000040216ec8       0x32 /home/wall/projects/IoT/mcu/platforms/espressif/esp8266_sdk/2.2.1/ESP8266_NONOS_SDK_2.2.1/lib/libnet80211.a(ieee80211_scan.o)
                                         0x4a (size before relaxing)
                0x0000000040216ec8                scan_cancel
 *fill*         0x0000000040216efa        0x2 
 .text.scan_done
                0x0000000040216efc      0x1a9 /home/wall/projects/IoT/mcu/platforms/espressif/esp8266_sdk/2.2.1/ESP8266_NONOS_SDK_2.2.1/lib/libnet80211.a(ieee80211_scan.o)
                                        0x249 (size before relaxing)
 *fill*         0x00000000402170a5        0x3 
 .text.scan_add_bssid
                0x00000000402170a8       0x25 /home/wall/projects/IoT/mcu/platforms/espressif/esp8266_sdk/2.2.1/ESP8266_NONOS_SDK_2.2.1/lib/libnet80211.a(ieee80211_scan.o)
                                         0x2d (size before relaxing)
                0x00000000402170ac                scan_add_bssid
 *fill*         0x00000000402170cd        0x3 
 .text.scan_remove_bssid
                0x00000000402170d0        0xa /home/wall/projects/IoT/mcu/platforms/espressif/esp8266_sdk/2.2.1/ESP8266_NONOS_SDK_2.2.1/lib/libnet80211.a(ieee80211_scan.o)
                                          0xe (size before relaxing)
                0x00000000402170d0                scan_remove_bssid
 *fill*         0x00000000402170da        0x2 
 .text.scan_hidden_ssid
                0x00000000402170dc        0x8 /home/wall/projects/IoT/mcu/platforms/espressif/esp8266_sdk/2.2.1/ESP8266_NONOS_SDK_2.2.1/lib/libnet80211.a(ieee80211_scan.o)
                                          0xc (size before relaxing)
                0x00000000402170dc                scan_hidden_ssid
 .text.scan_set_act_duration
                0x00000000402170e4        0x9 /home/wall/projects/IoT/mcu/platforms/espressif/esp8266_sdk/2.2.1/ESP8266_NONOS_SDK_2.2.1/lib/libnet80211.a(ieee80211_scan.o)
                                          0xd (size before relaxing)
                0x00000000402170e4                scan_set_act_duration
 *fill*         0x00000000402170ed        0x3 
 .text.scan_set_pas_duration
                0x00000000402170f0        0x7 /home/wall/projects/IoT/mcu/platforms/espressif/esp8266_sdk/2.2.1/ESP8266_NONOS_SDK_2.2.1/lib/libnet80211.a(ieee80211_scan.o)
                                          0xb (size before relaxing)
                0x00000000402170f0                scan_set_pas_duration
 *fill*         0x00000000402170f7        0x1 
 .text.scan_add_probe_ssid
                0x00000000402170f8       0x53 /home/wall/projects/IoT/mcu/platforms/espressif/esp8266_sdk/2.2.1/ESP8266_NONOS_SDK_2.2.1/lib/libnet80211.a(ieee80211_scan.o)
                                         0x63 (size before relaxing)
                0x00000000402170f8                scan_add_probe_ssid
 *fill*         0x000000004021714b        0x1 
 .text.scan_remove_probe_ssid
                0x000000004021714c       0x18 /home/wall/projects/IoT/mcu/platforms/espressif/esp8266_sdk/2.2.1/ESP8266_NONOS_SDK_2.2.1/lib/libnet80211.a(ieee80211_scan.o)
                                         0x1c (size before relaxing)
                0x000000004021714c                scan_remove_probe_ssid
 .text.scan_send_probe
                0x0000000040217164       0x8d /home/wall/projects/IoT/mcu/platforms/espressif/esp8266_sdk/2.2.1/ESP8266_NONOS_SDK_2.2.1/lib/libnet80211.a(ieee80211_scan.o)
                                         0xa1 (size before relaxing)
 *fill*         0x00000000402171f1        0x3 
 .text.scan_get_next_channel
                0x00000000402171f4       0xab /home/wall/projects/IoT/mcu/platforms/espressif/esp8266_sdk/2.2.1/ESP8266_NONOS_SDK_2.2.1/lib/libnet80211.a(ieee80211_scan.o)
                                         0xbb (size before relaxing)
 *fill*         0x000000004021729f        0x1 
 .text.scan_clear_channles
                0x00000000402172a0       0x22 /home/wall/projects/IoT/mcu/platforms/espressif/esp8266_sdk/2.2.1/ESP8266_NONOS_SDK_2.2.1/lib/libnet80211.a(ieee80211_scan.o)
                                         0x26 (size before relaxing)
                0x00000000402172a0                scan_clear_channles
 *fill*         0x00000000402172c2        0x2 
 .text.scan_enter_oper_channel
                0x00000000402172c4       0x12 /home/wall/projects/IoT/mcu/platforms/espressif/esp8266_sdk/2.2.1/ESP8266_NONOS_SDK_2.2.1/lib/libnet80211.a(ieee80211_scan.o)
                                         0x16 (size before relaxing)
 *fill*         0x00000000402172d6        0x2 
 .text.scan_inter_channel_timeout
                0x00000000402172d8       0x3f /home/wall/projects/IoT/mcu/platforms/espressif/esp8266_sdk/2.2.1/ESP8266_NONOS_SDK_2.2.1/lib/libnet80211.a(ieee80211_scan.o)
                                         0x52 (size before relaxing)
 *fill*         0x0000000040217317        0x1 
 .text.scan_set_desChan
                0x0000000040217318        0xa /home/wall/projects/IoT/mcu/platforms/espressif/esp8266_sdk/2.2.1/ESP8266_NONOS_SDK_2.2.1/lib/libnet80211.a(ieee80211_scan.o)
                                          0xe (size before relaxing)
                0x0000000040217318                scan_set_desChan
 *fill*         0x0000000040217322        0x2 
 .text.scan_get_type
                0x0000000040217324        0x7 /home/wall/projects/IoT/mcu/platforms/espressif/esp8266_sdk/2.2.1/ESP8266_NONOS_SDK_2.2.1/lib/libnet80211.a(ieee80211_scan.o)
                                          0xb (size before relaxing)
                0x0000000040217324                scan_get_type
 *fill*         0x000000004021732b        0x1 
 .text.cannel_scan_connect_state
                0x000000004021732c       0x12 /home/wall/projects/IoT/mcu/platforms/espressif/esp8266_sdk/2.2.1/ESP8266_NONOS_SDK_2.2.1/lib/libnet80211.a(ieee80211_scan.o)
                                         0x1a (size before relaxing)
                0x000000004021732c                cannel_scan_connect_state
 *fill*         0x000000004021733e        0x2 
 .text.scan_connect_state
                0x0000000040217340       0x49 /home/wall/projects/IoT/mcu/platforms/espressif/esp8266_sdk/2.2.1/ESP8266_NONOS_SDK_2.2.1/lib/libnet80211.a(ieee80211_scan.o)
                                         0x65 (size before relaxing)
                0x0000000040217344                scan_connect_state
 *fill*         0x0000000040217389        0x3 
 .text.scan_profile_check
                0x000000004021738c      0x1c3 /home/wall/projects/IoT/mcu/platforms/espressif/esp8266_sdk/2.2.1/ESP8266_NONOS_SDK_2.2.1/lib/libnet80211.a(ieee80211_scan.o)
                                        0x213 (size before relaxing)
                0x00000000402173a4                scan_profile_check
 *fill*         0x000000004021754f        0x1 
 .text.clear_bss_queue
                0x0000000040217550       0x5a /home/wall/projects/IoT/mcu/platforms/espressif/esp8266_sdk/2.2.1/ESP8266_NONOS_SDK_2.2.1/lib/libnet80211.a(ieee80211_scan.o)
                                         0x6e (size before relaxing)
 *fill*         0x00000000402175aa        0x2 
 .text.check_bss_queue
                0x00000000402175ac       0x38 /home/wall/projects/IoT/mcu/platforms/espressif/esp8266_sdk/2.2.1/ESP8266_NONOS_SDK_2.2.1/lib/libnet80211.a(ieee80211_scan.o)
                                         0x40 (size before relaxing)
 .text.scan_add_ssid
                0x00000000402175e4      0x1d9 /home/wall/projects/IoT/mcu/platforms/espressif/esp8266_sdk/2.2.1/ESP8266_NONOS_SDK_2.2.1/lib/libnet80211.a(ieee80211_scan.o)
                                        0x231 (size before relaxing)
 *fill*         0x00000000402177bd        0x3 
 .text.scan_parse_beacon
                0x00000000402177c0      0x3a3 /home/wall/projects/IoT/mcu/platforms/espressif/esp8266_sdk/2.2.1/ESP8266_NONOS_SDK_2.2.1/lib/libnet80211.a(ieee80211_scan.o)
                                        0x493 (size before relaxing)
                0x00000000402177c8                scan_parse_beacon
 *fill*         0x0000000040217b63        0x1 
 .text.save_rssi
                0x0000000040217b64       0x1c /home/wall/projects/IoT/mcu/platforms/espressif/esp8266_sdk/2.2.1/ESP8266_NONOS_SDK_2.2.1/lib/libnet80211.a(ieee80211_sta.o)
 .text.max_rssi
                0x0000000040217b80       0x17 /home/wall/projects/IoT/mcu/platforms/espressif/esp8266_sdk/2.2.1/ESP8266_NONOS_SDK_2.2.1/lib/libnet80211.a(ieee80211_sta.o)
 *fill*         0x0000000040217b97        0x1 
 .text.sta_authretry
                0x0000000040217b98       0x25 /home/wall/projects/IoT/mcu/platforms/espressif/esp8266_sdk/2.2.1/ESP8266_NONOS_SDK_2.2.1/lib/libnet80211.a(ieee80211_sta.o)
                                         0x29 (size before relaxing)
 *fill*         0x0000000040217bbd        0x3 
 .text.sta_status_set
                0x0000000040217bc0       0x5c /home/wall/projects/IoT/mcu/platforms/espressif/esp8266_sdk/2.2.1/ESP8266_NONOS_SDK_2.2.1/lib/libnet80211.a(ieee80211_sta.o)
                                         0x60 (size before relaxing)
                0x0000000040217bc0                sta_status_set
 .text.ieee80211_sta_new_state
                0x0000000040217c1c      0x396 /home/wall/projects/IoT/mcu/platforms/espressif/esp8266_sdk/2.2.1/ESP8266_NONOS_SDK_2.2.1/lib/libnet80211.a(ieee80211_sta.o)
                                        0x485 (size before relaxing)
                0x0000000040217c2c                ieee80211_sta_new_state
 *fill*         0x0000000040217fb2        0x2 
 .text.sta_input
                0x0000000040217fb4      0x38c /home/wall/projects/IoT/mcu/platforms/espressif/esp8266_sdk/2.2.1/ESP8266_NONOS_SDK_2.2.1/lib/libnet80211.a(ieee80211_sta.o)
                                        0x3dc (size before relaxing)
                0x0000000040217fb8                sta_input
 .text.sta_auth_open
                0x0000000040218340       0xe1 /home/wall/projects/IoT/mcu/platforms/espressif/esp8266_sdk/2.2.1/ESP8266_NONOS_SDK_2.2.1/lib/libnet80211.a(ieee80211_sta.o)
                                        0x135 (size before relaxing)
 *fill*         0x0000000040218421        0x3 
 .text.sta_auth_shared
                0x0000000040218424       0xf9 /home/wall/projects/IoT/mcu/platforms/espressif/esp8266_sdk/2.2.1/ESP8266_NONOS_SDK_2.2.1/lib/libnet80211.a(ieee80211_sta.o)
                                        0x129 (size before relaxing)
 *fill*         0x000000004021851d        0x3 
 .text.sta_rx_csa
                0x0000000040218520       0x9c /home/wall/projects/IoT/mcu/platforms/espressif/esp8266_sdk/2.2.1/ESP8266_NONOS_SDK_2.2.1/lib/libnet80211.a(ieee80211_sta.o)
                                         0xb0 (size before relaxing)
 .text.sta_recv_mgmt
                0x00000000402185bc      0x2ae /home/wall/projects/IoT/mcu/platforms/espressif/esp8266_sdk/2.2.1/ESP8266_NONOS_SDK_2.2.1/lib/libnet80211.a(ieee80211_sta.o)
                                        0x32e (size before relaxing)
 *fill*         0x000000004021886a        0x2 
 .text.sta_recv_assoc
                0x000000004021886c      0x302 /home/wall/projects/IoT/mcu/platforms/espressif/esp8266_sdk/2.2.1/ESP8266_NONOS_SDK_2.2.1/lib/libnet80211.a(ieee80211_sta.o)
                                        0x386 (size before relaxing)
 *fill*         0x0000000040218b6e        0x2 
 .text.wifi_station_start
                0x0000000040218b70       0x74 /home/wall/projects/IoT/mcu/platforms/espressif/esp8266_sdk/2.2.1/ESP8266_NONOS_SDK_2.2.1/lib/libnet80211.a(ieee80211_sta.o)
                                         0x98 (size before relaxing)
                0x0000000040218b74                wifi_station_start
 .text.wifi_station_stop
                0x0000000040218be4       0x45 /home/wall/projects/IoT/mcu/platforms/espressif/esp8266_sdk/2.2.1/ESP8266_NONOS_SDK_2.2.1/lib/libnet80211.a(ieee80211_sta.o)
                                         0x55 (size before relaxing)
                0x0000000040218be8                wifi_station_stop
 *fill*         0x0000000040218c29        0x3 
 .text.chm_init
                0x0000000040218c2c       0x91 /home/wall/projects/IoT/mcu/platforms/espressif/esp8266_sdk/2.2.1/ESP8266_NONOS_SDK_2.2.1/lib/libnet80211.a(wl_chm.o)
                                         0xad (size before relaxing)
                0x0000000040218c3c                chm_init
 *fill*         0x0000000040218cbd        0x3 
 .text.chm_acquire_lock
                0x0000000040218cc0       0x46 /home/wall/projects/IoT/mcu/platforms/espressif/esp8266_sdk/2.2.1/ESP8266_NONOS_SDK_2.2.1/lib/libnet80211.a(wl_chm.o)
                                         0x52 (size before relaxing)
                0x0000000040218cc0                chm_acquire_lock
 *fill*         0x0000000040218d06        0x2 
 .text.chm_release_lock
                0x0000000040218d08       0x11 /home/wall/projects/IoT/mcu/platforms/espressif/esp8266_sdk/2.2.1/ESP8266_NONOS_SDK_2.2.1/lib/libnet80211.a(wl_chm.o)
                                         0x15 (size before relaxing)
                0x0000000040218d08                chm_release_lock
 *fill*         0x0000000040218d19        0x3 
 .text.chm_start_op
                0x0000000040218d1c       0x3f /home/wall/projects/IoT/mcu/platforms/espressif/esp8266_sdk/2.2.1/ESP8266_NONOS_SDK_2.2.1/lib/libnet80211.a(wl_chm.o)
                                         0x4f (size before relaxing)
                0x0000000040218d1c                chm_start_op
 *fill*         0x0000000040218d5b        0x1 
 .text.chm_change_channel
                0x0000000040218d5c       0x92 /home/wall/projects/IoT/mcu/platforms/espressif/esp8266_sdk/2.2.1/ESP8266_NONOS_SDK_2.2.1/lib/libnet80211.a(wl_chm.o)
                                         0xba (size before relaxing)
 *fill*         0x0000000040218dee        0x2 
 .text.chm_end_op
                0x0000000040218df0       0x34 /home/wall/projects/IoT/mcu/platforms/espressif/esp8266_sdk/2.2.1/ESP8266_NONOS_SDK_2.2.1/lib/libnet80211.a(wl_chm.o)
                                         0x40 (size before relaxing)
                0x0000000040218df0                chm_end_op
 .text.chm_end_op_timeout
                0x0000000040218e24       0x14 /home/wall/projects/IoT/mcu/platforms/espressif/esp8266_sdk/2.2.1/ESP8266_NONOS_SDK_2.2.1/lib/libnet80211.a(wl_chm.o)
                                         0x18 (size before relaxing)
 .text.chm_cancel_op
                0x0000000040218e38       0x3d /home/wall/projects/IoT/mcu/platforms/espressif/esp8266_sdk/2.2.1/ESP8266_NONOS_SDK_2.2.1/lib/libnet80211.a(wl_chm.o)
                                         0x55 (size before relaxing)
                0x0000000040218e38                chm_cancel_op
 *fill*         0x0000000040218e75        0x3 
 .text.chm_return_home_channel
                0x0000000040218e78       0x2d /home/wall/projects/IoT/mcu/platforms/espressif/esp8266_sdk/2.2.1/ESP8266_NONOS_SDK_2.2.1/lib/libnet80211.a(wl_chm.o)
                                         0x39 (size before relaxing)
                0x0000000040218e78                chm_return_home_channel
 *fill*         0x0000000040218ea5        0x3 
 .text.chm_set_current_channel
                0x0000000040218ea8       0x35 /home/wall/projects/IoT/mcu/platforms/espressif/esp8266_sdk/2.2.1/ESP8266_NONOS_SDK_2.2.1/lib/libnet80211.a(wl_chm.o)
                                         0x41 (size before relaxing)
                0x0000000040218eac                chm_set_current_channel
 *fill*         0x0000000040218edd        0x3 
 .text.chm_freq2index
                0x0000000040218ee0       0x26 /home/wall/projects/IoT/mcu/platforms/espressif/esp8266_sdk/2.2.1/ESP8266_NONOS_SDK_2.2.1/lib/libnet80211.a(wl_chm.o)
                                         0x2a (size before relaxing)
                0x0000000040218ee0                chm_freq2index
 *fill*         0x0000000040218f06        0x2 
 .text.chm_check_same_channel
                0x0000000040218f08       0x2e /home/wall/projects/IoT/mcu/platforms/espressif/esp8266_sdk/2.2.1/ESP8266_NONOS_SDK_2.2.1/lib/libnet80211.a(wl_chm.o)
                                         0x42 (size before relaxing)
                0x0000000040218f08                chm_check_same_channel
 *fill*         0x0000000040218f36        0x2 
 .text.cnx_attach
                0x0000000040218f38       0x49 /home/wall/projects/IoT/mcu/platforms/espressif/esp8266_sdk/2.2.1/ESP8266_NONOS_SDK_2.2.1/lib/libnet80211.a(wl_cnx.o)
                                         0x55 (size before relaxing)
                0x0000000040218f44                cnx_attach
 *fill*         0x0000000040218f81        0x3 
 .text.cnx_sta_connect_led_timer_cb
                0x0000000040218f84       0x49 /home/wall/projects/IoT/mcu/platforms/espressif/esp8266_sdk/2.2.1/ESP8266_NONOS_SDK_2.2.1/lib/libnet80211.a(wl_cnx.o)
                                         0x59 (size before relaxing)
                0x0000000040218f84                cnx_sta_connect_led_timer_cb
 *fill*         0x0000000040218fcd        0x3 
 .text.cnx_sta_connect_cmd
                0x0000000040218fd0       0xc7 /home/wall/projects/IoT/mcu/platforms/espressif/esp8266_sdk/2.2.1/ESP8266_NONOS_SDK_2.2.1/lib/libnet80211.a(wl_cnx.o)
                                        0x10f (size before relaxing)
                0x0000000040218fdc                cnx_sta_connect_cmd
 *fill*         0x0000000040219097        0x1 
 .text.cnx_sta_scan_cmd
                0x0000000040219098      0x13a /home/wall/projects/IoT/mcu/platforms/espressif/esp8266_sdk/2.2.1/ESP8266_NONOS_SDK_2.2.1/lib/libnet80211.a(wl_cnx.o)
                                        0x1b5 (size before relaxing)
                0x000000004021909c                cnx_sta_scan_cmd
 *fill*         0x00000000402191d2        0x2 
 .text.cnx_start_connect
                0x00000000402191d4       0x73 /home/wall/projects/IoT/mcu/platforms/espressif/esp8266_sdk/2.2.1/ESP8266_NONOS_SDK_2.2.1/lib/libnet80211.a(wl_cnx.o)
                                         0x8b (size before relaxing)
 *fill*         0x0000000040219247        0x1 
 .text.cnx_traverse_rc_list
                0x0000000040219248       0x46 /home/wall/projects/IoT/mcu/platforms/espressif/esp8266_sdk/2.2.1/ESP8266_NONOS_SDK_2.2.1/lib/libnet80211.a(wl_cnx.o)
                                         0x60 (size before relaxing)
 *fill*         0x000000004021928e        0x2 
 .text.cnx_probe_rc
                0x0000000040219290       0x5f /home/wall/projects/IoT/mcu/platforms/espressif/esp8266_sdk/2.2.1/ESP8266_NONOS_SDK_2.2.1/lib/libnet80211.a(wl_cnx.o)
                                         0x77 (size before relaxing)
 *fill*         0x00000000402192ef        0x1 
 .text.cnx_probe_rc_tx_cb
                0x00000000402192f0       0x4c /home/wall/projects/IoT/mcu/platforms/espressif/esp8266_sdk/2.2.1/ESP8266_NONOS_SDK_2.2.1/lib/libnet80211.a(wl_cnx.o)
                                         0x73 (size before relaxing)
 *fill*         0x000000004021933c        0x0 
 .text.cnx_traverse_rc_lis_done
                0x000000004021933c       0x34 /home/wall/projects/IoT/mcu/platforms/espressif/esp8266_sdk/2.2.1/ESP8266_NONOS_SDK_2.2.1/lib/libnet80211.a(wl_cnx.o)
                                         0x40 (size before relaxing)
 .text.cnx_connect_timeout
                0x0000000040219370       0x8b /home/wall/projects/IoT/mcu/platforms/espressif/esp8266_sdk/2.2.1/ESP8266_NONOS_SDK_2.2.1/lib/libnet80211.a(wl_cnx.o)
                                         0xb6 (size before relaxing)
                0x000000004021937c                cnx_connect_timeout
 *fill*         0x00000000402193fb        0x1 
 .text.cnx_auth_timeout
                0x00000000402193fc       0x20 /home/wall/projects/IoT/mcu/platforms/espressif/esp8266_sdk/2.2.1/ESP8266_NONOS_SDK_2.2.1/lib/libnet80211.a(wl_cnx.o)
                                         0x38 (size before relaxing)
                0x00000000402193fc                cnx_auth_timeout
 .text.cnx_assoc_timeout
                0x000000004021941c       0x20 /home/wall/projects/IoT/mcu/platforms/espressif/esp8266_sdk/2.2.1/ESP8266_NONOS_SDK_2.2.1/lib/libnet80211.a(wl_cnx.o)
                                         0x38 (size before relaxing)
                0x000000004021941c                cnx_assoc_timeout
 .text.cnx_handshake_timeout
                0x000000004021943c       0x3f /home/wall/projects/IoT/mcu/platforms/espressif/esp8266_sdk/2.2.1/ESP8266_NONOS_SDK_2.2.1/lib/libnet80211.a(wl_cnx.o)
                                         0x5f (size before relaxing)
                0x000000004021943c                cnx_handshake_timeout
 *fill*         0x000000004021947b        0x1 
 .text.cnx_start_handoff_cb
                0x000000004021947c       0x11 /home/wall/projects/IoT/mcu/platforms/espressif/esp8266_sdk/2.2.1/ESP8266_NONOS_SDK_2.2.1/lib/libnet80211.a(wl_cnx.o)
                                         0x18 (size before relaxing)
                0x000000004021947c                cnx_start_handoff_cb
 *fill*         0x000000004021948d        0x3 
 .text.cnx_do_handoff
                0x0000000040219490      0x183 /home/wall/projects/IoT/mcu/platforms/espressif/esp8266_sdk/2.2.1/ESP8266_NONOS_SDK_2.2.1/lib/libnet80211.a(wl_cnx.o)
                                        0x213 (size before relaxing)
 *fill*         0x0000000040219613        0x1 
 .text.cnx_csa_fn
                0x0000000040219614       0xa1 /home/wall/projects/IoT/mcu/platforms/espressif/esp8266_sdk/2.2.1/ESP8266_NONOS_SDK_2.2.1/lib/libnet80211.a(wl_cnx.o)
                                         0xd5 (size before relaxing)
                0x0000000040219618                cnx_csa_fn
 *fill*         0x00000000402196b5        0x3 
 .text.cnx_connect_to_bss
                0x00000000402196b8      0x160 /home/wall/projects/IoT/mcu/platforms/espressif/esp8266_sdk/2.2.1/ESP8266_NONOS_SDK_2.2.1/lib/libnet80211.a(wl_cnx.o)
                                        0x1d8 (size before relaxing)
 .text.cnx_connect_op
                0x0000000040219818      0x153 /home/wall/projects/IoT/mcu/platforms/espressif/esp8266_sdk/2.2.1/ESP8266_NONOS_SDK_2.2.1/lib/libnet80211.a(wl_cnx.o)
                                        0x1ce (size before relaxing)
 *fill*         0x000000004021996b        0x1 
 .text.cnx_choose_rc
                0x000000004021996c       0x7c /home/wall/projects/IoT/mcu/platforms/espressif/esp8266_sdk/2.2.1/ESP8266_NONOS_SDK_2.2.1/lib/libnet80211.a(wl_cnx.o)
                                         0x98 (size before relaxing)
 .text.cnx_cal_rc_util
                0x00000000402199e8       0x52 /home/wall/projects/IoT/mcu/platforms/espressif/esp8266_sdk/2.2.1/ESP8266_NONOS_SDK_2.2.1/lib/libnet80211.a(wl_cnx.o)
                                         0x56 (size before relaxing)
 *fill*         0x0000000040219a3a        0x2 
 .text.cnx_bss_alloc
                0x0000000040219a3c       0xca /home/wall/projects/IoT/mcu/platforms/espressif/esp8266_sdk/2.2.1/ESP8266_NONOS_SDK_2.2.1/lib/libnet80211.a(wl_cnx.o)
                                         0xd6 (size before relaxing)
                0x0000000040219a40                cnx_bss_alloc
 *fill*         0x0000000040219b06        0x2 
 .text.cnx_rc_search
                0x0000000040219b08       0x53 /home/wall/projects/IoT/mcu/platforms/espressif/esp8266_sdk/2.2.1/ESP8266_NONOS_SDK_2.2.1/lib/libnet80211.a(wl_cnx.o)
                                         0x63 (size before relaxing)
                0x0000000040219b08                cnx_rc_search
 *fill*         0x0000000040219b5b        0x1 
 .text.cnx_get_next_rc
                0x0000000040219b5c       0x2c /home/wall/projects/IoT/mcu/platforms/espressif/esp8266_sdk/2.2.1/ESP8266_NONOS_SDK_2.2.1/lib/libnet80211.a(wl_cnx.o)
                                         0x34 (size before relaxing)
 .text.cnx_add_rc
                0x0000000040219b88       0x69 /home/wall/projects/IoT/mcu/platforms/espressif/esp8266_sdk/2.2.1/ESP8266_NONOS_SDK_2.2.1/lib/libnet80211.a(wl_cnx.o)
                                         0x71 (size before relaxing)
                0x0000000040219b88                cnx_add_rc
 *fill*         0x0000000040219bf1        0x3 
 .text.cnx_remove_all_rc
                0x0000000040219bf4       0x4b /home/wall/projects/IoT/mcu/platforms/espressif/esp8266_sdk/2.2.1/ESP8266_NONOS_SDK_2.2.1/lib/libnet80211.a(wl_cnx.o)
                                         0x57 (size before relaxing)
                0x0000000040219bf4                cnx_remove_all_rc
 *fill*         0x0000000040219c3f        0x1 
 .text.cnx_remove_rc
                0x0000000040219c40       0x72 /home/wall/projects/IoT/mcu/platforms/espressif/esp8266_sdk/2.2.1/ESP8266_NONOS_SDK_2.2.1/lib/libnet80211.a(wl_cnx.o)
                                         0x7e (size before relaxing)
                0x0000000040219c40                cnx_remove_rc
 *fill*         0x0000000040219cb2        0x2 
 .text.cnx_remove_rc_except
                0x0000000040219cb4       0x5c /home/wall/projects/IoT/mcu/platforms/espressif/esp8266_sdk/2.2.1/ESP8266_NONOS_SDK_2.2.1/lib/libnet80211.a(wl_cnx.o)
                                         0x68 (size before relaxing)
 .text.cnx_rc_update_rssi
                0x0000000040219d10       0x8b /home/wall/projects/IoT/mcu/platforms/espressif/esp8266_sdk/2.2.1/ESP8266_NONOS_SDK_2.2.1/lib/libnet80211.a(wl_cnx.o)
                                         0x96 (size before relaxing)
                0x0000000040219d10                cnx_rc_update_rssi
 *fill*         0x0000000040219d9b        0x1 
 .text.cnx_rc_update_state_metric
                0x0000000040219d9c       0x6e /home/wall/projects/IoT/mcu/platforms/espressif/esp8266_sdk/2.2.1/ESP8266_NONOS_SDK_2.2.1/lib/libnet80211.a(wl_cnx.o)
                                         0x7d (size before relaxing)
                0x0000000040219d9c                cnx_rc_update_state_metric
 *fill*         0x0000000040219e0a        0x2 
 .text.cnx_rc_update_age
                0x0000000040219e0c       0x26 /home/wall/projects/IoT/mcu/platforms/espressif/esp8266_sdk/2.2.1/ESP8266_NONOS_SDK_2.2.1/lib/libnet80211.a(wl_cnx.o)
                                         0x2a (size before relaxing)
                0x0000000040219e0c                cnx_rc_update_age
 *fill*         0x0000000040219e32        0x2 
 .text.cnx_update_bss
                0x0000000040219e34       0x30 /home/wall/projects/IoT/mcu/platforms/espressif/esp8266_sdk/2.2.1/ESP8266_NONOS_SDK_2.2.1/lib/libnet80211.a(wl_cnx.o)
                                         0x38 (size before relaxing)
                0x0000000040219e34                cnx_update_bss
 .text.cnx_update_bss_more
                0x0000000040219e64      0x1e6 /home/wall/projects/IoT/mcu/platforms/espressif/esp8266_sdk/2.2.1/ESP8266_NONOS_SDK_2.2.1/lib/libnet80211.a(wl_cnx.o)
                                        0x266 (size before relaxing)
                0x0000000040219e68                cnx_update_bss_more
 *fill*         0x000000004021a04a        0x2 
 .text.cnx_sta_leave
                0x000000004021a04c       0xfa /home/wall/projects/IoT/mcu/platforms/espressif/esp8266_sdk/2.2.1/ESP8266_NONOS_SDK_2.2.1/lib/libnet80211.a(wl_cnx.o)
                                        0x162 (size before relaxing)
                0x000000004021a04c                cnx_sta_leave
 *fill*         0x000000004021a146        0x2 
 .text.send_ap_probe
                0x000000004021a148       0x8b /home/wall/projects/IoT/mcu/platforms/espressif/esp8266_sdk/2.2.1/ESP8266_NONOS_SDK_2.2.1/lib/libnet80211.a(wl_cnx.o)
                                         0xa7 (size before relaxing)
 *fill*         0x000000004021a1d3        0x1 
 .text.cnx_beacon_timeout
                0x000000004021a1d4       0x3b /home/wall/projects/IoT/mcu/platforms/espressif/esp8266_sdk/2.2.1/ESP8266_NONOS_SDK_2.2.1/lib/libnet80211.a(wl_cnx.o)
                                         0x4b (size before relaxing)
 *fill*         0x000000004021a20f        0x1 
 .text.mgd_probe_send_timeout
                0x000000004021a210       0xc8 /home/wall/projects/IoT/mcu/platforms/espressif/esp8266_sdk/2.2.1/ESP8266_NONOS_SDK_2.2.1/lib/libnet80211.a(wl_cnx.o)
                                        0x104 (size before relaxing)
 .text.cnx_sta_associated
                0x000000004021a2d8      0x117 /home/wall/projects/IoT/mcu/platforms/espressif/esp8266_sdk/2.2.1/ESP8266_NONOS_SDK_2.2.1/lib/libnet80211.a(wl_cnx.o)
                                        0x15b (size before relaxing)
                0x000000004021a2ec                cnx_sta_associated
 *fill*         0x000000004021a3ef        0x1 
 .text.cnx_node_alloc
                0x000000004021a3f0       0x72 /home/wall/projects/IoT/mcu/platforms/espressif/esp8266_sdk/2.2.1/ESP8266_NONOS_SDK_2.2.1/lib/libnet80211.a(wl_cnx.o)
                                         0x86 (size before relaxing)
                0x000000004021a3f0                cnx_node_alloc
 *fill*         0x000000004021a462        0x2 
 .text.cnx_node_remove
                0x000000004021a464       0x8b /home/wall/projects/IoT/mcu/platforms/espressif/esp8266_sdk/2.2.1/ESP8266_NONOS_SDK_2.2.1/lib/libnet80211.a(wl_cnx.o)
                                         0xbf (size before relaxing)
                0x000000004021a464                cnx_node_remove
 *fill*         0x000000004021a4ef        0x1 
 .text.cnx_node_search
                0x000000004021a4f0       0x71 /home/wall/projects/IoT/mcu/platforms/espressif/esp8266_sdk/2.2.1/ESP8266_NONOS_SDK_2.2.1/lib/libnet80211.a(wl_cnx.o)
                                         0x81 (size before relaxing)
                0x000000004021a4f0                cnx_node_search
 *fill*         0x000000004021a561        0x3 
 .text.cnx_node_leave
                0x000000004021a564      0x102 /home/wall/projects/IoT/mcu/platforms/espressif/esp8266_sdk/2.2.1/ESP8266_NONOS_SDK_2.2.1/lib/libnet80211.a(wl_cnx.o)
                                        0x146 (size before relaxing)
                0x000000004021a56c                cnx_node_leave
 *fill*         0x000000004021a666        0x2 
 .text.wifi_softap_staconnected_event_policy
                0x000000004021a668       0x2b /home/wall/projects/IoT/mcu/platforms/espressif/esp8266_sdk/2.2.1/ESP8266_NONOS_SDK_2.2.1/lib/libnet80211.a(wl_cnx.o)
                0x000000004021a66c                wifi_softap_staconnected_event_policy
 *fill*         0x000000004021a693        0x1 
 .text.wifi_softap_toomany_deny
                0x000000004021a694       0x2f /home/wall/projects/IoT/mcu/platforms/espressif/esp8266_sdk/2.2.1/ESP8266_NONOS_SDK_2.2.1/lib/libnet80211.a(wl_cnx.o)
                                         0x37 (size before relaxing)
                0x000000004021a694                wifi_softap_toomany_deny
 *fill*         0x000000004021a6c3        0x1 
 .text.cnx_node_join
                0x000000004021a6c4      0x25d /home/wall/projects/IoT/mcu/platforms/espressif/esp8266_sdk/2.2.1/ESP8266_NONOS_SDK_2.2.1/lib/libnet80211.a(wl_cnx.o)
                                        0x319 (size before relaxing)
                0x000000004021a6d0                cnx_node_join
 *fill*         0x000000004021a921        0x3 
 .text.ieee80211_send_action_register
                0x000000004021a924       0x3c /home/wall/projects/IoT/mcu/platforms/espressif/esp8266_sdk/2.2.1/ESP8266_NONOS_SDK_2.2.1/lib/libnet80211.a(ieee80211_action.o)
                0x000000004021a930                ieee80211_send_action_register
 .text.ieee80211_send_action_unregister
                0x000000004021a960       0x19 /home/wall/projects/IoT/mcu/platforms/espressif/esp8266_sdk/2.2.1/ESP8266_NONOS_SDK_2.2.1/lib/libnet80211.a(ieee80211_action.o)
                                         0x1d (size before relaxing)
                0x000000004021a964                ieee80211_send_action_unregister
 *fill*         0x000000004021a979        0x3 
 .text.ieee80211_send_action
                0x000000004021a97c       0x59 /home/wall/projects/IoT/mcu/platforms/espressif/esp8266_sdk/2.2.1/ESP8266_NONOS_SDK_2.2.1/lib/libnet80211.a(ieee80211_action.o)
                                         0x69 (size before relaxing)
                0x000000004021a97c                ieee80211_send_action
 *fill*         0x000000004021a9d5        0x3 
 .text.ieee80211_recv_action_register
                0x000000004021a9d8       0x3c /home/wall/projects/IoT/mcu/platforms/espressif/esp8266_sdk/2.2.1/ESP8266_NONOS_SDK_2.2.1/lib/libnet80211.a(ieee80211_action.o)
                0x000000004021a9e4                ieee80211_recv_action_register
 .text.ieee80211_recv_action_unregister
                0x000000004021aa14       0x19 /home/wall/projects/IoT/mcu/platforms/espressif/esp8266_sdk/2.2.1/ESP8266_NONOS_SDK_2.2.1/lib/libnet80211.a(ieee80211_action.o)
                                         0x1d (size before relaxing)
                0x000000004021aa18                ieee80211_recv_action_unregister
 *fill*         0x000000004021aa2d        0x3 
 .text.ieee80211_recv_action
                0x000000004021aa30       0x63 /home/wall/projects/IoT/mcu/platforms/espressif/esp8266_sdk/2.2.1/ESP8266_NONOS_SDK_2.2.1/lib/libnet80211.a(ieee80211_action.o)
                                         0x77 (size before relaxing)
                0x000000004021aa30                ieee80211_recv_action
 *fill*         0x000000004021aa93        0x1 
 .text.ieee80211_avs_fetch_key_idx
                0x000000004021aa94       0x52 /home/wall/projects/IoT/mcu/platforms/espressif/esp8266_sdk/2.2.1/ESP8266_NONOS_SDK_2.2.1/lib/libnet80211.a(ieee80211_action_vendor.o)
                                         0x5a (size before relaxing)
                0x000000004021aa94                ieee80211_avs_fetch_key_idx
 *fill*         0x000000004021aae6        0x2 
 .text.ieee80211_avs_clear_key_idx
                0x000000004021aae8       0x23 /home/wall/projects/IoT/mcu/platforms/espressif/esp8266_sdk/2.2.1/ESP8266_NONOS_SDK_2.2.1/lib/libnet80211.a(ieee80211_action_vendor.o)
                                         0x27 (size before relaxing)
                0x000000004021aae8                ieee80211_avs_clear_key_idx
 *fill*         0x000000004021ab0b        0x1 
 .text.get_iav_key
                0x000000004021ab0c       0x25 /home/wall/projects/IoT/mcu/platforms/espressif/esp8266_sdk/2.2.1/ESP8266_NONOS_SDK_2.2.1/lib/libnet80211.a(ieee80211_action_vendor.o)
                0x000000004021ab10                get_iav_key
 *fill*         0x000000004021ab31        0x3 
 .text.register_ieee80211_action_vendor_get_key_cb
                0x000000004021ab34       0x18 /home/wall/projects/IoT/mcu/platforms/espressif/esp8266_sdk/2.2.1/ESP8266_NONOS_SDK_2.2.1/lib/libnet80211.a(ieee80211_action_vendor.o)
                                         0x1c (size before relaxing)
                0x000000004021ab34                register_ieee80211_action_vendor_get_key_cb
 .text.unregister_ieee80211_action_vendor_get_key_cb
                0x000000004021ab4c        0xc /home/wall/projects/IoT/mcu/platforms/espressif/esp8266_sdk/2.2.1/ESP8266_NONOS_SDK_2.2.1/lib/libnet80211.a(ieee80211_action_vendor.o)
                                         0x10 (size before relaxing)
                0x000000004021ab4c                unregister_ieee80211_action_vendor_get_key_cb
 .text.ieee80211_add_action_vendor_spec_esp
                0x000000004021ab58       0x50 /home/wall/projects/IoT/mcu/platforms/espressif/esp8266_sdk/2.2.1/ESP8266_NONOS_SDK_2.2.1/lib/libnet80211.a(ieee80211_action_vendor.o)
                                         0x58 (size before relaxing)
                0x000000004021ab64                ieee80211_add_action_vendor_spec_esp
 .text.ieee80211_alloc_action_vendor_spec
                0x000000004021aba8       0xf1 /home/wall/projects/IoT/mcu/platforms/espressif/esp8266_sdk/2.2.1/ESP8266_NONOS_SDK_2.2.1/lib/libnet80211.a(ieee80211_action_vendor.o)
                                         0xfd (size before relaxing)
                0x000000004021aba8                ieee80211_alloc_action_vendor_spec
 *fill*         0x000000004021ac99        0x3 
 .text.ieee80211_send_action_vendor_spec
                0x000000004021ac9c      0x19a /home/wall/projects/IoT/mcu/platforms/espressif/esp8266_sdk/2.2.1/ESP8266_NONOS_SDK_2.2.1/lib/libnet80211.a(ieee80211_action_vendor.o)
                                        0x1d6 (size before relaxing)
                0x000000004021ac9c                ieee80211_send_action_vendor_spec
 *fill*         0x000000004021ae36        0x2 
 .text.ieee80211_recv_action_vendor_spec
                0x000000004021ae38      0x16d /home/wall/projects/IoT/mcu/platforms/espressif/esp8266_sdk/2.2.1/ESP8266_NONOS_SDK_2.2.1/lib/libnet80211.a(ieee80211_action_vendor.o)
                                        0x195 (size before relaxing)
                0x000000004021ae50                ieee80211_recv_action_vendor_spec
 *fill*         0x000000004021afa5        0x3 
 .text.ieee80211_action_vendor_spec_attach
                0x000000004021afa8       0x43 /home/wall/projects/IoT/mcu/platforms/espressif/esp8266_sdk/2.2.1/ESP8266_NONOS_SDK_2.2.1/lib/libnet80211.a(ieee80211_action_vendor.o)
                                         0x53 (size before relaxing)
                0x000000004021afb0                ieee80211_action_vendor_spec_attach
 *fill*         0x000000004021afeb        0x1 
 .text.register_ieee80211_action_vendor_spec_cb
                0x000000004021afec       0x18 /home/wall/projects/IoT/mcu/platforms/espressif/esp8266_sdk/2.2.1/ESP8266_NONOS_SDK_2.2.1/lib/libnet80211.a(ieee80211_action_vendor.o)
                                         0x1c (size before relaxing)
                0x000000004021afec                register_ieee80211_action_vendor_spec_cb
 .text.unregister_ieee80211_action_vendor_spec_cb
                0x000000004021b004        0xc /home/wall/projects/IoT/mcu/platforms/espressif/esp8266_sdk/2.2.1/ESP8266_NONOS_SDK_2.2.1/lib/libnet80211.a(ieee80211_action_vendor.o)
                                         0x10 (size before relaxing)
                0x000000004021b004                unregister_ieee80211_action_vendor_spec_cb
 .text.ccmp_encap
                0x000000004021b010       0x79 /home/wall/projects/IoT/mcu/platforms/espressif/esp8266_sdk/2.2.1/ESP8266_NONOS_SDK_2.2.1/lib/libnet80211.a(ieee80211_crypto_ccmp.o)
                                         0x7d (size before relaxing)
 *fill*         0x000000004021b089        0x3 
 .text.ccmp_decap
                0x000000004021b08c       0xe1 /home/wall/projects/IoT/mcu/platforms/espressif/esp8266_sdk/2.2.1/ESP8266_NONOS_SDK_2.2.1/lib/libnet80211.a(ieee80211_crypto_ccmp.o)
                                         0xe5 (size before relaxing)
 *fill*         0x000000004021b16d        0x3 
 .text.ieee80211_add_ie_vendor_esp_head
                0x000000004021b170       0x3c /home/wall/projects/IoT/mcu/platforms/espressif/esp8266_sdk/2.2.1/ESP8266_NONOS_SDK_2.2.1/lib/libnet80211.a(ieee80211_ie_vendor.o)
                                         0x40 (size before relaxing)
                0x000000004021b174                ieee80211_add_ie_vendor_esp_head
 .text.ieee80211_add_ie_vendor_esp_mesh_assoc
                0x000000004021b1ac       0x87 /home/wall/projects/IoT/mcu/platforms/espressif/esp8266_sdk/2.2.1/ESP8266_NONOS_SDK_2.2.1/lib/libnet80211.a(ieee80211_ie_vendor.o)
                                         0x8f (size before relaxing)
                0x000000004021b1ac                ieee80211_add_ie_vendor_esp_mesh_assoc
 *fill*         0x000000004021b233        0x1 
 .text.ieee80211_add_ie_vendor_esp_mesh_group
                0x000000004021b234       0x35 /home/wall/projects/IoT/mcu/platforms/espressif/esp8266_sdk/2.2.1/ESP8266_NONOS_SDK_2.2.1/lib/libnet80211.a(ieee80211_ie_vendor.o)
                                         0x3d (size before relaxing)
                0x000000004021b234                ieee80211_add_ie_vendor_esp_mesh_group
 *fill*         0x000000004021b269        0x3 
 .text.ieee80211_add_ie_vendor_esp_simple_pair
                0x000000004021b26c       0x5e /home/wall/projects/IoT/mcu/platforms/espressif/esp8266_sdk/2.2.1/ESP8266_NONOS_SDK_2.2.1/lib/libnet80211.a(ieee80211_ie_vendor.o)
                                         0x66 (size before relaxing)
                0x000000004021b26c                ieee80211_add_ie_vendor_esp_simple_pair
 *fill*         0x000000004021b2ca        0x2 
 .text.ieee80211_add_ie_vendor_esp_freq_annon
                0x000000004021b2cc       0x3b /home/wall/projects/IoT/mcu/platforms/espressif/esp8266_sdk/2.2.1/ESP8266_NONOS_SDK_2.2.1/lib/libnet80211.a(ieee80211_ie_vendor.o)
                                         0x3f (size before relaxing)
                0x000000004021b2cc                ieee80211_add_ie_vendor_esp_freq_annon
 *fill*         0x000000004021b307        0x1 
 .text.ieee80211_add_ie_vendor_esp_now
                0x000000004021b308       0x39 /home/wall/projects/IoT/mcu/platforms/espressif/esp8266_sdk/2.2.1/ESP8266_NONOS_SDK_2.2.1/lib/libnet80211.a(ieee80211_ie_vendor.o)
                                         0x41 (size before relaxing)
                0x000000004021b308                ieee80211_add_ie_vendor_esp_now
 *fill*         0x000000004021b341        0x3 
 .text.ieee80211_add_ie_vendor_esp_ssid
                0x000000004021b344       0x41 /home/wall/projects/IoT/mcu/platforms/espressif/esp8266_sdk/2.2.1/ESP8266_NONOS_SDK_2.2.1/lib/libnet80211.a(ieee80211_ie_vendor.o)
                                         0x49 (size before relaxing)
                0x000000004021b344                ieee80211_add_ie_vendor_esp_ssid
 *fill*         0x000000004021b385        0x3 
 .text.ieee80211_add_ie_vendor_esp_manufacturer
                0x000000004021b388       0x50 /home/wall/projects/IoT/mcu/platforms/espressif/esp8266_sdk/2.2.1/ESP8266_NONOS_SDK_2.2.1/lib/libnet80211.a(ieee80211_ie_vendor.o)
                                         0x5c (size before relaxing)
                0x000000004021b388                ieee80211_add_ie_vendor_esp_manufacturer
 .text.tkip_encap
                0x000000004021b3d8       0x92 /home/wall/projects/IoT/mcu/platforms/espressif/esp8266_sdk/2.2.1/ESP8266_NONOS_SDK_2.2.1/lib/libnet80211.a(ieee80211_crypto_tkip.o)
                                         0x96 (size before relaxing)
 *fill*         0x000000004021b46a        0x2 
 .text.tkip_decap
                0x000000004021b46c       0xf7 /home/wall/projects/IoT/mcu/platforms/espressif/esp8266_sdk/2.2.1/ESP8266_NONOS_SDK_2.2.1/lib/libnet80211.a(ieee80211_crypto_tkip.o)
                                         0xff (size before relaxing)
 *fill*         0x000000004021b563        0x1 
 .text.wep_encap
                0x000000004021b564       0x5b /home/wall/projects/IoT/mcu/platforms/espressif/esp8266_sdk/2.2.1/ESP8266_NONOS_SDK_2.2.1/lib/libnet80211.a(ieee80211_crypto_wep.o)
 *fill*         0x000000004021b5bf        0x1 
 .literal.ieee80211_chan_init
                0x000000004021b5c0        0x0 /home/wall/projects/IoT/mcu/platforms/espressif/esp8266_sdk/2.2.1/ESP8266_NONOS_SDK_2.2.1/lib/libnet80211.a(ieee80211.o)
 .literal.ieee80211_rate_ref_init
                0x000000004021b5c0        0x0 /home/wall/projects/IoT/mcu/platforms/espressif/esp8266_sdk/2.2.1/ESP8266_NONOS_SDK_2.2.1/lib/libnet80211.a(ieee80211.o)
 .literal.ieee80211_freedom_inside_cb
                0x000000004021b5c0        0x0 /home/wall/projects/IoT/mcu/platforms/espressif/esp8266_sdk/2.2.1/ESP8266_NONOS_SDK_2.2.1/lib/libnet80211.a(ieee80211.o)
 .literal.ieee80211_freedom_init
                0x000000004021b5c0        0x0 /home/wall/projects/IoT/mcu/platforms/espressif/esp8266_sdk/2.2.1/ESP8266_NONOS_SDK_2.2.1/lib/libnet80211.a(ieee80211.o)
 .literal.ieee80211_user_ie_init
                0x000000004021b5c0        0x0 /home/wall/projects/IoT/mcu/platforms/espressif/esp8266_sdk/2.2.1/ESP8266_NONOS_SDK_2.2.1/lib/libnet80211.a(ieee80211.o)
 .literal.ieee80211_ifattach
                0x000000004021b5c0        0x0 /home/wall/projects/IoT/mcu/platforms/espressif/esp8266_sdk/2.2.1/ESP8266_NONOS_SDK_2.2.1/lib/libnet80211.a(ieee80211.o)
 .literal.ieee80211_mhz2ieee
                0x000000004021b5c0        0x0 /home/wall/projects/IoT/mcu/platforms/espressif/esp8266_sdk/2.2.1/ESP8266_NONOS_SDK_2.2.1/lib/libnet80211.a(ieee80211.o)
 .literal.ieee80211_chan2ieee
                0x000000004021b5c0        0x0 /home/wall/projects/IoT/mcu/platforms/espressif/esp8266_sdk/2.2.1/ESP8266_NONOS_SDK_2.2.1/lib/libnet80211.a(ieee80211.o)
 .literal.ieee80211_ieee2mhz
                0x000000004021b5c0        0x0 /home/wall/projects/IoT/mcu/platforms/espressif/esp8266_sdk/2.2.1/ESP8266_NONOS_SDK_2.2.1/lib/libnet80211.a(ieee80211.o)
 .literal.ieee80211_find_channel
                0x000000004021b5c0        0x0 /home/wall/projects/IoT/mcu/platforms/espressif/esp8266_sdk/2.2.1/ESP8266_NONOS_SDK_2.2.1/lib/libnet80211.a(ieee80211.o)
 .literal.ieee80211_find_channel_byieee
                0x000000004021b5c0        0x0 /home/wall/projects/IoT/mcu/platforms/espressif/esp8266_sdk/2.2.1/ESP8266_NONOS_SDK_2.2.1/lib/libnet80211.a(ieee80211.o)
 .literal.wifi_mode_set
                0x000000004021b5c0        0x0 /home/wall/projects/IoT/mcu/platforms/espressif/esp8266_sdk/2.2.1/ESP8266_NONOS_SDK_2.2.1/lib/libnet80211.a(ieee80211.o)
 *fill*         0x000000004021b5c0        0x0 
 *fill*         0x000000004021b5c0        0x0 
 *fill*         0x000000004021b5c0        0x0 
 *fill*         0x000000004021b5c0        0x0 
 *fill*         0x000000004021b5c0        0x0 
 *fill*         0x000000004021b5c0        0x0 
 .text.ieee80211_find_channel
                0x000000004021b5c0       0x29 /home/wall/projects/IoT/mcu/platforms/espressif/esp8266_sdk/2.2.1/ESP8266_NONOS_SDK_2.2.1/lib/libnet80211.a(ieee80211.o)
                0x000000004021b5c0                ieee80211_find_channel
 *fill*         0x000000004021b5e9        0x3 
 .text.ieee80211_find_channel_byieee
                0x000000004021b5ec       0x29 /home/wall/projects/IoT/mcu/platforms/espressif/esp8266_sdk/2.2.1/ESP8266_NONOS_SDK_2.2.1/lib/libnet80211.a(ieee80211.o)
                0x000000004021b5ec                ieee80211_find_channel_byieee
 *fill*         0x000000004021b615        0x0 
 *fill*         0x000000004021b615        0x3 
 .literal.ieee80211_crypto_attach
                0x000000004021b618        0x0 /home/wall/projects/IoT/mcu/platforms/espressif/esp8266_sdk/2.2.1/ESP8266_NONOS_SDK_2.2.1/lib/libnet80211.a(ieee80211_crypto.o)
 .literal.ieee80211_crypto_available
                0x000000004021b618        0x0 /home/wall/projects/IoT/mcu/platforms/espressif/esp8266_sdk/2.2.1/ESP8266_NONOS_SDK_2.2.1/lib/libnet80211.a(ieee80211_crypto.o)
 .literal.ieee80211_crypto_setkey
                0x000000004021b618        0x0 /home/wall/projects/IoT/mcu/platforms/espressif/esp8266_sdk/2.2.1/ESP8266_NONOS_SDK_2.2.1/lib/libnet80211.a(ieee80211_crypto.o)
 .literal.ieee80211_crypto_encap
                0x000000004021b618        0x0 /home/wall/projects/IoT/mcu/platforms/espressif/esp8266_sdk/2.2.1/ESP8266_NONOS_SDK_2.2.1/lib/libnet80211.a(ieee80211_crypto.o)
 .literal.ieee80211_crypto_decap
                0x000000004021b618        0x0 /home/wall/projects/IoT/mcu/platforms/espressif/esp8266_sdk/2.2.1/ESP8266_NONOS_SDK_2.2.1/lib/libnet80211.a(ieee80211_crypto.o)
 .text.ieee80211_crypto_attach
                0x000000004021b618        0x2 /home/wall/projects/IoT/mcu/platforms/espressif/esp8266_sdk/2.2.1/ESP8266_NONOS_SDK_2.2.1/lib/libnet80211.a(ieee80211_crypto.o)
                0x000000004021b618                ieee80211_crypto_attach
 *fill*         0x000000004021b61a        0x2 
 .text.ieee80211_crypto_available
                0x000000004021b61c        0x4 /home/wall/projects/IoT/mcu/platforms/espressif/esp8266_sdk/2.2.1/ESP8266_NONOS_SDK_2.2.1/lib/libnet80211.a(ieee80211_crypto.o)
                0x000000004021b61c                ieee80211_crypto_available
 .text.ieee80211_crypto_setkey
                0x000000004021b620        0x4 /home/wall/projects/IoT/mcu/platforms/espressif/esp8266_sdk/2.2.1/ESP8266_NONOS_SDK_2.2.1/lib/libnet80211.a(ieee80211_crypto.o)
                0x000000004021b620                ieee80211_crypto_setkey
 *fill*         0x000000004021b624        0x0 
 .literal.ieee80211_getmgtframe
                0x000000004021b624        0x0 /home/wall/projects/IoT/mcu/platforms/espressif/esp8266_sdk/2.2.1/ESP8266_NONOS_SDK_2.2.1/lib/libnet80211.a(ieee80211_ets.o)
 .literal.ieee80211_hdrsize
                0x000000004021b624        0x0 /home/wall/projects/IoT/mcu/platforms/espressif/esp8266_sdk/2.2.1/ESP8266_NONOS_SDK_2.2.1/lib/libnet80211.a(ieee80211_hostap.o)
 .literal.ieee80211_hostap_send_beacon
                0x000000004021b624        0x0 /home/wall/projects/IoT/mcu/platforms/espressif/esp8266_sdk/2.2.1/ESP8266_NONOS_SDK_2.2.1/lib/libnet80211.a(ieee80211_hostap.o)
 .literal.ieee80211_hostapd_beacon_txcb
                0x000000004021b624        0x0 /home/wall/projects/IoT/mcu/platforms/espressif/esp8266_sdk/2.2.1/ESP8266_NONOS_SDK_2.2.1/lib/libnet80211.a(ieee80211_hostap.o)
 .literal.ieee80211_hostap_init
                0x000000004021b624        0x0 /home/wall/projects/IoT/mcu/platforms/espressif/esp8266_sdk/2.2.1/ESP8266_NONOS_SDK_2.2.1/lib/libnet80211.a(ieee80211_hostap.o)
 .literal.ieee80211_hostap_deinit
                0x000000004021b624        0x0 /home/wall/projects/IoT/mcu/platforms/espressif/esp8266_sdk/2.2.1/ESP8266_NONOS_SDK_2.2.1/lib/libnet80211.a(ieee80211_hostap.o)
 .literal.ieee80211_hostap_attach
                0x000000004021b624        0x0 /home/wall/projects/IoT/mcu/platforms/espressif/esp8266_sdk/2.2.1/ESP8266_NONOS_SDK_2.2.1/lib/libnet80211.a(ieee80211_hostap.o)
 .literal.hostap_deliver_data
                0x000000004021b624        0x0 /home/wall/projects/IoT/mcu/platforms/espressif/esp8266_sdk/2.2.1/ESP8266_NONOS_SDK_2.2.1/lib/libnet80211.a(ieee80211_hostap.o)
 .literal.hostap_handle_timer
                0x000000004021b624        0x0 /home/wall/projects/IoT/mcu/platforms/espressif/esp8266_sdk/2.2.1/ESP8266_NONOS_SDK_2.2.1/lib/libnet80211.a(ieee80211_hostap.o)
 .literal.hostap_input
                0x000000004021b624        0x0 /home/wall/projects/IoT/mcu/platforms/espressif/esp8266_sdk/2.2.1/ESP8266_NONOS_SDK_2.2.1/lib/libnet80211.a(ieee80211_hostap.o)
 .literal.hostap_auth_open
                0x000000004021b624        0x0 /home/wall/projects/IoT/mcu/platforms/espressif/esp8266_sdk/2.2.1/ESP8266_NONOS_SDK_2.2.1/lib/libnet80211.a(ieee80211_hostap.o)
 .literal.is11bclient
                0x000000004021b624        0x0 /home/wall/projects/IoT/mcu/platforms/espressif/esp8266_sdk/2.2.1/ESP8266_NONOS_SDK_2.2.1/lib/libnet80211.a(ieee80211_hostap.o)
 .literal.hostap_recv_mgmt
                0x000000004021b624        0x0 /home/wall/projects/IoT/mcu/platforms/espressif/esp8266_sdk/2.2.1/ESP8266_NONOS_SDK_2.2.1/lib/libnet80211.a(ieee80211_hostap.o)
 .literal.hostap_recv_ctl
                0x000000004021b624        0x0 /home/wall/projects/IoT/mcu/platforms/espressif/esp8266_sdk/2.2.1/ESP8266_NONOS_SDK_2.2.1/lib/libnet80211.a(ieee80211_hostap.o)
 .literal.hostap_recv_pspoll
                0x000000004021b624        0x0 /home/wall/projects/IoT/mcu/platforms/espressif/esp8266_sdk/2.2.1/ESP8266_NONOS_SDK_2.2.1/lib/libnet80211.a(ieee80211_hostap.o)
 .literal.freqcal_scan_done
                0x000000004021b624        0x0 /home/wall/projects/IoT/mcu/platforms/espressif/esp8266_sdk/2.2.1/ESP8266_NONOS_SDK_2.2.1/lib/libnet80211.a(ieee80211_hostap.o)
 .literal.ApFreqCalTimerCB
                0x000000004021b624        0x0 /home/wall/projects/IoT/mcu/platforms/espressif/esp8266_sdk/2.2.1/ESP8266_NONOS_SDK_2.2.1/lib/libnet80211.a(ieee80211_hostap.o)
 .literal.wifi_softap_start
                0x000000004021b624        0x0 /home/wall/projects/IoT/mcu/platforms/espressif/esp8266_sdk/2.2.1/ESP8266_NONOS_SDK_2.2.1/lib/libnet80211.a(ieee80211_hostap.o)
 .literal.wifi_softap_stop
                0x000000004021b624        0x0 /home/wall/projects/IoT/mcu/platforms/espressif/esp8266_sdk/2.2.1/ESP8266_NONOS_SDK_2.2.1/lib/libnet80211.a(ieee80211_hostap.o)
 .text.ieee80211_hdrsize
                0x000000004021b624       0x25 /home/wall/projects/IoT/mcu/platforms/espressif/esp8266_sdk/2.2.1/ESP8266_NONOS_SDK_2.2.1/lib/libnet80211.a(ieee80211_hostap.o)
 *fill*         0x000000004021b649        0x0 
 *fill*         0x000000004021b649        0x0 
 *fill*         0x000000004021b649        0x0 
 *fill*         0x000000004021b649        0x0 
 *fill*         0x000000004021b649        0x0 
 *fill*         0x000000004021b649        0x0 
 *fill*         0x000000004021b649        0x0 
 *fill*         0x000000004021b649        0x0 
 *fill*         0x000000004021b649        0x0 
 *fill*         0x000000004021b649        0x0 
 *fill*         0x000000004021b649        0x0 
 *fill*         0x000000004021b649        0x0 
 *fill*         0x000000004021b649        0x0 
 *fill*         0x000000004021b649        0x0 
 *fill*         0x000000004021b649        0x3 
 .literal.ieee80211_ht_attach
                0x000000004021b64c        0x0 /home/wall/projects/IoT/mcu/platforms/espressif/esp8266_sdk/2.2.1/ESP8266_NONOS_SDK_2.2.1/lib/libnet80211.a(ieee80211_ht.o)
 .literal.ieee80211_ht_node_init
                0x000000004021b64c        0x0 /home/wall/projects/IoT/mcu/platforms/espressif/esp8266_sdk/2.2.1/ESP8266_NONOS_SDK_2.2.1/lib/libnet80211.a(ieee80211_ht.o)
 .literal.ieee80211_ht_node_cleanup
                0x000000004021b64c        0x0 /home/wall/projects/IoT/mcu/platforms/espressif/esp8266_sdk/2.2.1/ESP8266_NONOS_SDK_2.2.1/lib/libnet80211.a(ieee80211_ht.o)
 .literal.findhtchan
                0x000000004021b64c        0x0 /home/wall/projects/IoT/mcu/platforms/espressif/esp8266_sdk/2.2.1/ESP8266_NONOS_SDK_2.2.1/lib/libnet80211.a(ieee80211_ht.o)
 .literal.ieee80211_parse_htcap
                0x000000004021b64c        0x0 /home/wall/projects/IoT/mcu/platforms/espressif/esp8266_sdk/2.2.1/ESP8266_NONOS_SDK_2.2.1/lib/libnet80211.a(ieee80211_ht.o)
 .literal.htinfo_parse
                0x000000004021b64c        0x0 /home/wall/projects/IoT/mcu/platforms/espressif/esp8266_sdk/2.2.1/ESP8266_NONOS_SDK_2.2.1/lib/libnet80211.a(ieee80211_ht.o)
 .literal.htinfo_update_chw
                0x000000004021b64c        0x0 /home/wall/projects/IoT/mcu/platforms/espressif/esp8266_sdk/2.2.1/ESP8266_NONOS_SDK_2.2.1/lib/libnet80211.a(ieee80211_ht.o)
 .literal.ieee80211_ht_updateparams
                0x000000004021b64c        0x0 /home/wall/projects/IoT/mcu/platforms/espressif/esp8266_sdk/2.2.1/ESP8266_NONOS_SDK_2.2.1/lib/libnet80211.a(ieee80211_ht.o)
 .literal.ieee80211_setup_htrates
                0x000000004021b64c        0x0 /home/wall/projects/IoT/mcu/platforms/espressif/esp8266_sdk/2.2.1/ESP8266_NONOS_SDK_2.2.1/lib/libnet80211.a(ieee80211_ht.o)
 .literal.ieee80211_setup_basic_htrates
                0x000000004021b64c        0x0 /home/wall/projects/IoT/mcu/platforms/espressif/esp8266_sdk/2.2.1/ESP8266_NONOS_SDK_2.2.1/lib/libnet80211.a(ieee80211_ht.o)
 .literal.ieee80211_set_mcsset
                0x000000004021b64c        0x0 /home/wall/projects/IoT/mcu/platforms/espressif/esp8266_sdk/2.2.1/ESP8266_NONOS_SDK_2.2.1/lib/libnet80211.a(ieee80211_ht.o)
 .literal.ieee80211_add_htcap_body
                0x000000004021b64c        0x0 /home/wall/projects/IoT/mcu/platforms/espressif/esp8266_sdk/2.2.1/ESP8266_NONOS_SDK_2.2.1/lib/libnet80211.a(ieee80211_ht.o)
 .literal.ieee80211_add_htcap
                0x000000004021b64c        0x0 /home/wall/projects/IoT/mcu/platforms/espressif/esp8266_sdk/2.2.1/ESP8266_NONOS_SDK_2.2.1/lib/libnet80211.a(ieee80211_ht.o)
 .literal.ieee80211_add_htcap_vendor
                0x000000004021b64c        0x0 /home/wall/projects/IoT/mcu/platforms/espressif/esp8266_sdk/2.2.1/ESP8266_NONOS_SDK_2.2.1/lib/libnet80211.a(ieee80211_ht.o)
 .literal.ieee80211_set_basic_htrates
                0x000000004021b64c        0x0 /home/wall/projects/IoT/mcu/platforms/espressif/esp8266_sdk/2.2.1/ESP8266_NONOS_SDK_2.2.1/lib/libnet80211.a(ieee80211_ht.o)
 .literal.ieee80211_add_htinfo_body
                0x000000004021b64c        0x0 /home/wall/projects/IoT/mcu/platforms/espressif/esp8266_sdk/2.2.1/ESP8266_NONOS_SDK_2.2.1/lib/libnet80211.a(ieee80211_ht.o)
 .literal.ieee80211_add_htinfo
                0x000000004021b64c        0x0 /home/wall/projects/IoT/mcu/platforms/espressif/esp8266_sdk/2.2.1/ESP8266_NONOS_SDK_2.2.1/lib/libnet80211.a(ieee80211_ht.o)
 .literal.ieee80211_add_htinfo_vendor
                0x000000004021b64c        0x0 /home/wall/projects/IoT/mcu/platforms/espressif/esp8266_sdk/2.2.1/ESP8266_NONOS_SDK_2.2.1/lib/libnet80211.a(ieee80211_ht.o)
 .literal.ht_recv_action_ba_addba_request
                0x000000004021b64c        0x0 /home/wall/projects/IoT/mcu/platforms/espressif/esp8266_sdk/2.2.1/ESP8266_NONOS_SDK_2.2.1/lib/libnet80211.a(ieee80211_ht.o)
 .literal.ht_send_action_ba_addba
                0x000000004021b64c        0x0 /home/wall/projects/IoT/mcu/platforms/espressif/esp8266_sdk/2.2.1/ESP8266_NONOS_SDK_2.2.1/lib/libnet80211.a(ieee80211_ht.o)
 *fill*         0x000000004021b64c        0x0 
 .text.ieee80211_ht_node_cleanup
                0x000000004021b64c       0x13 /home/wall/projects/IoT/mcu/platforms/espressif/esp8266_sdk/2.2.1/ESP8266_NONOS_SDK_2.2.1/lib/libnet80211.a(ieee80211_ht.o)
                0x000000004021b64c                ieee80211_ht_node_cleanup
 *fill*         0x000000004021b65f        0x0 
 *fill*         0x000000004021b65f        0x1 
 .text.htinfo_parse
                0x000000004021b660       0x23 /home/wall/projects/IoT/mcu/platforms/espressif/esp8266_sdk/2.2.1/ESP8266_NONOS_SDK_2.2.1/lib/libnet80211.a(ieee80211_ht.o)
 *fill*         0x000000004021b683        0x0 
 *fill*         0x000000004021b683        0x0 
 *fill*         0x000000004021b683        0x0 
 *fill*         0x000000004021b683        0x0 
 *fill*         0x000000004021b683        0x0 
 *fill*         0x000000004021b683        0x0 
 *fill*         0x000000004021b683        0x0 
 *fill*         0x000000004021b683        0x1 
 .literal.ieee80211_deliver_data
                0x000000004021b684        0x0 /home/wall/projects/IoT/mcu/platforms/espressif/esp8266_sdk/2.2.1/ESP8266_NONOS_SDK_2.2.1/lib/libnet80211.a(ieee80211_input.o)
 .literal.ieee80211_decap
                0x000000004021b684        0x0 /home/wall/projects/IoT/mcu/platforms/espressif/esp8266_sdk/2.2.1/ESP8266_NONOS_SDK_2.2.1/lib/libnet80211.a(ieee80211_input.o)
 .literal.ieee80211_setup_rates
                0x000000004021b684        0x0 /home/wall/projects/IoT/mcu/platforms/espressif/esp8266_sdk/2.2.1/ESP8266_NONOS_SDK_2.2.1/lib/libnet80211.a(ieee80211_input.o)
 .literal.ieee80211_alloc_challenge
                0x000000004021b684        0x0 /home/wall/projects/IoT/mcu/platforms/espressif/esp8266_sdk/2.2.1/ESP8266_NONOS_SDK_2.2.1/lib/libnet80211.a(ieee80211_input.o)
 .literal.ieee80211_parse_beacon
                0x000000004021b684        0x0 /home/wall/projects/IoT/mcu/platforms/espressif/esp8266_sdk/2.2.1/ESP8266_NONOS_SDK_2.2.1/lib/libnet80211.a(ieee80211_input.o)
 .literal.wpa_cipher
                0x000000004021b684        0x0 /home/wall/projects/IoT/mcu/platforms/espressif/esp8266_sdk/2.2.1/ESP8266_NONOS_SDK_2.2.1/lib/libnet80211.a(ieee80211_input.o)
 .literal.wpa_keymgmt
                0x000000004021b684        0x0 /home/wall/projects/IoT/mcu/platforms/espressif/esp8266_sdk/2.2.1/ESP8266_NONOS_SDK_2.2.1/lib/libnet80211.a(ieee80211_input.o)
 .literal.rsn_cipher
                0x000000004021b684        0x0 /home/wall/projects/IoT/mcu/platforms/espressif/esp8266_sdk/2.2.1/ESP8266_NONOS_SDK_2.2.1/lib/libnet80211.a(ieee80211_input.o)
 .literal.rsn_keymgmt
                0x000000004021b684        0x0 /home/wall/projects/IoT/mcu/platforms/espressif/esp8266_sdk/2.2.1/ESP8266_NONOS_SDK_2.2.1/lib/libnet80211.a(ieee80211_input.o)
 .literal.ieee80211_parse_wpa
                0x000000004021b684        0x0 /home/wall/projects/IoT/mcu/platforms/espressif/esp8266_sdk/2.2.1/ESP8266_NONOS_SDK_2.2.1/lib/libnet80211.a(ieee80211_input.o)
 .literal.ieee80211_parse_rsn
                0x000000004021b684        0x0 /home/wall/projects/IoT/mcu/platforms/espressif/esp8266_sdk/2.2.1/ESP8266_NONOS_SDK_2.2.1/lib/libnet80211.a(ieee80211_input.o)
 .literal.ieee80211_parse_action
                0x000000004021b684        0x0 /home/wall/projects/IoT/mcu/platforms/espressif/esp8266_sdk/2.2.1/ESP8266_NONOS_SDK_2.2.1/lib/libnet80211.a(ieee80211_input.o)
 .literal.ieee80211_setup_rateset
                0x000000004021b684        0x0 /home/wall/projects/IoT/mcu/platforms/espressif/esp8266_sdk/2.2.1/ESP8266_NONOS_SDK_2.2.1/lib/libnet80211.a(ieee80211_input.o)
 *fill*         0x000000004021b684        0x0 
 *fill*         0x000000004021b684        0x0 
 *fill*         0x000000004021b684        0x0 
 *fill*         0x000000004021b684        0x0 
 *fill*         0x000000004021b684        0x0 
 *fill*         0x000000004021b684        0x0 
 .text.ieee80211_setup_rateset
                0x000000004021b684        0x4 /home/wall/projects/IoT/mcu/platforms/espressif/esp8266_sdk/2.2.1/ESP8266_NONOS_SDK_2.2.1/lib/libnet80211.a(ieee80211_input.o)
                0x000000004021b684                ieee80211_setup_rateset
 .literal.ieee80211_mesh_quick_init
                0x000000004021b688        0x0 /home/wall/projects/IoT/mcu/platforms/espressif/esp8266_sdk/2.2.1/ESP8266_NONOS_SDK_2.2.1/lib/libnet80211.a(ieee80211_mesh_quick.o)
 .literal.ieee80211_mesh_quick_deinit
                0x000000004021b688        0x0 /home/wall/projects/IoT/mcu/platforms/espressif/esp8266_sdk/2.2.1/ESP8266_NONOS_SDK_2.2.1/lib/libnet80211.a(ieee80211_mesh_quick.o)
 .literal.ieee80211_mesh_quick_set
                0x000000004021b688        0x0 /home/wall/projects/IoT/mcu/platforms/espressif/esp8266_sdk/2.2.1/ESP8266_NONOS_SDK_2.2.1/lib/libnet80211.a(ieee80211_mesh_quick.o)
 .literal.ieee80211_mesh_quick_get
                0x000000004021b688        0x0 /home/wall/projects/IoT/mcu/platforms/espressif/esp8266_sdk/2.2.1/ESP8266_NONOS_SDK_2.2.1/lib/libnet80211.a(ieee80211_mesh_quick.o)
 .literal.ieee80211_mesh_quick_ie_add
                0x000000004021b688        0x0 /home/wall/projects/IoT/mcu/platforms/espressif/esp8266_sdk/2.2.1/ESP8266_NONOS_SDK_2.2.1/lib/libnet80211.a(ieee80211_mesh_quick.o)
 *fill*         0x000000004021b688        0x0 
 *fill*         0x000000004021b688        0x0 
 .literal.ieee80211_output_pbuf
                0x000000004021b688        0x0 /home/wall/projects/IoT/mcu/platforms/espressif/esp8266_sdk/2.2.1/ESP8266_NONOS_SDK_2.2.1/lib/libnet80211.a(ieee80211_output.o)
 .literal.ieee80211_send_setup
                0x000000004021b688        0x0 /home/wall/projects/IoT/mcu/platforms/espressif/esp8266_sdk/2.2.1/ESP8266_NONOS_SDK_2.2.1/lib/libnet80211.a(ieee80211_output.o)
 .literal.ieee80211_mgmt_output
                0x000000004021b688        0x0 /home/wall/projects/IoT/mcu/platforms/espressif/esp8266_sdk/2.2.1/ESP8266_NONOS_SDK_2.2.1/lib/libnet80211.a(ieee80211_output.o)
 .literal.ieee80211_tx_mgt_cb
                0x000000004021b688        0x0 /home/wall/projects/IoT/mcu/platforms/espressif/esp8266_sdk/2.2.1/ESP8266_NONOS_SDK_2.2.1/lib/libnet80211.a(ieee80211_output.o)
 .literal.ieee80211_send_nulldata
                0x000000004021b688        0x0 /home/wall/projects/IoT/mcu/platforms/espressif/esp8266_sdk/2.2.1/ESP8266_NONOS_SDK_2.2.1/lib/libnet80211.a(ieee80211_output.o)
 .literal.ieee80211_encap_esfbuf
                0x000000004021b688        0x0 /home/wall/projects/IoT/mcu/platforms/espressif/esp8266_sdk/2.2.1/ESP8266_NONOS_SDK_2.2.1/lib/libnet80211.a(ieee80211_output.o)
 .literal.ieee80211_classify_pbuf
                0x000000004021b688        0x0 /home/wall/projects/IoT/mcu/platforms/espressif/esp8266_sdk/2.2.1/ESP8266_NONOS_SDK_2.2.1/lib/libnet80211.a(ieee80211_output.o)
 .literal.ieee80211_add_rates
                0x000000004021b688        0x0 /home/wall/projects/IoT/mcu/platforms/espressif/esp8266_sdk/2.2.1/ESP8266_NONOS_SDK_2.2.1/lib/libnet80211.a(ieee80211_output.o)
 .literal.ieee80211_add_xrates
                0x000000004021b688        0x0 /home/wall/projects/IoT/mcu/platforms/espressif/esp8266_sdk/2.2.1/ESP8266_NONOS_SDK_2.2.1/lib/libnet80211.a(ieee80211_output.o)
 .literal.ieee80211_add_ssid
                0x000000004021b688        0x0 /home/wall/projects/IoT/mcu/platforms/espressif/esp8266_sdk/2.2.1/ESP8266_NONOS_SDK_2.2.1/lib/libnet80211.a(ieee80211_output.o)
 .literal.ieee80211_add_erp
                0x000000004021b688        0x0 /home/wall/projects/IoT/mcu/platforms/espressif/esp8266_sdk/2.2.1/ESP8266_NONOS_SDK_2.2.1/lib/libnet80211.a(ieee80211_output.o)
 .literal.add_appie
                0x000000004021b688        0x0 /home/wall/projects/IoT/mcu/platforms/espressif/esp8266_sdk/2.2.1/ESP8266_NONOS_SDK_2.2.1/lib/libnet80211.a(ieee80211_output.o)
 .literal.ieee80211_add_wme_info
                0x000000004021b688        0x0 /home/wall/projects/IoT/mcu/platforms/espressif/esp8266_sdk/2.2.1/ESP8266_NONOS_SDK_2.2.1/lib/libnet80211.a(ieee80211_output.o)
 .literal.ieee80211_add_csa
                0x000000004021b688        0x0 /home/wall/projects/IoT/mcu/platforms/espressif/esp8266_sdk/2.2.1/ESP8266_NONOS_SDK_2.2.1/lib/libnet80211.a(ieee80211_output.o)
 .literal.ieee80211_send_probereq
                0x000000004021b688        0x0 /home/wall/projects/IoT/mcu/platforms/espressif/esp8266_sdk/2.2.1/ESP8266_NONOS_SDK_2.2.1/lib/libnet80211.a(ieee80211_output.o)
 .literal.ieee80211_getcapinfo
                0x000000004021b688        0x0 /home/wall/projects/IoT/mcu/platforms/espressif/esp8266_sdk/2.2.1/ESP8266_NONOS_SDK_2.2.1/lib/libnet80211.a(ieee80211_output.o)
 .literal.ieee80211_send_mgmt
                0x000000004021b688        0x0 /home/wall/projects/IoT/mcu/platforms/espressif/esp8266_sdk/2.2.1/ESP8266_NONOS_SDK_2.2.1/lib/libnet80211.a(ieee80211_output.o)
 .literal.ieee80211_is_tx_allowed
                0x000000004021b688        0x0 /home/wall/projects/IoT/mcu/platforms/espressif/esp8266_sdk/2.2.1/ESP8266_NONOS_SDK_2.2.1/lib/libnet80211.a(ieee80211_output.o)
 .literal.ieee80211_alloc_proberesp
                0x000000004021b688        0x0 /home/wall/projects/IoT/mcu/platforms/espressif/esp8266_sdk/2.2.1/ESP8266_NONOS_SDK_2.2.1/lib/libnet80211.a(ieee80211_output.o)
 .literal.ieee80211_send_proberesp
                0x000000004021b688        0x0 /home/wall/projects/IoT/mcu/platforms/espressif/esp8266_sdk/2.2.1/ESP8266_NONOS_SDK_2.2.1/lib/libnet80211.a(ieee80211_output.o)
 .literal.ieee80211_alloc_deauth
                0x000000004021b688        0x0 /home/wall/projects/IoT/mcu/platforms/espressif/esp8266_sdk/2.2.1/ESP8266_NONOS_SDK_2.2.1/lib/libnet80211.a(ieee80211_output.o)
 .literal.ieee80211_send_deauth
                0x000000004021b688        0x0 /home/wall/projects/IoT/mcu/platforms/espressif/esp8266_sdk/2.2.1/ESP8266_NONOS_SDK_2.2.1/lib/libnet80211.a(ieee80211_output.o)
 .literal.ieee80211_freedom_output
                0x000000004021b688        0x0 /home/wall/projects/IoT/mcu/platforms/espressif/esp8266_sdk/2.2.1/ESP8266_NONOS_SDK_2.2.1/lib/libnet80211.a(ieee80211_output.o)
 .literal.ieee80211_beacon_construct
                0x000000004021b688        0x0 /home/wall/projects/IoT/mcu/platforms/espressif/esp8266_sdk/2.2.1/ESP8266_NONOS_SDK_2.2.1/lib/libnet80211.a(ieee80211_output.o)
 .literal.ieee80211_beacon_alloc
                0x000000004021b688        0x0 /home/wall/projects/IoT/mcu/platforms/espressif/esp8266_sdk/2.2.1/ESP8266_NONOS_SDK_2.2.1/lib/libnet80211.a(ieee80211_output.o)
 *fill*         0x000000004021b688        0x0 
 *fill*         0x000000004021b688        0x0 
 *fill*         0x000000004021b688        0x0 
 .text.ieee80211_tx_mgt_cb
                0x000000004021b688        0x2 /home/wall/projects/IoT/mcu/platforms/espressif/esp8266_sdk/2.2.1/ESP8266_NONOS_SDK_2.2.1/lib/libnet80211.a(ieee80211_output.o)
                0x000000004021b688                ieee80211_tx_mgt_cb
 *fill*         0x000000004021b68a        0x0 
 *fill*         0x000000004021b68a        0x0 
 *fill*         0x000000004021b68a        0x0 
 *fill*         0x000000004021b68a        0x0 
 *fill*         0x000000004021b68a        0x0 
 *fill*         0x000000004021b68a        0x2 
 .text.ieee80211_add_erp
                0x000000004021b68c       0x25 /home/wall/projects/IoT/mcu/platforms/espressif/esp8266_sdk/2.2.1/ESP8266_NONOS_SDK_2.2.1/lib/libnet80211.a(ieee80211_output.o)
 *fill*         0x000000004021b6b1        0x0 
 *fill*         0x000000004021b6b1        0x0 
 *fill*         0x000000004021b6b1        0x0 
 *fill*         0x000000004021b6b1        0x3 
 .text.ieee80211_is_tx_allowed
                0x000000004021b6b4       0x12 /home/wall/projects/IoT/mcu/platforms/espressif/esp8266_sdk/2.2.1/ESP8266_NONOS_SDK_2.2.1/lib/libnet80211.a(ieee80211_output.o)
 *fill*         0x000000004021b6c6        0x0 
 *fill*         0x000000004021b6c6        0x0 
 *fill*         0x000000004021b6c6        0x0 
 *fill*         0x000000004021b6c6        0x0 
 *fill*         0x000000004021b6c6        0x0 
 *fill*         0x000000004021b6c6        0x0 
 *fill*         0x000000004021b6c6        0x0 
 *fill*         0x000000004021b6c6        0x2 
 .literal.ieee80211_phy_init
                0x000000004021b6c8        0x0 /home/wall/projects/IoT/mcu/platforms/espressif/esp8266_sdk/2.2.1/ESP8266_NONOS_SDK_2.2.1/lib/libnet80211.a(ieee80211_phy.o)
 .literal.ieee80211_phy_type_get
                0x000000004021b6c8        0x0 /home/wall/projects/IoT/mcu/platforms/espressif/esp8266_sdk/2.2.1/ESP8266_NONOS_SDK_2.2.1/lib/libnet80211.a(ieee80211_phy.o)
 .literal.ieee80211_setup_ratetable
                0x000000004021b6c8        0x0 /home/wall/projects/IoT/mcu/platforms/espressif/esp8266_sdk/2.2.1/ESP8266_NONOS_SDK_2.2.1/lib/libnet80211.a(ieee80211_phy.o)
 *fill*         0x000000004021b6c8        0x0 
 .literal.ieee80211_psq_init
                0x000000004021b6c8        0x0 /home/wall/projects/IoT/mcu/platforms/espressif/esp8266_sdk/2.2.1/ESP8266_NONOS_SDK_2.2.1/lib/libnet80211.a(ieee80211_power.o)
 .literal.ieee80211_psq_cleanup
                0x000000004021b6c8        0x0 /home/wall/projects/IoT/mcu/platforms/espressif/esp8266_sdk/2.2.1/ESP8266_NONOS_SDK_2.2.1/lib/libnet80211.a(ieee80211_power.o)
 .literal.ieee80211_set_tim
                0x000000004021b6c8        0x0 /home/wall/projects/IoT/mcu/platforms/espressif/esp8266_sdk/2.2.1/ESP8266_NONOS_SDK_2.2.1/lib/libnet80211.a(ieee80211_power.o)
 .literal.ieee80211_pwrsave
                0x000000004021b6c8        0x0 /home/wall/projects/IoT/mcu/platforms/espressif/esp8266_sdk/2.2.1/ESP8266_NONOS_SDK_2.2.1/lib/libnet80211.a(ieee80211_power.o)
 .literal.pwrsave_flushq
                0x000000004021b6c8        0x0 /home/wall/projects/IoT/mcu/platforms/espressif/esp8266_sdk/2.2.1/ESP8266_NONOS_SDK_2.2.1/lib/libnet80211.a(ieee80211_power.o)
 .literal.ieee80211_node_pwrsave
                0x000000004021b6c8        0x0 /home/wall/projects/IoT/mcu/platforms/espressif/esp8266_sdk/2.2.1/ESP8266_NONOS_SDK_2.2.1/lib/libnet80211.a(ieee80211_power.o)
 .text.ieee80211_psq_cleanup
                0x000000004021b6c8        0x2 /home/wall/projects/IoT/mcu/platforms/espressif/esp8266_sdk/2.2.1/ESP8266_NONOS_SDK_2.2.1/lib/libnet80211.a(ieee80211_power.o)
                0x000000004021b6c8                ieee80211_psq_cleanup
 *fill*         0x000000004021b6ca        0x0 
 *fill*         0x000000004021b6ca        0x0 
 *fill*         0x000000004021b6ca        0x2 
 .literal.ieee80211_proto_attach
                0x000000004021b6cc        0x0 /home/wall/projects/IoT/mcu/platforms/espressif/esp8266_sdk/2.2.1/ESP8266_NONOS_SDK_2.2.1/lib/libnet80211.a(ieee80211_proto.o)
 .literal.ieee80211_set_shortslottime
                0x000000004021b6cc        0x0 /home/wall/projects/IoT/mcu/platforms/espressif/esp8266_sdk/2.2.1/ESP8266_NONOS_SDK_2.2.1/lib/libnet80211.a(ieee80211_proto.o)
 .literal.ieee80211_iserp_rateset
                0x000000004021b6cc        0x0 /home/wall/projects/IoT/mcu/platforms/espressif/esp8266_sdk/2.2.1/ESP8266_NONOS_SDK_2.2.1/lib/libnet80211.a(ieee80211_proto.o)
 .literal.ieee80211_wme_initparams
                0x000000004021b6cc        0x0 /home/wall/projects/IoT/mcu/platforms/espressif/esp8266_sdk/2.2.1/ESP8266_NONOS_SDK_2.2.1/lib/libnet80211.a(ieee80211_proto.o)
 .literal.ieee80211_wme_updateparams
                0x000000004021b6cc        0x0 /home/wall/projects/IoT/mcu/platforms/espressif/esp8266_sdk/2.2.1/ESP8266_NONOS_SDK_2.2.1/lib/libnet80211.a(ieee80211_proto.o)
 .literal.ieee80211_mlme_connect_bss
                0x000000004021b6cc        0x0 /home/wall/projects/IoT/mcu/platforms/espressif/esp8266_sdk/2.2.1/ESP8266_NONOS_SDK_2.2.1/lib/libnet80211.a(ieee80211_proto.o)
 *fill*         0x000000004021b6cc        0x0 
 .text.ieee80211_set_shortslottime
                0x000000004021b6cc       0x15 /home/wall/projects/IoT/mcu/platforms/espressif/esp8266_sdk/2.2.1/ESP8266_NONOS_SDK_2.2.1/lib/libnet80211.a(ieee80211_proto.o)
                0x000000004021b6cc                ieee80211_set_shortslottime
 *fill*         0x000000004021b6e1        0x3 
 .text.ieee80211_wme_initparams
                0x000000004021b6e4        0x2 /home/wall/projects/IoT/mcu/platforms/espressif/esp8266_sdk/2.2.1/ESP8266_NONOS_SDK_2.2.1/lib/libnet80211.a(ieee80211_proto.o)
                0x000000004021b6e4                ieee80211_wme_initparams
 *fill*         0x000000004021b6e6        0x2 
 .text.ieee80211_wme_updateparams
                0x000000004021b6e8        0x2 /home/wall/projects/IoT/mcu/platforms/espressif/esp8266_sdk/2.2.1/ESP8266_NONOS_SDK_2.2.1/lib/libnet80211.a(ieee80211_proto.o)
                0x000000004021b6e8                ieee80211_wme_updateparams
 *fill*         0x000000004021b6ea        0x0 
 *fill*         0x000000004021b6ea        0x2 
 .literal.ieee80211_regdomain_attach
                0x000000004021b6ec        0x0 /home/wall/projects/IoT/mcu/platforms/espressif/esp8266_sdk/2.2.1/ESP8266_NONOS_SDK_2.2.1/lib/libnet80211.a(ieee80211_regdomain.o)
 .literal.ieee80211_regdomain_update
                0x000000004021b6ec        0x0 /home/wall/projects/IoT/mcu/platforms/espressif/esp8266_sdk/2.2.1/ESP8266_NONOS_SDK_2.2.1/lib/libnet80211.a(ieee80211_regdomain.o)
 .literal.ieee80211_regdomain_get_country
                0x000000004021b6ec        0x0 /home/wall/projects/IoT/mcu/platforms/espressif/esp8266_sdk/2.2.1/ESP8266_NONOS_SDK_2.2.1/lib/libnet80211.a(ieee80211_regdomain.o)
 .literal.ieee80211_add_countryie
                0x000000004021b6ec        0x0 /home/wall/projects/IoT/mcu/platforms/espressif/esp8266_sdk/2.2.1/ESP8266_NONOS_SDK_2.2.1/lib/libnet80211.a(ieee80211_regdomain.o)
 .literal.ieee80211_regdomain_max_chan
                0x000000004021b6ec        0x0 /home/wall/projects/IoT/mcu/platforms/espressif/esp8266_sdk/2.2.1/ESP8266_NONOS_SDK_2.2.1/lib/libnet80211.a(ieee80211_regdomain.o)
 .literal.ieee80211_regdomain_min_chan
                0x000000004021b6ec        0x0 /home/wall/projects/IoT/mcu/platforms/espressif/esp8266_sdk/2.2.1/ESP8266_NONOS_SDK_2.2.1/lib/libnet80211.a(ieee80211_regdomain.o)
 .literal.ieee80211_regdomain_chan_in_range
                0x000000004021b6ec        0x0 /home/wall/projects/IoT/mcu/platforms/espressif/esp8266_sdk/2.2.1/ESP8266_NONOS_SDK_2.2.1/lib/libnet80211.a(ieee80211_regdomain.o)
 .literal.ieee80211_regdomain_is_active_scan
                0x000000004021b6ec        0x0 /home/wall/projects/IoT/mcu/platforms/espressif/esp8266_sdk/2.2.1/ESP8266_NONOS_SDK_2.2.1/lib/libnet80211.a(ieee80211_regdomain.o)
 .text.ieee80211_regdomain_attach
                0x000000004021b6ec       0x21 /home/wall/projects/IoT/mcu/platforms/espressif/esp8266_sdk/2.2.1/ESP8266_NONOS_SDK_2.2.1/lib/libnet80211.a(ieee80211_regdomain.o)
                0x000000004021b6ec                ieee80211_regdomain_attach
 *fill*         0x000000004021b70d        0x0 
 *fill*         0x000000004021b70d        0x0 
 *fill*         0x000000004021b70d        0x0 
 *fill*         0x000000004021b70d        0x0 
 *fill*         0x000000004021b70d        0x0 
 *fill*         0x000000004021b70d        0x0 
 *fill*         0x000000004021b70d        0x0 
 *fill*         0x000000004021b70d        0x3 
 .literal.ieee80211_rfid_locp_recv_open
                0x000000004021b710        0x0 /home/wall/projects/IoT/mcu/platforms/espressif/esp8266_sdk/2.2.1/ESP8266_NONOS_SDK_2.2.1/lib/libnet80211.a(ieee80211_rfid.o)
 .literal.ieee80211_rfid_locp_recv_close
                0x000000004021b710        0x0 /home/wall/projects/IoT/mcu/platforms/espressif/esp8266_sdk/2.2.1/ESP8266_NONOS_SDK_2.2.1/lib/libnet80211.a(ieee80211_rfid.o)
 .literal.ieee80211_rfid_locp_recv_reset
                0x000000004021b710        0x0 /home/wall/projects/IoT/mcu/platforms/espressif/esp8266_sdk/2.2.1/ESP8266_NONOS_SDK_2.2.1/lib/libnet80211.a(ieee80211_rfid.o)
 .literal.ieee80211_rfid_locp_recv
                0x000000004021b710        0x0 /home/wall/projects/IoT/mcu/platforms/espressif/esp8266_sdk/2.2.1/ESP8266_NONOS_SDK_2.2.1/lib/libnet80211.a(ieee80211_rfid.o)
 .literal.register_ieee80211_rfid_locp_recv_cb
                0x000000004021b710        0x0 /home/wall/projects/IoT/mcu/platforms/espressif/esp8266_sdk/2.2.1/ESP8266_NONOS_SDK_2.2.1/lib/libnet80211.a(ieee80211_rfid.o)
 .literal.unregister_ieee80211_rfid_locp_recv_cb
                0x000000004021b710        0x0 /home/wall/projects/IoT/mcu/platforms/espressif/esp8266_sdk/2.2.1/ESP8266_NONOS_SDK_2.2.1/lib/libnet80211.a(ieee80211_rfid.o)
 *fill*         0x000000004021b710        0x0 
 *fill*         0x000000004021b710        0x0 
 *fill*         0x000000004021b710        0x0 
 *fill*         0x000000004021b710        0x0 
 *fill*         0x000000004021b710        0x0 
 *fill*         0x000000004021b710        0x0 
 .literal.ieee80211_scan_attach
                0x000000004021b710        0x0 /home/wall/projects/IoT/mcu/platforms/espressif/esp8266_sdk/2.2.1/ESP8266_NONOS_SDK_2.2.1/lib/libnet80211.a(ieee80211_scan.o)
 .literal.slp_wk_cpu_scan_wait_timout
                0x000000004021b710        0x0 /home/wall/projects/IoT/mcu/platforms/espressif/esp8266_sdk/2.2.1/ESP8266_NONOS_SDK_2.2.1/lib/libnet80211.a(ieee80211_scan.o)
 .literal.freq_changle_enable_softap_link_check
                0x000000004021b710        0x0 /home/wall/projects/IoT/mcu/platforms/espressif/esp8266_sdk/2.2.1/ESP8266_NONOS_SDK_2.2.1/lib/libnet80211.a(ieee80211_scan.o)
 .literal.freq_changle_scan_start
                0x000000004021b710        0x0 /home/wall/projects/IoT/mcu/platforms/espressif/esp8266_sdk/2.2.1/ESP8266_NONOS_SDK_2.2.1/lib/libnet80211.a(ieee80211_scan.o)
 .literal.scan_start
                0x000000004021b710        0x0 /home/wall/projects/IoT/mcu/platforms/espressif/esp8266_sdk/2.2.1/ESP8266_NONOS_SDK_2.2.1/lib/libnet80211.a(ieee80211_scan.o)
 .literal.scan_pm_channel_op_cb
                0x000000004021b710        0x0 /home/wall/projects/IoT/mcu/platforms/espressif/esp8266_sdk/2.2.1/ESP8266_NONOS_SDK_2.2.1/lib/libnet80211.a(ieee80211_scan.o)
 .literal.scan_next_channel
                0x000000004021b710        0x0 /home/wall/projects/IoT/mcu/platforms/espressif/esp8266_sdk/2.2.1/ESP8266_NONOS_SDK_2.2.1/lib/libnet80211.a(ieee80211_scan.o)
 .literal.scan_perform
                0x000000004021b710        0x0 /home/wall/projects/IoT/mcu/platforms/espressif/esp8266_sdk/2.2.1/ESP8266_NONOS_SDK_2.2.1/lib/libnet80211.a(ieee80211_scan.o)
 .literal.scan_op_start
                0x000000004021b710        0x0 /home/wall/projects/IoT/mcu/platforms/espressif/esp8266_sdk/2.2.1/ESP8266_NONOS_SDK_2.2.1/lib/libnet80211.a(ieee80211_scan.o)
 .literal.scan_op_end
                0x000000004021b710        0x0 /home/wall/projects/IoT/mcu/platforms/espressif/esp8266_sdk/2.2.1/ESP8266_NONOS_SDK_2.2.1/lib/libnet80211.a(ieee80211_scan.o)
 .literal.scan_cancel
                0x000000004021b710        0x0 /home/wall/projects/IoT/mcu/platforms/espressif/esp8266_sdk/2.2.1/ESP8266_NONOS_SDK_2.2.1/lib/libnet80211.a(ieee80211_scan.o)
 .literal.scan_done
                0x000000004021b710        0x0 /home/wall/projects/IoT/mcu/platforms/espressif/esp8266_sdk/2.2.1/ESP8266_NONOS_SDK_2.2.1/lib/libnet80211.a(ieee80211_scan.o)
 .literal.scan_add_bssid
                0x000000004021b710        0x0 /home/wall/projects/IoT/mcu/platforms/espressif/esp8266_sdk/2.2.1/ESP8266_NONOS_SDK_2.2.1/lib/libnet80211.a(ieee80211_scan.o)
 .literal.scan_remove_bssid
                0x000000004021b710        0x0 /home/wall/projects/IoT/mcu/platforms/espressif/esp8266_sdk/2.2.1/ESP8266_NONOS_SDK_2.2.1/lib/libnet80211.a(ieee80211_scan.o)
 .literal.scan_hidden_ssid
                0x000000004021b710        0x0 /home/wall/projects/IoT/mcu/platforms/espressif/esp8266_sdk/2.2.1/ESP8266_NONOS_SDK_2.2.1/lib/libnet80211.a(ieee80211_scan.o)
 .literal.scan_set_act_duration
                0x000000004021b710        0x0 /home/wall/projects/IoT/mcu/platforms/espressif/esp8266_sdk/2.2.1/ESP8266_NONOS_SDK_2.2.1/lib/libnet80211.a(ieee80211_scan.o)
 .literal.scan_set_pas_duration
                0x000000004021b710        0x0 /home/wall/projects/IoT/mcu/platforms/espressif/esp8266_sdk/2.2.1/ESP8266_NONOS_SDK_2.2.1/lib/libnet80211.a(ieee80211_scan.o)
 .literal.scan_add_probe_ssid
                0x000000004021b710        0x0 /home/wall/projects/IoT/mcu/platforms/espressif/esp8266_sdk/2.2.1/ESP8266_NONOS_SDK_2.2.1/lib/libnet80211.a(ieee80211_scan.o)
 .literal.scan_remove_probe_ssid
                0x000000004021b710        0x0 /home/wall/projects/IoT/mcu/platforms/espressif/esp8266_sdk/2.2.1/ESP8266_NONOS_SDK_2.2.1/lib/libnet80211.a(ieee80211_scan.o)
 .literal.scan_send_probe
                0x000000004021b710        0x0 /home/wall/projects/IoT/mcu/platforms/espressif/esp8266_sdk/2.2.1/ESP8266_NONOS_SDK_2.2.1/lib/libnet80211.a(ieee80211_scan.o)
 .literal.scan_get_next_channel
                0x000000004021b710        0x0 /home/wall/projects/IoT/mcu/platforms/espressif/esp8266_sdk/2.2.1/ESP8266_NONOS_SDK_2.2.1/lib/libnet80211.a(ieee80211_scan.o)
 .literal.scan_clear_channles
                0x000000004021b710        0x0 /home/wall/projects/IoT/mcu/platforms/espressif/esp8266_sdk/2.2.1/ESP8266_NONOS_SDK_2.2.1/lib/libnet80211.a(ieee80211_scan.o)
 .literal.scan_enter_oper_channel
                0x000000004021b710        0x0 /home/wall/projects/IoT/mcu/platforms/espressif/esp8266_sdk/2.2.1/ESP8266_NONOS_SDK_2.2.1/lib/libnet80211.a(ieee80211_scan.o)
 .literal.scan_inter_channel_timeout
                0x000000004021b710        0x0 /home/wall/projects/IoT/mcu/platforms/espressif/esp8266_sdk/2.2.1/ESP8266_NONOS_SDK_2.2.1/lib/libnet80211.a(ieee80211_scan.o)
 .literal.scan_set_desChan
                0x000000004021b710        0x0 /home/wall/projects/IoT/mcu/platforms/espressif/esp8266_sdk/2.2.1/ESP8266_NONOS_SDK_2.2.1/lib/libnet80211.a(ieee80211_scan.o)
 .literal.scan_get_type
                0x000000004021b710        0x0 /home/wall/projects/IoT/mcu/platforms/espressif/esp8266_sdk/2.2.1/ESP8266_NONOS_SDK_2.2.1/lib/libnet80211.a(ieee80211_scan.o)
 .literal.cannel_scan_connect_state
                0x000000004021b710        0x0 /home/wall/projects/IoT/mcu/platforms/espressif/esp8266_sdk/2.2.1/ESP8266_NONOS_SDK_2.2.1/lib/libnet80211.a(ieee80211_scan.o)
 .literal.scan_connect_state
                0x000000004021b710        0x0 /home/wall/projects/IoT/mcu/platforms/espressif/esp8266_sdk/2.2.1/ESP8266_NONOS_SDK_2.2.1/lib/libnet80211.a(ieee80211_scan.o)
 .literal.scan_check_hidden
                0x000000004021b710        0x0 /home/wall/projects/IoT/mcu/platforms/espressif/esp8266_sdk/2.2.1/ESP8266_NONOS_SDK_2.2.1/lib/libnet80211.a(ieee80211_scan.o)
 .literal.scan_profile_check
                0x000000004021b710        0x0 /home/wall/projects/IoT/mcu/platforms/espressif/esp8266_sdk/2.2.1/ESP8266_NONOS_SDK_2.2.1/lib/libnet80211.a(ieee80211_scan.o)
 .literal.clear_bss_queue
                0x000000004021b710        0x0 /home/wall/projects/IoT/mcu/platforms/espressif/esp8266_sdk/2.2.1/ESP8266_NONOS_SDK_2.2.1/lib/libnet80211.a(ieee80211_scan.o)
 .literal.check_bss_queue
                0x000000004021b710        0x0 /home/wall/projects/IoT/mcu/platforms/espressif/esp8266_sdk/2.2.1/ESP8266_NONOS_SDK_2.2.1/lib/libnet80211.a(ieee80211_scan.o)
 .literal.cipher_type_map
                0x000000004021b710        0x0 /home/wall/projects/IoT/mcu/platforms/espressif/esp8266_sdk/2.2.1/ESP8266_NONOS_SDK_2.2.1/lib/libnet80211.a(ieee80211_scan.o)
 .literal.rate_to_phy_mode
                0x000000004021b710        0x0 /home/wall/projects/IoT/mcu/platforms/espressif/esp8266_sdk/2.2.1/ESP8266_NONOS_SDK_2.2.1/lib/libnet80211.a(ieee80211_scan.o)
 .literal.scan_add_ssid
                0x000000004021b710        0x0 /home/wall/projects/IoT/mcu/platforms/espressif/esp8266_sdk/2.2.1/ESP8266_NONOS_SDK_2.2.1/lib/libnet80211.a(ieee80211_scan.o)
 .literal.scan_parse_beacon
                0x000000004021b710        0x0 /home/wall/projects/IoT/mcu/platforms/espressif/esp8266_sdk/2.2.1/ESP8266_NONOS_SDK_2.2.1/lib/libnet80211.a(ieee80211_scan.o)
 *fill*         0x000000004021b710        0x0 
 *fill*         0x000000004021b710        0x0 
 *fill*         0x000000004021b710        0x0 
 *fill*         0x000000004021b710        0x0 
 *fill*         0x000000004021b710        0x0 
 *fill*         0x000000004021b710        0x0 
 *fill*         0x000000004021b710        0x0 
 *fill*         0x000000004021b710        0x0 
 *fill*         0x000000004021b710        0x0 
 *fill*         0x000000004021b710        0x0 
 *fill*         0x000000004021b710        0x0 
 *fill*         0x000000004021b710        0x0 
 *fill*         0x000000004021b710        0x0 
 *fill*         0x000000004021b710        0x0 
 *fill*         0x000000004021b710        0x0 
 *fill*         0x000000004021b710        0x0 
 *fill*         0x000000004021b710        0x0 
 *fill*         0x000000004021b710        0x0 
 *fill*         0x000000004021b710        0x0 
 *fill*         0x000000004021b710        0x0 
 *fill*         0x000000004021b710        0x0 
 *fill*         0x000000004021b710        0x0 
 *fill*         0x000000004021b710        0x0 
 *fill*         0x000000004021b710        0x0 
 .text.scan_check_hidden
                0x000000004021b710       0x1e /home/wall/projects/IoT/mcu/platforms/espressif/esp8266_sdk/2.2.1/ESP8266_NONOS_SDK_2.2.1/lib/libnet80211.a(ieee80211_scan.o)
                0x000000004021b710                scan_check_hidden
 *fill*         0x000000004021b72e        0x0 
 *fill*         0x000000004021b72e        0x0 
 *fill*         0x000000004021b72e        0x2 
 .text.cipher_type_map
                0x000000004021b730       0x2f /home/wall/projects/IoT/mcu/platforms/espressif/esp8266_sdk/2.2.1/ESP8266_NONOS_SDK_2.2.1/lib/libnet80211.a(ieee80211_scan.o)
 *fill*         0x000000004021b75f        0x1 
 .text.rate_to_phy_mode
                0x000000004021b760       0x5b /home/wall/projects/IoT/mcu/platforms/espressif/esp8266_sdk/2.2.1/ESP8266_NONOS_SDK_2.2.1/lib/libnet80211.a(ieee80211_scan.o)
 *fill*         0x000000004021b7bb        0x0 
 *fill*         0x000000004021b7bb        0x0 
 *fill*         0x000000004021b7bb        0x1 
 .literal.save_rssi
                0x000000004021b7bc        0x0 /home/wall/projects/IoT/mcu/platforms/espressif/esp8266_sdk/2.2.1/ESP8266_NONOS_SDK_2.2.1/lib/libnet80211.a(ieee80211_sta.o)
 .literal.max_rssi
                0x000000004021b7bc        0x0 /home/wall/projects/IoT/mcu/platforms/espressif/esp8266_sdk/2.2.1/ESP8266_NONOS_SDK_2.2.1/lib/libnet80211.a(ieee80211_sta.o)
 .literal.sta_authretry
                0x000000004021b7bc        0x0 /home/wall/projects/IoT/mcu/platforms/espressif/esp8266_sdk/2.2.1/ESP8266_NONOS_SDK_2.2.1/lib/libnet80211.a(ieee80211_sta.o)
 .literal.sta_status_set
                0x000000004021b7bc        0x0 /home/wall/projects/IoT/mcu/platforms/espressif/esp8266_sdk/2.2.1/ESP8266_NONOS_SDK_2.2.1/lib/libnet80211.a(ieee80211_sta.o)
 .literal.ieee80211_sta_new_state
                0x000000004021b7bc        0x0 /home/wall/projects/IoT/mcu/platforms/espressif/esp8266_sdk/2.2.1/ESP8266_NONOS_SDK_2.2.1/lib/libnet80211.a(ieee80211_sta.o)
 .literal.sta_input
                0x000000004021b7bc        0x0 /home/wall/projects/IoT/mcu/platforms/espressif/esp8266_sdk/2.2.1/ESP8266_NONOS_SDK_2.2.1/lib/libnet80211.a(ieee80211_sta.o)
 .literal.sta_auth_open
                0x000000004021b7bc        0x0 /home/wall/projects/IoT/mcu/platforms/espressif/esp8266_sdk/2.2.1/ESP8266_NONOS_SDK_2.2.1/lib/libnet80211.a(ieee80211_sta.o)
 .literal.sta_auth_shared
                0x000000004021b7bc        0x0 /home/wall/projects/IoT/mcu/platforms/espressif/esp8266_sdk/2.2.1/ESP8266_NONOS_SDK_2.2.1/lib/libnet80211.a(ieee80211_sta.o)
 .literal.ieee80211_parse_wmeparams
                0x000000004021b7bc        0x0 /home/wall/projects/IoT/mcu/platforms/espressif/esp8266_sdk/2.2.1/ESP8266_NONOS_SDK_2.2.1/lib/libnet80211.a(ieee80211_sta.o)
 .literal.sta_rx_csa
                0x000000004021b7bc        0x0 /home/wall/projects/IoT/mcu/platforms/espressif/esp8266_sdk/2.2.1/ESP8266_NONOS_SDK_2.2.1/lib/libnet80211.a(ieee80211_sta.o)
 .literal.sta_recv_mgmt
                0x000000004021b7bc        0x0 /home/wall/projects/IoT/mcu/platforms/espressif/esp8266_sdk/2.2.1/ESP8266_NONOS_SDK_2.2.1/lib/libnet80211.a(ieee80211_sta.o)
 .literal.sta_recv_assoc
                0x000000004021b7bc        0x0 /home/wall/projects/IoT/mcu/platforms/espressif/esp8266_sdk/2.2.1/ESP8266_NONOS_SDK_2.2.1/lib/libnet80211.a(ieee80211_sta.o)
 .literal.wifi_station_start
                0x000000004021b7bc        0x0 /home/wall/projects/IoT/mcu/platforms/espressif/esp8266_sdk/2.2.1/ESP8266_NONOS_SDK_2.2.1/lib/libnet80211.a(ieee80211_sta.o)
 .literal.wifi_station_stop
                0x000000004021b7bc        0x0 /home/wall/projects/IoT/mcu/platforms/espressif/esp8266_sdk/2.2.1/ESP8266_NONOS_SDK_2.2.1/lib/libnet80211.a(ieee80211_sta.o)
 *fill*         0x000000004021b7bc        0x0 
 *fill*         0x000000004021b7bc        0x0 
 *fill*         0x000000004021b7bc        0x0 
 *fill*         0x000000004021b7bc        0x0 
 *fill*         0x000000004021b7bc        0x0 
 .text.ieee80211_parse_wmeparams
                0x000000004021b7bc       0x62 /home/wall/projects/IoT/mcu/platforms/espressif/esp8266_sdk/2.2.1/ESP8266_NONOS_SDK_2.2.1/lib/libnet80211.a(ieee80211_sta.o)
                0x000000004021b7bc                ieee80211_parse_wmeparams
 *fill*         0x000000004021b81e        0x0 
 *fill*         0x000000004021b81e        0x0 
 *fill*         0x000000004021b81e        0x0 
 *fill*         0x000000004021b81e        0x2 
 .literal.chm_init
                0x000000004021b820        0x0 /home/wall/projects/IoT/mcu/platforms/espressif/esp8266_sdk/2.2.1/ESP8266_NONOS_SDK_2.2.1/lib/libnet80211.a(wl_chm.o)
 .literal.chm_acquire_lock
                0x000000004021b820        0x0 /home/wall/projects/IoT/mcu/platforms/espressif/esp8266_sdk/2.2.1/ESP8266_NONOS_SDK_2.2.1/lib/libnet80211.a(wl_chm.o)
 .literal.chm_release_lock
                0x000000004021b820        0x0 /home/wall/projects/IoT/mcu/platforms/espressif/esp8266_sdk/2.2.1/ESP8266_NONOS_SDK_2.2.1/lib/libnet80211.a(wl_chm.o)
 .literal.chm_start_op
                0x000000004021b820        0x0 /home/wall/projects/IoT/mcu/platforms/espressif/esp8266_sdk/2.2.1/ESP8266_NONOS_SDK_2.2.1/lib/libnet80211.a(wl_chm.o)
 .literal.chm_change_channel
                0x000000004021b820        0x0 /home/wall/projects/IoT/mcu/platforms/espressif/esp8266_sdk/2.2.1/ESP8266_NONOS_SDK_2.2.1/lib/libnet80211.a(wl_chm.o)
 .literal.chm_end_op
                0x000000004021b820        0x0 /home/wall/projects/IoT/mcu/platforms/espressif/esp8266_sdk/2.2.1/ESP8266_NONOS_SDK_2.2.1/lib/libnet80211.a(wl_chm.o)
 .literal.chm_end_op_timeout
                0x000000004021b820        0x0 /home/wall/projects/IoT/mcu/platforms/espressif/esp8266_sdk/2.2.1/ESP8266_NONOS_SDK_2.2.1/lib/libnet80211.a(wl_chm.o)
 .literal.chm_cancel_op
                0x000000004021b820        0x0 /home/wall/projects/IoT/mcu/platforms/espressif/esp8266_sdk/2.2.1/ESP8266_NONOS_SDK_2.2.1/lib/libnet80211.a(wl_chm.o)
 .literal.chm_return_home_channel
                0x000000004021b820        0x0 /home/wall/projects/IoT/mcu/platforms/espressif/esp8266_sdk/2.2.1/ESP8266_NONOS_SDK_2.2.1/lib/libnet80211.a(wl_chm.o)
 .literal.chm_set_current_channel
                0x000000004021b820        0x0 /home/wall/projects/IoT/mcu/platforms/espressif/esp8266_sdk/2.2.1/ESP8266_NONOS_SDK_2.2.1/lib/libnet80211.a(wl_chm.o)
 .literal.chm_freq2index
                0x000000004021b820        0x0 /home/wall/projects/IoT/mcu/platforms/espressif/esp8266_sdk/2.2.1/ESP8266_NONOS_SDK_2.2.1/lib/libnet80211.a(wl_chm.o)
 .literal.chm_check_same_channel
                0x000000004021b820        0x0 /home/wall/projects/IoT/mcu/platforms/espressif/esp8266_sdk/2.2.1/ESP8266_NONOS_SDK_2.2.1/lib/libnet80211.a(wl_chm.o)
 *fill*         0x000000004021b820        0x0 
 *fill*         0x000000004021b820        0x0 
 *fill*         0x000000004021b820        0x0 
 *fill*         0x000000004021b820        0x0 
 *fill*         0x000000004021b820        0x0 
 *fill*         0x000000004021b820        0x0 
 *fill*         0x000000004021b820        0x0 
 *fill*         0x000000004021b820        0x0 
 *fill*         0x000000004021b820        0x0 
 *fill*         0x000000004021b820        0x0 
 .literal.cnx_attach
                0x000000004021b820        0x0 /home/wall/projects/IoT/mcu/platforms/espressif/esp8266_sdk/2.2.1/ESP8266_NONOS_SDK_2.2.1/lib/libnet80211.a(wl_cnx.o)
 .literal.cnx_sta_connect_led_timer_cb
                0x000000004021b820        0x0 /home/wall/projects/IoT/mcu/platforms/espressif/esp8266_sdk/2.2.1/ESP8266_NONOS_SDK_2.2.1/lib/libnet80211.a(wl_cnx.o)
 .literal.cnx_sta_connect_cmd
                0x000000004021b820        0x0 /home/wall/projects/IoT/mcu/platforms/espressif/esp8266_sdk/2.2.1/ESP8266_NONOS_SDK_2.2.1/lib/libnet80211.a(wl_cnx.o)
 .literal.cnx_sta_scan_cmd
                0x000000004021b820        0x0 /home/wall/projects/IoT/mcu/platforms/espressif/esp8266_sdk/2.2.1/ESP8266_NONOS_SDK_2.2.1/lib/libnet80211.a(wl_cnx.o)
 .literal.cnx_start_connect
                0x000000004021b820        0x0 /home/wall/projects/IoT/mcu/platforms/espressif/esp8266_sdk/2.2.1/ESP8266_NONOS_SDK_2.2.1/lib/libnet80211.a(wl_cnx.o)
 .literal.cnx_traverse_rc_list
                0x000000004021b820        0x0 /home/wall/projects/IoT/mcu/platforms/espressif/esp8266_sdk/2.2.1/ESP8266_NONOS_SDK_2.2.1/lib/libnet80211.a(wl_cnx.o)
 .literal.cnx_probe_rc
                0x000000004021b820        0x0 /home/wall/projects/IoT/mcu/platforms/espressif/esp8266_sdk/2.2.1/ESP8266_NONOS_SDK_2.2.1/lib/libnet80211.a(wl_cnx.o)
 .literal.cnx_probe_rc_tx_cb
                0x000000004021b820        0x0 /home/wall/projects/IoT/mcu/platforms/espressif/esp8266_sdk/2.2.1/ESP8266_NONOS_SDK_2.2.1/lib/libnet80211.a(wl_cnx.o)
 .literal.cnx_traverse_rc_lis_done
                0x000000004021b820        0x0 /home/wall/projects/IoT/mcu/platforms/espressif/esp8266_sdk/2.2.1/ESP8266_NONOS_SDK_2.2.1/lib/libnet80211.a(wl_cnx.o)
 .literal.cnx_connect_timeout
                0x000000004021b820        0x0 /home/wall/projects/IoT/mcu/platforms/espressif/esp8266_sdk/2.2.1/ESP8266_NONOS_SDK_2.2.1/lib/libnet80211.a(wl_cnx.o)
 .literal.cnx_auth_timeout
                0x000000004021b820        0x0 /home/wall/projects/IoT/mcu/platforms/espressif/esp8266_sdk/2.2.1/ESP8266_NONOS_SDK_2.2.1/lib/libnet80211.a(wl_cnx.o)
 .literal.cnx_assoc_timeout
                0x000000004021b820        0x0 /home/wall/projects/IoT/mcu/platforms/espressif/esp8266_sdk/2.2.1/ESP8266_NONOS_SDK_2.2.1/lib/libnet80211.a(wl_cnx.o)
 .literal.cnx_handshake_timeout
                0x000000004021b820        0x0 /home/wall/projects/IoT/mcu/platforms/espressif/esp8266_sdk/2.2.1/ESP8266_NONOS_SDK_2.2.1/lib/libnet80211.a(wl_cnx.o)
 .literal.cnx_start_handoff_cb
                0x000000004021b820        0x0 /home/wall/projects/IoT/mcu/platforms/espressif/esp8266_sdk/2.2.1/ESP8266_NONOS_SDK_2.2.1/lib/libnet80211.a(wl_cnx.o)
 .literal.cnx_do_handoff
                0x000000004021b820        0x0 /home/wall/projects/IoT/mcu/platforms/espressif/esp8266_sdk/2.2.1/ESP8266_NONOS_SDK_2.2.1/lib/libnet80211.a(wl_cnx.o)
 .literal.cnx_csa_fn
                0x000000004021b820        0x0 /home/wall/projects/IoT/mcu/platforms/espressif/esp8266_sdk/2.2.1/ESP8266_NONOS_SDK_2.2.1/lib/libnet80211.a(wl_cnx.o)
 .literal.cnx_connect_to_bss
                0x000000004021b820        0x0 /home/wall/projects/IoT/mcu/platforms/espressif/esp8266_sdk/2.2.1/ESP8266_NONOS_SDK_2.2.1/lib/libnet80211.a(wl_cnx.o)
 .literal.cnx_connect_op
                0x000000004021b820        0x0 /home/wall/projects/IoT/mcu/platforms/espressif/esp8266_sdk/2.2.1/ESP8266_NONOS_SDK_2.2.1/lib/libnet80211.a(wl_cnx.o)
 .literal.cnx_choose_rc
                0x000000004021b820        0x0 /home/wall/projects/IoT/mcu/platforms/espressif/esp8266_sdk/2.2.1/ESP8266_NONOS_SDK_2.2.1/lib/libnet80211.a(wl_cnx.o)
 .literal.cnx_cal_rc_util
                0x000000004021b820        0x0 /home/wall/projects/IoT/mcu/platforms/espressif/esp8266_sdk/2.2.1/ESP8266_NONOS_SDK_2.2.1/lib/libnet80211.a(wl_cnx.o)
 .literal.cnx_bss_alloc
                0x000000004021b820        0x0 /home/wall/projects/IoT/mcu/platforms/espressif/esp8266_sdk/2.2.1/ESP8266_NONOS_SDK_2.2.1/lib/libnet80211.a(wl_cnx.o)
 .literal.cnx_rc_search
                0x000000004021b820        0x0 /home/wall/projects/IoT/mcu/platforms/espressif/esp8266_sdk/2.2.1/ESP8266_NONOS_SDK_2.2.1/lib/libnet80211.a(wl_cnx.o)
 .literal.cnx_get_next_rc
                0x000000004021b820        0x0 /home/wall/projects/IoT/mcu/platforms/espressif/esp8266_sdk/2.2.1/ESP8266_NONOS_SDK_2.2.1/lib/libnet80211.a(wl_cnx.o)
 .literal.cnx_add_rc
                0x000000004021b820        0x0 /home/wall/projects/IoT/mcu/platforms/espressif/esp8266_sdk/2.2.1/ESP8266_NONOS_SDK_2.2.1/lib/libnet80211.a(wl_cnx.o)
 .literal.cnx_remove_all_rc
                0x000000004021b820        0x0 /home/wall/projects/IoT/mcu/platforms/espressif/esp8266_sdk/2.2.1/ESP8266_NONOS_SDK_2.2.1/lib/libnet80211.a(wl_cnx.o)
 .literal.cnx_remove_rc
                0x000000004021b820        0x0 /home/wall/projects/IoT/mcu/platforms/espressif/esp8266_sdk/2.2.1/ESP8266_NONOS_SDK_2.2.1/lib/libnet80211.a(wl_cnx.o)
 .literal.cnx_remove_rc_except
                0x000000004021b820        0x0 /home/wall/projects/IoT/mcu/platforms/espressif/esp8266_sdk/2.2.1/ESP8266_NONOS_SDK_2.2.1/lib/libnet80211.a(wl_cnx.o)
 .literal.cnx_rc_update_rssi
                0x000000004021b820        0x0 /home/wall/projects/IoT/mcu/platforms/espressif/esp8266_sdk/2.2.1/ESP8266_NONOS_SDK_2.2.1/lib/libnet80211.a(wl_cnx.o)
 .literal.cnx_rc_update_state_metric
                0x000000004021b820        0x0 /home/wall/projects/IoT/mcu/platforms/espressif/esp8266_sdk/2.2.1/ESP8266_NONOS_SDK_2.2.1/lib/libnet80211.a(wl_cnx.o)
 .literal.cnx_rc_update_age
                0x000000004021b820        0x0 /home/wall/projects/IoT/mcu/platforms/espressif/esp8266_sdk/2.2.1/ESP8266_NONOS_SDK_2.2.1/lib/libnet80211.a(wl_cnx.o)
 .literal.cnx_update_bss
                0x000000004021b820        0x0 /home/wall/projects/IoT/mcu/platforms/espressif/esp8266_sdk/2.2.1/ESP8266_NONOS_SDK_2.2.1/lib/libnet80211.a(wl_cnx.o)
 .literal.cnx_update_bss_more
                0x000000004021b820        0x0 /home/wall/projects/IoT/mcu/platforms/espressif/esp8266_sdk/2.2.1/ESP8266_NONOS_SDK_2.2.1/lib/libnet80211.a(wl_cnx.o)
 .literal.cnx_process_tim
                0x000000004021b820        0x0 /home/wall/projects/IoT/mcu/platforms/espressif/esp8266_sdk/2.2.1/ESP8266_NONOS_SDK_2.2.1/lib/libnet80211.a(wl_cnx.o)
 .literal.cnx_sta_leave
                0x000000004021b820        0x0 /home/wall/projects/IoT/mcu/platforms/espressif/esp8266_sdk/2.2.1/ESP8266_NONOS_SDK_2.2.1/lib/libnet80211.a(wl_cnx.o)
 .literal.send_ap_probe
                0x000000004021b820        0x0 /home/wall/projects/IoT/mcu/platforms/espressif/esp8266_sdk/2.2.1/ESP8266_NONOS_SDK_2.2.1/lib/libnet80211.a(wl_cnx.o)
 .literal.cnx_beacon_timeout
                0x000000004021b820        0x0 /home/wall/projects/IoT/mcu/platforms/espressif/esp8266_sdk/2.2.1/ESP8266_NONOS_SDK_2.2.1/lib/libnet80211.a(wl_cnx.o)
 .literal.mgd_probe_send_timeout
                0x000000004021b820        0x0 /home/wall/projects/IoT/mcu/platforms/espressif/esp8266_sdk/2.2.1/ESP8266_NONOS_SDK_2.2.1/lib/libnet80211.a(wl_cnx.o)
 .literal.cnx_sta_associated
                0x000000004021b820        0x0 /home/wall/projects/IoT/mcu/platforms/espressif/esp8266_sdk/2.2.1/ESP8266_NONOS_SDK_2.2.1/lib/libnet80211.a(wl_cnx.o)
 .literal.cnx_process_handoff_trigger
                0x000000004021b820        0x0 /home/wall/projects/IoT/mcu/platforms/espressif/esp8266_sdk/2.2.1/ESP8266_NONOS_SDK_2.2.1/lib/libnet80211.a(wl_cnx.o)
 .literal.cnx_node_alloc
                0x000000004021b820        0x0 /home/wall/projects/IoT/mcu/platforms/espressif/esp8266_sdk/2.2.1/ESP8266_NONOS_SDK_2.2.1/lib/libnet80211.a(wl_cnx.o)
 .literal.cnx_node_remove
                0x000000004021b820        0x0 /home/wall/projects/IoT/mcu/platforms/espressif/esp8266_sdk/2.2.1/ESP8266_NONOS_SDK_2.2.1/lib/libnet80211.a(wl_cnx.o)
 .literal.cnx_node_search
                0x000000004021b820        0x0 /home/wall/projects/IoT/mcu/platforms/espressif/esp8266_sdk/2.2.1/ESP8266_NONOS_SDK_2.2.1/lib/libnet80211.a(wl_cnx.o)
 .literal.cnx_node_leave
                0x000000004021b820        0x0 /home/wall/projects/IoT/mcu/platforms/espressif/esp8266_sdk/2.2.1/ESP8266_NONOS_SDK_2.2.1/lib/libnet80211.a(wl_cnx.o)
 .literal.wifi_softap_staconnected_event_policy
                0x000000004021b820        0x0 /home/wall/projects/IoT/mcu/platforms/espressif/esp8266_sdk/2.2.1/ESP8266_NONOS_SDK_2.2.1/lib/libnet80211.a(wl_cnx.o)
 .literal.wifi_softap_toomany_deny
                0x000000004021b820        0x0 /home/wall/projects/IoT/mcu/platforms/espressif/esp8266_sdk/2.2.1/ESP8266_NONOS_SDK_2.2.1/lib/libnet80211.a(wl_cnx.o)
 .literal.cnx_node_join
                0x000000004021b820        0x0 /home/wall/projects/IoT/mcu/platforms/espressif/esp8266_sdk/2.2.1/ESP8266_NONOS_SDK_2.2.1/lib/libnet80211.a(wl_cnx.o)
 *fill*         0x000000004021b820        0x0 
 *fill*         0x000000004021b820        0x0 
 *fill*         0x000000004021b820        0x0 
 *fill*         0x000000004021b820        0x0 
 *fill*         0x000000004021b820        0x0 
 *fill*         0x000000004021b820        0x0 
 *fill*         0x000000004021b820        0x0 
 *fill*         0x000000004021b820        0x0 
 *fill*         0x000000004021b820        0x0 
 *fill*         0x000000004021b820        0x0 
 *fill*         0x000000004021b820        0x0 
 *fill*         0x000000004021b820        0x0 
 *fill*         0x000000004021b820        0x0 
 *fill*         0x000000004021b820        0x0 
 *fill*         0x000000004021b820        0x0 
 *fill*         0x000000004021b820        0x0 
 *fill*         0x000000004021b820        0x0 
 *fill*         0x000000004021b820        0x0 
 *fill*         0x000000004021b820        0x0 
 *fill*         0x000000004021b820        0x0 
 *fill*         0x000000004021b820        0x0 
 *fill*         0x000000004021b820        0x0 
 .text.cnx_process_tim
                0x000000004021b820        0x2 /home/wall/projects/IoT/mcu/platforms/espressif/esp8266_sdk/2.2.1/ESP8266_NONOS_SDK_2.2.1/lib/libnet80211.a(wl_cnx.o)
 *fill*         0x000000004021b822        0x0 
 *fill*         0x000000004021b822        0x0 
 *fill*         0x000000004021b822        0x0 
 *fill*         0x000000004021b822        0x0 
 *fill*         0x000000004021b822        0x2 
 .text.cnx_process_handoff_trigger
                0x000000004021b824        0x2 /home/wall/projects/IoT/mcu/platforms/espressif/esp8266_sdk/2.2.1/ESP8266_NONOS_SDK_2.2.1/lib/libnet80211.a(wl_cnx.o)
 *fill*         0x000000004021b826        0x0 
 *fill*         0x000000004021b826        0x0 
 *fill*         0x000000004021b826        0x0 
 *fill*         0x000000004021b826        0x0 
 *fill*         0x000000004021b826        0x0 
 *fill*         0x000000004021b826        0x0 
 *fill*         0x000000004021b826        0x0 
 *fill*         0x000000004021b826        0x2 
 .literal.send_inval
                0x000000004021b828        0x0 /home/wall/projects/IoT/mcu/platforms/espressif/esp8266_sdk/2.2.1/ESP8266_NONOS_SDK_2.2.1/lib/libnet80211.a(ieee80211_action.o)
 .literal.ieee80211_send_action_register
                0x000000004021b828        0x0 /home/wall/projects/IoT/mcu/platforms/espressif/esp8266_sdk/2.2.1/ESP8266_NONOS_SDK_2.2.1/lib/libnet80211.a(ieee80211_action.o)
 .literal.ieee80211_send_action_unregister
                0x000000004021b828        0x0 /home/wall/projects/IoT/mcu/platforms/espressif/esp8266_sdk/2.2.1/ESP8266_NONOS_SDK_2.2.1/lib/libnet80211.a(ieee80211_action.o)
 .literal.ieee80211_send_action
                0x000000004021b828        0x0 /home/wall/projects/IoT/mcu/platforms/espressif/esp8266_sdk/2.2.1/ESP8266_NONOS_SDK_2.2.1/lib/libnet80211.a(ieee80211_action.o)
 .literal.recv_inval
                0x000000004021b828        0x0 /home/wall/projects/IoT/mcu/platforms/espressif/esp8266_sdk/2.2.1/ESP8266_NONOS_SDK_2.2.1/lib/libnet80211.a(ieee80211_action.o)
 .literal.ieee80211_recv_action_register
                0x000000004021b828        0x0 /home/wall/projects/IoT/mcu/platforms/espressif/esp8266_sdk/2.2.1/ESP8266_NONOS_SDK_2.2.1/lib/libnet80211.a(ieee80211_action.o)
 .literal.ieee80211_recv_action_unregister
                0x000000004021b828        0x0 /home/wall/projects/IoT/mcu/platforms/espressif/esp8266_sdk/2.2.1/ESP8266_NONOS_SDK_2.2.1/lib/libnet80211.a(ieee80211_action.o)
 .literal.ieee80211_recv_action
                0x000000004021b828        0x0 /home/wall/projects/IoT/mcu/platforms/espressif/esp8266_sdk/2.2.1/ESP8266_NONOS_SDK_2.2.1/lib/libnet80211.a(ieee80211_action.o)
 .text.send_inval
                0x000000004021b828        0x4 /home/wall/projects/IoT/mcu/platforms/espressif/esp8266_sdk/2.2.1/ESP8266_NONOS_SDK_2.2.1/lib/libnet80211.a(ieee80211_action.o)
 *fill*         0x000000004021b82c        0x0 
 *fill*         0x000000004021b82c        0x0 
 .text.recv_inval
                0x000000004021b82c        0x4 /home/wall/projects/IoT/mcu/platforms/espressif/esp8266_sdk/2.2.1/ESP8266_NONOS_SDK_2.2.1/lib/libnet80211.a(ieee80211_action.o)
 *fill*         0x000000004021b830        0x0 
 *fill*         0x000000004021b830        0x0 
 .literal.ieee80211_avs_fetch_key_idx
                0x000000004021b830        0x0 /home/wall/projects/IoT/mcu/platforms/espressif/esp8266_sdk/2.2.1/ESP8266_NONOS_SDK_2.2.1/lib/libnet80211.a(ieee80211_action_vendor.o)
 .literal.ieee80211_avs_clear_key_idx
                0x000000004021b830        0x0 /home/wall/projects/IoT/mcu/platforms/espressif/esp8266_sdk/2.2.1/ESP8266_NONOS_SDK_2.2.1/lib/libnet80211.a(ieee80211_action_vendor.o)
 .literal.get_iav_key
                0x000000004021b830        0x0 /home/wall/projects/IoT/mcu/platforms/espressif/esp8266_sdk/2.2.1/ESP8266_NONOS_SDK_2.2.1/lib/libnet80211.a(ieee80211_action_vendor.o)
 .literal.register_ieee80211_action_vendor_get_key_cb
                0x000000004021b830        0x0 /home/wall/projects/IoT/mcu/platforms/espressif/esp8266_sdk/2.2.1/ESP8266_NONOS_SDK_2.2.1/lib/libnet80211.a(ieee80211_action_vendor.o)
 .literal.unregister_ieee80211_action_vendor_get_key_cb
                0x000000004021b830        0x0 /home/wall/projects/IoT/mcu/platforms/espressif/esp8266_sdk/2.2.1/ESP8266_NONOS_SDK_2.2.1/lib/libnet80211.a(ieee80211_action_vendor.o)
 .literal.ieee80211_add_action_vendor_spec_esp
                0x000000004021b830        0x0 /home/wall/projects/IoT/mcu/platforms/espressif/esp8266_sdk/2.2.1/ESP8266_NONOS_SDK_2.2.1/lib/libnet80211.a(ieee80211_action_vendor.o)
 .literal.ieee80211_alloc_action_vendor_spec
                0x000000004021b830        0x0 /home/wall/projects/IoT/mcu/platforms/espressif/esp8266_sdk/2.2.1/ESP8266_NONOS_SDK_2.2.1/lib/libnet80211.a(ieee80211_action_vendor.o)
 .literal.ieee80211_send_action_vendor_spec
                0x000000004021b830        0x0 /home/wall/projects/IoT/mcu/platforms/espressif/esp8266_sdk/2.2.1/ESP8266_NONOS_SDK_2.2.1/lib/libnet80211.a(ieee80211_action_vendor.o)
 .literal.ieee80211_recv_action_vendor_spec
                0x000000004021b830        0x0 /home/wall/projects/IoT/mcu/platforms/espressif/esp8266_sdk/2.2.1/ESP8266_NONOS_SDK_2.2.1/lib/libnet80211.a(ieee80211_action_vendor.o)
 .literal.ieee80211_action_vendor_spec_attach
                0x000000004021b830        0x0 /home/wall/projects/IoT/mcu/platforms/espressif/esp8266_sdk/2.2.1/ESP8266_NONOS_SDK_2.2.1/lib/libnet80211.a(ieee80211_action_vendor.o)
 .literal.register_ieee80211_action_vendor_spec_cb
                0x000000004021b830        0x0 /home/wall/projects/IoT/mcu/platforms/espressif/esp8266_sdk/2.2.1/ESP8266_NONOS_SDK_2.2.1/lib/libnet80211.a(ieee80211_action_vendor.o)
 .literal.unregister_ieee80211_action_vendor_spec_cb
                0x000000004021b830        0x0 /home/wall/projects/IoT/mcu/platforms/espressif/esp8266_sdk/2.2.1/ESP8266_NONOS_SDK_2.2.1/lib/libnet80211.a(ieee80211_action_vendor.o)
 *fill*         0x000000004021b830        0x0 
 *fill*         0x000000004021b830        0x0 
 *fill*         0x000000004021b830        0x0 
 *fill*         0x000000004021b830        0x0 
 *fill*         0x000000004021b830        0x0 
 *fill*         0x000000004021b830        0x0 
 *fill*         0x000000004021b830        0x0 
 .literal.ccmp_encap
                0x000000004021b830        0x0 /home/wall/projects/IoT/mcu/platforms/espressif/esp8266_sdk/2.2.1/ESP8266_NONOS_SDK_2.2.1/lib/libnet80211.a(ieee80211_crypto_ccmp.o)
 .literal.ccmp_decap
                0x000000004021b830        0x0 /home/wall/projects/IoT/mcu/platforms/espressif/esp8266_sdk/2.2.1/ESP8266_NONOS_SDK_2.2.1/lib/libnet80211.a(ieee80211_crypto_ccmp.o)
 *fill*         0x000000004021b830        0x0 
 *fill*         0x000000004021b830        0x0 
 .literal.ieee80211_add_ie_vendor_esp_head
                0x000000004021b830        0x0 /home/wall/projects/IoT/mcu/platforms/espressif/esp8266_sdk/2.2.1/ESP8266_NONOS_SDK_2.2.1/lib/libnet80211.a(ieee80211_ie_vendor.o)
 .literal.ieee80211_add_ie_vendor_esp_mesh_assoc
                0x000000004021b830        0x0 /home/wall/projects/IoT/mcu/platforms/espressif/esp8266_sdk/2.2.1/ESP8266_NONOS_SDK_2.2.1/lib/libnet80211.a(ieee80211_ie_vendor.o)
 .literal.ieee80211_add_ie_vendor_esp_mesh_group
                0x000000004021b830        0x0 /home/wall/projects/IoT/mcu/platforms/espressif/esp8266_sdk/2.2.1/ESP8266_NONOS_SDK_2.2.1/lib/libnet80211.a(ieee80211_ie_vendor.o)
 .literal.ieee80211_add_ie_vendor_esp_simple_pair
                0x000000004021b830        0x0 /home/wall/projects/IoT/mcu/platforms/espressif/esp8266_sdk/2.2.1/ESP8266_NONOS_SDK_2.2.1/lib/libnet80211.a(ieee80211_ie_vendor.o)
 .literal.ieee80211_add_ie_vendor_esp_freq_annon
                0x000000004021b830        0x0 /home/wall/projects/IoT/mcu/platforms/espressif/esp8266_sdk/2.2.1/ESP8266_NONOS_SDK_2.2.1/lib/libnet80211.a(ieee80211_ie_vendor.o)
 .literal.ieee80211_add_ie_vendor_esp_now
                0x000000004021b830        0x0 /home/wall/projects/IoT/mcu/platforms/espressif/esp8266_sdk/2.2.1/ESP8266_NONOS_SDK_2.2.1/lib/libnet80211.a(ieee80211_ie_vendor.o)
 .literal.ieee80211_add_ie_vendor_esp_ssid
                0x000000004021b830        0x0 /home/wall/projects/IoT/mcu/platforms/espressif/esp8266_sdk/2.2.1/ESP8266_NONOS_SDK_2.2.1/lib/libnet80211.a(ieee80211_ie_vendor.o)
 .literal.ieee80211_add_ie_vendor_esp_manufacturer
                0x000000004021b830        0x0 /home/wall/projects/IoT/mcu/platforms/espressif/esp8266_sdk/2.2.1/ESP8266_NONOS_SDK_2.2.1/lib/libnet80211.a(ieee80211_ie_vendor.o)
 *fill*         0x000000004021b830        0x0 
 *fill*         0x000000004021b830        0x0 
 *fill*         0x000000004021b830        0x0 
 *fill*         0x000000004021b830        0x0 
 *fill*         0x000000004021b830        0x0 
 *fill*         0x000000004021b830        0x0 
 .literal.tkip_encap
                0x000000004021b830        0x0 /home/wall/projects/IoT/mcu/platforms/espressif/esp8266_sdk/2.2.1/ESP8266_NONOS_SDK_2.2.1/lib/libnet80211.a(ieee80211_crypto_tkip.o)
 .literal.tkip_decap
                0x000000004021b830        0x0 /home/wall/projects/IoT/mcu/platforms/espressif/esp8266_sdk/2.2.1/ESP8266_NONOS_SDK_2.2.1/lib/libnet80211.a(ieee80211_crypto_tkip.o)
 *fill*         0x000000004021b830        0x0 
 *fill*         0x000000004021b830        0x0 
 .literal.wep_encap
                0x000000004021b830        0x0 /home/wall/projects/IoT/mcu/platforms/espressif/esp8266_sdk/2.2.1/ESP8266_NONOS_SDK_2.2.1/lib/libnet80211.a(ieee80211_crypto_wep.o)
 .literal.wep_decap
                0x000000004021b830        0x0 /home/wall/projects/IoT/mcu/platforms/espressif/esp8266_sdk/2.2.1/ESP8266_NONOS_SDK_2.2.1/lib/libnet80211.a(ieee80211_crypto_wep.o)
 *fill*         0x000000004021b830        0x0 
 .text.wep_decap
                0x000000004021b830       0x20 /home/wall/projects/IoT/mcu/platforms/espressif/esp8266_sdk/2.2.1/ESP8266_NONOS_SDK_2.2.1/lib/libnet80211.a(ieee80211_crypto_wep.o)
 *libsmartconfig.a:(.literal.* .text.*)
 *libssl.a:(.literal.* .text.*)
 *libupgrade.a:(.literal.* .text.*)
 *libwpa.a:(.literal.* .text.*)
 .text.hostapd_config_defaults_bss
                0x000000004021b850       0x4b /home/wall/projects/IoT/mcu/platforms/espressif/esp8266_sdk/2.2.1/ESP8266_NONOS_SDK_2.2.1/lib/libwpa.a(ap_config.o)
                                         0x4f (size before relaxing)
                0x000000004021b854                hostapd_config_defaults_bss
 *fill*         0x000000004021b89b        0x1 
 .text.hostapd_config_defaults
                0x000000004021b89c       0x8b /home/wall/projects/IoT/mcu/platforms/espressif/esp8266_sdk/2.2.1/ESP8266_NONOS_SDK_2.2.1/lib/libwpa.a(ap_config.o)
                                         0xa7 (size before relaxing)
                0x000000004021b8a0                hostapd_config_defaults
 *fill*         0x000000004021b927        0x1 
 .text.hostapd_mac_comp
                0x000000004021b928       0x14 /home/wall/projects/IoT/mcu/platforms/espressif/esp8266_sdk/2.2.1/ESP8266_NONOS_SDK_2.2.1/lib/libwpa.a(ap_config.o)
                                         0x18 (size before relaxing)
                0x000000004021b928                hostapd_mac_comp
 .text.hostapd_mac_comp_empty
                0x000000004021b93c       0x24 /home/wall/projects/IoT/mcu/platforms/espressif/esp8266_sdk/2.2.1/ESP8266_NONOS_SDK_2.2.1/lib/libwpa.a(ap_config.o)
                                         0x2c (size before relaxing)
                0x000000004021b93c                hostapd_mac_comp_empty
 .text.hostapd_derive_psk
                0x000000004021b960       0x46 /home/wall/projects/IoT/mcu/platforms/espressif/esp8266_sdk/2.2.1/ESP8266_NONOS_SDK_2.2.1/lib/libwpa.a(ap_config.o)
                                         0x56 (size before relaxing)
 *fill*         0x000000004021b9a6        0x2 
 .text.hostapd_setup_wpa_psk
                0x000000004021b9a8       0x31 /home/wall/projects/IoT/mcu/platforms/espressif/esp8266_sdk/2.2.1/ESP8266_NONOS_SDK_2.2.1/lib/libwpa.a(ap_config.o)
                                         0x35 (size before relaxing)
                0x000000004021b9a8                hostapd_setup_wpa_psk
 *fill*         0x000000004021b9d9        0x3 
 .text.hostapd_wep_key_cmp
                0x000000004021b9dc       0x50 /home/wall/projects/IoT/mcu/platforms/espressif/esp8266_sdk/2.2.1/ESP8266_NONOS_SDK_2.2.1/lib/libwpa.a(ap_config.o)
                                         0x54 (size before relaxing)
                0x000000004021b9dc                hostapd_wep_key_cmp
 .text.hostapd_maclist_found
                0x000000004021ba2c       0x67 /home/wall/projects/IoT/mcu/platforms/espressif/esp8266_sdk/2.2.1/ESP8266_NONOS_SDK_2.2.1/lib/libwpa.a(ap_config.o)
                                         0x6b (size before relaxing)
                0x000000004021ba2c                hostapd_maclist_found
 *fill*         0x000000004021ba93        0x1 
 .text.hostapd_get_psk
                0x000000004021ba94       0x52 /home/wall/projects/IoT/mcu/platforms/espressif/esp8266_sdk/2.2.1/ESP8266_NONOS_SDK_2.2.1/lib/libwpa.a(ap_config.o)
                                         0x56 (size before relaxing)
                0x000000004021ba94                hostapd_get_psk
 *fill*         0x000000004021bae6        0x2 
 .text.hex2byte
                0x000000004021bae8       0x35 /home/wall/projects/IoT/mcu/platforms/espressif/esp8266_sdk/2.2.1/ESP8266_NONOS_SDK_2.2.1/lib/libwpa.a(common.o)
                                         0x41 (size before relaxing)
                0x000000004021bae8                hex2byte
 *fill*         0x000000004021bb1d        0x3 
 .text.hexstr2bin
                0x000000004021bb20       0x44 /home/wall/projects/IoT/mcu/platforms/espressif/esp8266_sdk/2.2.1/ESP8266_NONOS_SDK_2.2.1/lib/libwpa.a(common.o)
                                         0x48 (size before relaxing)
                0x000000004021bb20                hexstr2bin
 .text.wpa_get_ntp_timestamp
                0x000000004021bb64       0x99 /home/wall/projects/IoT/mcu/platforms/espressif/esp8266_sdk/2.2.1/ESP8266_NONOS_SDK_2.2.1/lib/libwpa.a(common.o)
                                         0xad (size before relaxing)
                0x000000004021bb6c                wpa_get_ntp_timestamp
 *fill*         0x000000004021bbfd        0x3 
 .text.wpa_config_parse_string
                0x000000004021bc00      0x108 /home/wall/projects/IoT/mcu/platforms/espressif/esp8266_sdk/2.2.1/ESP8266_NONOS_SDK_2.2.1/lib/libwpa.a(common.o)
                                        0x138 (size before relaxing)
                0x000000004021bc04                wpa_config_parse_string
 .text.dup_binstr
                0x000000004021bd08       0x46 /home/wall/projects/IoT/mcu/platforms/espressif/esp8266_sdk/2.2.1/ESP8266_NONOS_SDK_2.2.1/lib/libwpa.a(common.o)
                                         0x52 (size before relaxing)
                0x000000004021bd08                dup_binstr
 *fill*         0x000000004021bd4e        0x2 
 .text.ets_strdup
                0x000000004021bd50       0x46 /home/wall/projects/IoT/mcu/platforms/espressif/esp8266_sdk/2.2.1/ESP8266_NONOS_SDK_2.2.1/lib/libwpa.a(os_xtensa.o)
                                         0x52 (size before relaxing)
                0x000000004021bd54                ets_strdup
 *fill*         0x000000004021bd96        0x2 
 .text.r_rand   0x000000004021bd98       0x12 /home/wall/projects/IoT/mcu/platforms/espressif/esp8266_sdk/2.2.1/ESP8266_NONOS_SDK_2.2.1/lib/libwpa.a(os_xtensa.o)
                                         0x16 (size before relaxing)
                0x000000004021bd98                r_rand
 *fill*         0x000000004021bdaa        0x2 
 .text.os_random
                0x000000004021bdac       0x12 /home/wall/projects/IoT/mcu/platforms/espressif/esp8266_sdk/2.2.1/ESP8266_NONOS_SDK_2.2.1/lib/libwpa.a(os_xtensa.o)
                                         0x16 (size before relaxing)
                0x000000004021bdac                os_random
 *fill*         0x000000004021bdbe        0x2 
 .text.os_get_random
                0x000000004021bdc0       0x5f /home/wall/projects/IoT/mcu/platforms/espressif/esp8266_sdk/2.2.1/ESP8266_NONOS_SDK_2.2.1/lib/libwpa.a(os_xtensa.o)
                                         0x63 (size before relaxing)
                0x000000004021bdc0                os_get_random
 *fill*         0x000000004021be1f        0x1 
 .text.wpa_auth_get_sm
                0x000000004021be20       0x23 /home/wall/projects/IoT/mcu/platforms/espressif/esp8266_sdk/2.2.1/ESP8266_NONOS_SDK_2.2.1/lib/libwpa.a(wpa_auth.o)
 *fill*         0x000000004021be43        0x1 
 .text.wpa_auth_add_sm
                0x000000004021be44       0x3b /home/wall/projects/IoT/mcu/platforms/espressif/esp8266_sdk/2.2.1/ESP8266_NONOS_SDK_2.2.1/lib/libwpa.a(wpa_auth.o)
                                         0x3f (size before relaxing)
 *fill*         0x000000004021be7f        0x1 
 .text.wpa_auth_del_sm
                0x000000004021be80       0x2b /home/wall/projects/IoT/mcu/platforms/espressif/esp8266_sdk/2.2.1/ESP8266_NONOS_SDK_2.2.1/lib/libwpa.a(wpa_auth.o)
                                         0x2f (size before relaxing)
 *fill*         0x000000004021beab        0x1 
 .text.wpa_auth_set_key
                0x000000004021beac      0x141 /home/wall/projects/IoT/mcu/platforms/espressif/esp8266_sdk/2.2.1/ESP8266_NONOS_SDK_2.2.1/lib/libwpa.a(wpa_auth.o)
                                        0x17d (size before relaxing)
 *fill*         0x000000004021bfed        0x3 
 .text.wpa_rekey_gtk
                0x000000004021bff0       0x57 /home/wall/projects/IoT/mcu/platforms/espressif/esp8266_sdk/2.2.1/ESP8266_NONOS_SDK_2.2.1/lib/libwpa.a(wpa_auth.o)
                                         0x5f (size before relaxing)
 *fill*         0x000000004021c047        0x1 
 .text.wpa_rekey_ptk
                0x000000004021c048       0x1e /home/wall/projects/IoT/mcu/platforms/espressif/esp8266_sdk/2.2.1/ESP8266_NONOS_SDK_2.2.1/lib/libwpa.a(wpa_auth.o)
                                         0x2a (size before relaxing)
 *fill*         0x000000004021c066        0x2 
 .text.wpa_group_init_gmk_and_counter
                0x000000004021c068       0x8d /home/wall/projects/IoT/mcu/platforms/espressif/esp8266_sdk/2.2.1/ESP8266_NONOS_SDK_2.2.1/lib/libwpa.a(wpa_auth.o)
                                         0xb1 (size before relaxing)
 *fill*         0x000000004021c0f5        0x3 
 .text.wpa_group_init
                0x000000004021c0f8       0x75 /home/wall/projects/IoT/mcu/platforms/espressif/esp8266_sdk/2.2.1/ESP8266_NONOS_SDK_2.2.1/lib/libwpa.a(wpa_auth.o)
                                         0x9d (size before relaxing)
 *fill*         0x000000004021c16d        0x3 
 .text.wpa_init
                0x000000004021c170       0x91 /home/wall/projects/IoT/mcu/platforms/espressif/esp8266_sdk/2.2.1/ESP8266_NONOS_SDK_2.2.1/lib/libwpa.a(wpa_auth.o)
                                         0xc1 (size before relaxing)
                0x000000004021c170                wpa_init
 *fill*         0x000000004021c201        0x3 
 .text.wpa_auth_sta_init
                0x000000004021c204       0x4e /home/wall/projects/IoT/mcu/platforms/espressif/esp8266_sdk/2.2.1/ESP8266_NONOS_SDK_2.2.1/lib/libwpa.a(wpa_auth.o)
                                         0x5e (size before relaxing)
                0x000000004021c204                wpa_auth_sta_init
 *fill*         0x000000004021c252        0x2 
 .text.wpa_auth_sta_associated
                0x000000004021c254       0x73 /home/wall/projects/IoT/mcu/platforms/espressif/esp8266_sdk/2.2.1/ESP8266_NONOS_SDK_2.2.1/lib/libwpa.a(wpa_auth.o)
                                         0x83 (size before relaxing)
                0x000000004021c254                wpa_auth_sta_associated
 *fill*         0x000000004021c2c7        0x1 
 .text.wpa_free_sta_sm
                0x000000004021c2c8       0x56 /home/wall/projects/IoT/mcu/platforms/espressif/esp8266_sdk/2.2.1/ESP8266_NONOS_SDK_2.2.1/lib/libwpa.a(wpa_auth.o)
                                         0x72 (size before relaxing)
 *fill*         0x000000004021c31e        0x2 
 .text.wpa_auth_sta_deinit
                0x000000004021c320       0x25 /home/wall/projects/IoT/mcu/platforms/espressif/esp8266_sdk/2.2.1/ESP8266_NONOS_SDK_2.2.1/lib/libwpa.a(wpa_auth.o)
                                         0x29 (size before relaxing)
                0x000000004021c320                wpa_auth_sta_deinit
 *fill*         0x000000004021c345        0x3 
 .text.wpa_replay_counter_valid
                0x000000004021c348       0x3d /home/wall/projects/IoT/mcu/platforms/espressif/esp8266_sdk/2.2.1/ESP8266_NONOS_SDK_2.2.1/lib/libwpa.a(wpa_auth.o)
                                         0x41 (size before relaxing)
 *fill*         0x000000004021c385        0x3 
 .text.wpa_replay_counter_mark_invalid
                0x000000004021c388       0x3e /home/wall/projects/IoT/mcu/platforms/espressif/esp8266_sdk/2.2.1/ESP8266_NONOS_SDK_2.2.1/lib/libwpa.a(wpa_auth.o)
                                         0x42 (size before relaxing)
 *fill*         0x000000004021c3c6        0x2 
 .text.wpa_receive_error_report
                0x000000004021c3c8       0x16 /home/wall/projects/IoT/mcu/platforms/espressif/esp8266_sdk/2.2.1/ESP8266_NONOS_SDK_2.2.1/lib/libwpa.a(wpa_auth.o)
                                         0x1a (size before relaxing)
 *fill*         0x000000004021c3de        0x2 
 .text.wpa_receive
                0x000000004021c3e0      0x3ec /home/wall/projects/IoT/mcu/platforms/espressif/esp8266_sdk/2.2.1/ESP8266_NONOS_SDK_2.2.1/lib/libwpa.a(wpa_auth.o)
                                        0x490 (size before relaxing)
                0x000000004021c3ec                wpa_receive
 .text.wpa_gmk_to_gtk
                0x000000004021c7cc       0x75 /home/wall/projects/IoT/mcu/platforms/espressif/esp8266_sdk/2.2.1/ESP8266_NONOS_SDK_2.2.1/lib/libwpa.a(wpa_auth.o)
                                         0x8d (size before relaxing)
 *fill*         0x000000004021c841        0x3 
 .text.wpa_send_eapol_timeout
                0x000000004021c844       0x1d /home/wall/projects/IoT/mcu/platforms/espressif/esp8266_sdk/2.2.1/ESP8266_NONOS_SDK_2.2.1/lib/libwpa.a(wpa_auth.o)
                                         0x21 (size before relaxing)
 *fill*         0x000000004021c861        0x3 
 .text.__wpa_send_eapol
                0x000000004021c864      0x406 /home/wall/projects/IoT/mcu/platforms/espressif/esp8266_sdk/2.2.1/ESP8266_NONOS_SDK_2.2.1/lib/libwpa.a(wpa_auth.o)
                                        0x4ae (size before relaxing)
                0x000000004021c870                __wpa_send_eapol
 *fill*         0x000000004021cc6a        0x2 
 .text.resend_eapol_handle
                0x000000004021cc6c       0x2a /home/wall/projects/IoT/mcu/platforms/espressif/esp8266_sdk/2.2.1/ESP8266_NONOS_SDK_2.2.1/lib/libwpa.a(wpa_auth.o)
                                         0x36 (size before relaxing)
                0x000000004021cc6c                resend_eapol_handle
 *fill*         0x000000004021cc96        0x2 
 .text.wpa_send_eapol
                0x000000004021cc98       0xd3 /home/wall/projects/IoT/mcu/platforms/espressif/esp8266_sdk/2.2.1/ESP8266_NONOS_SDK_2.2.1/lib/libwpa.a(wpa_auth.o)
                                         0xf7 (size before relaxing)
 *fill*         0x000000004021cd6b        0x1 
 .text.wpa_verify_key_mic
                0x000000004021cd6c       0x83 /home/wall/projects/IoT/mcu/platforms/espressif/esp8266_sdk/2.2.1/ESP8266_NONOS_SDK_2.2.1/lib/libwpa.a(wpa_auth.o)
                                         0x97 (size before relaxing)
 *fill*         0x000000004021cdef        0x1 
 .text.wpa_remove_ptk
                0x000000004021cdf0       0x4d /home/wall/projects/IoT/mcu/platforms/espressif/esp8266_sdk/2.2.1/ESP8266_NONOS_SDK_2.2.1/lib/libwpa.a(wpa_auth.o)
                                         0x5d (size before relaxing)
                0x000000004021cdf4                wpa_remove_ptk
 *fill*         0x000000004021ce3d        0x3 
 .text.wpa_auth_sm_event
                0x000000004021ce40       0xa1 /home/wall/projects/IoT/mcu/platforms/espressif/esp8266_sdk/2.2.1/ESP8266_NONOS_SDK_2.2.1/lib/libwpa.a(wpa_auth.o)
                                         0xb1 (size before relaxing)
                0x000000004021ce40                wpa_auth_sm_event
 *fill*         0x000000004021cee1        0x3 
 .text.sm_WPA_PTK_INITIALIZE_Enter
                0x000000004021cee4       0x68 /home/wall/projects/IoT/mcu/platforms/espressif/esp8266_sdk/2.2.1/ESP8266_NONOS_SDK_2.2.1/lib/libwpa.a(wpa_auth.o)
                                         0x74 (size before relaxing)
 .text.sm_WPA_PTK_DISCONNECT_Enter
                0x000000004021cf4c       0x30 /home/wall/projects/IoT/mcu/platforms/espressif/esp8266_sdk/2.2.1/ESP8266_NONOS_SDK_2.2.1/lib/libwpa.a(wpa_auth.o)
                                         0x34 (size before relaxing)
 .text.sm_WPA_PTK_AUTHENTICATION_Enter
                0x000000004021cf7c       0x3f /home/wall/projects/IoT/mcu/platforms/espressif/esp8266_sdk/2.2.1/ESP8266_NONOS_SDK_2.2.1/lib/libwpa.a(wpa_auth.o)
                                         0x43 (size before relaxing)
 *fill*         0x000000004021cfbb        0x1 
 .text.wpa_group_ensure_init
                0x000000004021cfbc       0x3d /home/wall/projects/IoT/mcu/platforms/espressif/esp8266_sdk/2.2.1/ESP8266_NONOS_SDK_2.2.1/lib/libwpa.a(wpa_auth.o)
                                         0x51 (size before relaxing)
 *fill*         0x000000004021cff9        0x3 
 .text.sm_WPA_PTK_AUTHENTICATION2_Enter
                0x000000004021cffc       0x4a /home/wall/projects/IoT/mcu/platforms/espressif/esp8266_sdk/2.2.1/ESP8266_NONOS_SDK_2.2.1/lib/libwpa.a(wpa_auth.o)
                                         0x5e (size before relaxing)
 *fill*         0x000000004021d046        0x2 
 .text.sm_WPA_PTK_INITPSK_Enter
                0x000000004021d048       0x53 /home/wall/projects/IoT/mcu/platforms/espressif/esp8266_sdk/2.2.1/ESP8266_NONOS_SDK_2.2.1/lib/libwpa.a(wpa_auth.o)
                                         0x5f (size before relaxing)
 *fill*         0x000000004021d09b        0x1 
 .text.sm_WPA_PTK_PTKSTART_Enter
                0x000000004021d09c       0xb5 /home/wall/projects/IoT/mcu/platforms/espressif/esp8266_sdk/2.2.1/ESP8266_NONOS_SDK_2.2.1/lib/libwpa.a(wpa_auth.o)
                                         0xbd (size before relaxing)
 *fill*         0x000000004021d151        0x3 
 .text.wpa_derive_ptk
                0x000000004021d154       0x6e /home/wall/projects/IoT/mcu/platforms/espressif/esp8266_sdk/2.2.1/ESP8266_NONOS_SDK_2.2.1/lib/libwpa.a(wpa_auth.o)
                                         0x7a (size before relaxing)
 *fill*         0x000000004021d1c2        0x2 
 .text.sm_WPA_PTK_PTKCALCNEGOTIATING_Enter
                0x000000004021d1c4       0xe5 /home/wall/projects/IoT/mcu/platforms/espressif/esp8266_sdk/2.2.1/ESP8266_NONOS_SDK_2.2.1/lib/libwpa.a(wpa_auth.o)
                                        0x121 (size before relaxing)
 *fill*         0x000000004021d2a9        0x3 
 .text.sm_WPA_PTK_PTKINITNEGOTIATING_Enter
                0x000000004021d2ac      0x195 /home/wall/projects/IoT/mcu/platforms/espressif/esp8266_sdk/2.2.1/ESP8266_NONOS_SDK_2.2.1/lib/libwpa.a(wpa_auth.o)
                                        0x1c9 (size before relaxing)
 *fill*         0x000000004021d441        0x3 
 .text.sm_WPA_PTK_PTKINITDONE_Enter
                0x000000004021d444       0xb2 /home/wall/projects/IoT/mcu/platforms/espressif/esp8266_sdk/2.2.1/ESP8266_NONOS_SDK_2.2.1/lib/libwpa.a(wpa_auth.o)
                                         0xee (size before relaxing)
 *fill*         0x000000004021d4f6        0x2 
 .text.sm_WPA_PTK_Step
                0x000000004021d4f8      0x205 /home/wall/projects/IoT/mcu/platforms/espressif/esp8266_sdk/2.2.1/ESP8266_NONOS_SDK_2.2.1/lib/libwpa.a(wpa_auth.o)
                                        0x27c (size before relaxing)
 *fill*         0x000000004021d6fd        0x3 
 .text.sm_WPA_PTK_GROUP_REKEYNEGOTIATING_Enter
                0x000000004021d700      0x119 /home/wall/projects/IoT/mcu/platforms/espressif/esp8266_sdk/2.2.1/ESP8266_NONOS_SDK_2.2.1/lib/libwpa.a(wpa_auth.o)
                                        0x151 (size before relaxing)
 *fill*         0x000000004021d819        0x3 
 .text.sm_WPA_PTK_GROUP_Step
                0x000000004021d81c       0xb2 /home/wall/projects/IoT/mcu/platforms/espressif/esp8266_sdk/2.2.1/ESP8266_NONOS_SDK_2.2.1/lib/libwpa.a(wpa_auth.o)
                                         0xd1 (size before relaxing)
 *fill*         0x000000004021d8ce        0x2 
 .text.wpa_gtk_update
                0x000000004021d8d0       0x63 /home/wall/projects/IoT/mcu/platforms/espressif/esp8266_sdk/2.2.1/ESP8266_NONOS_SDK_2.2.1/lib/libwpa.a(wpa_auth.o)
                                         0x7b (size before relaxing)
 *fill*         0x000000004021d933        0x1 
 .text.wpa_group_gtk_init
                0x000000004021d934       0x39 /home/wall/projects/IoT/mcu/platforms/espressif/esp8266_sdk/2.2.1/ESP8266_NONOS_SDK_2.2.1/lib/libwpa.a(wpa_auth.o)
                                         0x41 (size before relaxing)
 *fill*         0x000000004021d96d        0x3 
 .text.wpa_group_update_sta
                0x000000004021d970       0x44 /home/wall/projects/IoT/mcu/platforms/espressif/esp8266_sdk/2.2.1/ESP8266_NONOS_SDK_2.2.1/lib/libwpa.a(wpa_auth.o)
                                         0x48 (size before relaxing)
 .text.wpa_group_setkeys
                0x000000004021d9b4       0x4b /home/wall/projects/IoT/mcu/platforms/espressif/esp8266_sdk/2.2.1/ESP8266_NONOS_SDK_2.2.1/lib/libwpa.a(wpa_auth.o)
                                         0x57 (size before relaxing)
 *fill*         0x000000004021d9ff        0x1 
 .text.wpa_group_config_group_keys
                0x000000004021da00       0x40 /home/wall/projects/IoT/mcu/platforms/espressif/esp8266_sdk/2.2.1/ESP8266_NONOS_SDK_2.2.1/lib/libwpa.a(wpa_auth.o)
                                         0x50 (size before relaxing)
 .text.wpa_group_setkeysdone
                0x000000004021da40       0x25 /home/wall/projects/IoT/mcu/platforms/espressif/esp8266_sdk/2.2.1/ESP8266_NONOS_SDK_2.2.1/lib/libwpa.a(wpa_auth.o)
                                         0x29 (size before relaxing)
 *fill*         0x000000004021da65        0x3 
 .text.wpa_group_sm_step
                0x000000004021da68       0x53 /home/wall/projects/IoT/mcu/platforms/espressif/esp8266_sdk/2.2.1/ESP8266_NONOS_SDK_2.2.1/lib/libwpa.a(wpa_auth.o)
                                         0x6a (size before relaxing)
 *fill*         0x000000004021dabb        0x1 
 .text.wpa_sm_step
                0x000000004021dabc       0x86 /home/wall/projects/IoT/mcu/platforms/espressif/esp8266_sdk/2.2.1/ESP8266_NONOS_SDK_2.2.1/lib/libwpa.a(wpa_auth.o)
                                         0x9a (size before relaxing)
 *fill*         0x000000004021db42        0x2 
 .text.wpa_write_wpa_ie
                0x000000004021db44       0xc3 /home/wall/projects/IoT/mcu/platforms/espressif/esp8266_sdk/2.2.1/ESP8266_NONOS_SDK_2.2.1/lib/libwpa.a(wpa_auth_ie.o)
                                         0xcf (size before relaxing)
 *fill*         0x000000004021dc07        0x1 
 .text.wpa_write_rsn_ie
                0x000000004021dc08      0x106 /home/wall/projects/IoT/mcu/platforms/espressif/esp8266_sdk/2.2.1/ESP8266_NONOS_SDK_2.2.1/lib/libwpa.a(wpa_auth_ie.o)
                                        0x116 (size before relaxing)
                0x000000004021dc08                wpa_write_rsn_ie
 *fill*         0x000000004021dd0e        0x2 
 .text.wpa_auth_gen_wpa_ie
                0x000000004021dd10       0x99 /home/wall/projects/IoT/mcu/platforms/espressif/esp8266_sdk/2.2.1/ESP8266_NONOS_SDK_2.2.1/lib/libwpa.a(wpa_auth_ie.o)
                                         0xb1 (size before relaxing)
                0x000000004021dd14                wpa_auth_gen_wpa_ie
 *fill*         0x000000004021dda9        0x3 
 .text.wpa_add_kde
                0x000000004021ddac       0x6a /home/wall/projects/IoT/mcu/platforms/espressif/esp8266_sdk/2.2.1/ESP8266_NONOS_SDK_2.2.1/lib/libwpa.a(wpa_auth_ie.o)
                                         0x72 (size before relaxing)
                0x000000004021ddac                wpa_add_kde
 *fill*         0x000000004021de16        0x2 
 .text.wpa_validate_wpa_ie
                0x000000004021de18      0x131 /home/wall/projects/IoT/mcu/platforms/espressif/esp8266_sdk/2.2.1/ESP8266_NONOS_SDK_2.2.1/lib/libwpa.a(wpa_auth_ie.o)
                                        0x169 (size before relaxing)
                0x000000004021de18                wpa_validate_wpa_ie
 *fill*         0x000000004021df49        0x3 
 .text.wpa_parse_generic
                0x000000004021df4c       0xd7 /home/wall/projects/IoT/mcu/platforms/espressif/esp8266_sdk/2.2.1/ESP8266_NONOS_SDK_2.2.1/lib/libwpa.a(wpa_auth_ie.o)
                                         0xdb (size before relaxing)
 *fill*         0x000000004021e023        0x1 
 .text.wpa_parse_kde_ies
                0x000000004021e024       0x9d /home/wall/projects/IoT/mcu/platforms/espressif/esp8266_sdk/2.2.1/ESP8266_NONOS_SDK_2.2.1/lib/libwpa.a(wpa_auth_ie.o)
                                         0xa5 (size before relaxing)
                0x000000004021e024                wpa_parse_kde_ies
 *fill*         0x000000004021e0c1        0x3 
 .text.wpa_eapol_key_send
                0x000000004021e0c4      0x100 /home/wall/projects/IoT/mcu/platforms/espressif/esp8266_sdk/2.2.1/ESP8266_NONOS_SDK_2.2.1/lib/libwpa.a(wpa.o)
                                        0x11c (size before relaxing)
 .text.wpa_sm_key_request
                0x000000004021e1c4      0x114 /home/wall/projects/IoT/mcu/platforms/espressif/esp8266_sdk/2.2.1/ESP8266_NONOS_SDK_2.2.1/lib/libwpa.a(wpa.o)
                                        0x134 (size before relaxing)
 .text.wpa_supplicant_send_2_of_4
                0x000000004021e2d8       0xf8 /home/wall/projects/IoT/mcu/platforms/espressif/esp8266_sdk/2.2.1/ESP8266_NONOS_SDK_2.2.1/lib/libwpa.a(wpa.o)
                                        0x114 (size before relaxing)
 .text.wpa_derive_ptk
                0x000000004021e3d0       0x6f /home/wall/projects/IoT/mcu/platforms/espressif/esp8266_sdk/2.2.1/ESP8266_NONOS_SDK_2.2.1/lib/libwpa.a(wpa.o)
                                         0x7b (size before relaxing)
 *fill*         0x000000004021e43f        0x1 
 .text.wpa_supplicant_process_1_of_4
                0x000000004021e440       0xe0 /home/wall/projects/IoT/mcu/platforms/espressif/esp8266_sdk/2.2.1/ESP8266_NONOS_SDK_2.2.1/lib/libwpa.a(wpa.o)
                                        0x114 (size before relaxing)
 .text.wpa_sm_rekey_ptk
                0x000000004021e520       0x16 /home/wall/projects/IoT/mcu/platforms/espressif/esp8266_sdk/2.2.1/ESP8266_NONOS_SDK_2.2.1/lib/libwpa.a(wpa.o)
                                         0x1a (size before relaxing)
 *fill*         0x000000004021e536        0x2 
 .text.wpa_supplicant_install_ptk
                0x000000004021e538       0x85 /home/wall/projects/IoT/mcu/platforms/espressif/esp8266_sdk/2.2.1/ESP8266_NONOS_SDK_2.2.1/lib/libwpa.a(wpa.o)
                                         0x99 (size before relaxing)
 *fill*         0x000000004021e5bd        0x3 
 .text.wpa_supplicant_key_neg_complete
                0x000000004021e5c0       0x48 /home/wall/projects/IoT/mcu/platforms/espressif/esp8266_sdk/2.2.1/ESP8266_NONOS_SDK_2.2.1/lib/libwpa.a(wpa.o)
                                         0x5c (size before relaxing)
 .text.wpa_supplicant_install_gtk
                0x000000004021e608       0x9c /home/wall/projects/IoT/mcu/platforms/espressif/esp8266_sdk/2.2.1/ESP8266_NONOS_SDK_2.2.1/lib/libwpa.a(wpa.o)
                                         0xb0 (size before relaxing)
 .text.wpa_supplicant_gtk_in_use
                0x000000004021e6a4      0x134 /home/wall/projects/IoT/mcu/platforms/espressif/esp8266_sdk/2.2.1/ESP8266_NONOS_SDK_2.2.1/lib/libwpa.a(wpa.o)
                                        0x154 (size before relaxing)
 .text.wpa_supplicant_pairwise_gtk
                0x000000004021e7d8       0x82 /home/wall/projects/IoT/mcu/platforms/espressif/esp8266_sdk/2.2.1/ESP8266_NONOS_SDK_2.2.1/lib/libwpa.a(wpa.o)
                                         0x96 (size before relaxing)
 *fill*         0x000000004021e85a        0x2 
 .text.wpa_report_ie_mismatch
                0x000000004021e85c       0x14 /home/wall/projects/IoT/mcu/platforms/espressif/esp8266_sdk/2.2.1/ESP8266_NONOS_SDK_2.2.1/lib/libwpa.a(wpa.o)
                                         0x18 (size before relaxing)
 .text.wpa_supplicant_validate_ie
                0x000000004021e870       0xd7 /home/wall/projects/IoT/mcu/platforms/espressif/esp8266_sdk/2.2.1/ESP8266_NONOS_SDK_2.2.1/lib/libwpa.a(wpa.o)
                                         0xf3 (size before relaxing)
 *fill*         0x000000004021e947        0x1 
 .text.wpa_supplicant_send_4_of_4
                0x000000004021e948       0xf9 /home/wall/projects/IoT/mcu/platforms/espressif/esp8266_sdk/2.2.1/ESP8266_NONOS_SDK_2.2.1/lib/libwpa.a(wpa.o)
                                        0x111 (size before relaxing)
 *fill*         0x000000004021ea41        0x3 
 .text.wpa_sm_set_seq
                0x000000004021ea44       0x46 /home/wall/projects/IoT/mcu/platforms/espressif/esp8266_sdk/2.2.1/ESP8266_NONOS_SDK_2.2.1/lib/libwpa.a(wpa.o)
                                         0x4e (size before relaxing)
 *fill*         0x000000004021ea8a        0x2 
 .text.wpa_supplicant_process_3_of_4
                0x000000004021ea8c      0x114 /home/wall/projects/IoT/mcu/platforms/espressif/esp8266_sdk/2.2.1/ESP8266_NONOS_SDK_2.2.1/lib/libwpa.a(wpa.o)
                                        0x14c (size before relaxing)
 .text.wpa_supplicant_send_4_of_4_txcallback
                0x000000004021eba0       0x80 /home/wall/projects/IoT/mcu/platforms/espressif/esp8266_sdk/2.2.1/ESP8266_NONOS_SDK_2.2.1/lib/libwpa.a(wpa.o)
                                         0x9c (size before relaxing)
 .text.wpa_supplicant_process_1_of_2_rsn
                0x000000004021ec20       0x85 /home/wall/projects/IoT/mcu/platforms/espressif/esp8266_sdk/2.2.1/ESP8266_NONOS_SDK_2.2.1/lib/libwpa.a(wpa.o)
                                         0xa1 (size before relaxing)
 *fill*         0x000000004021eca5        0x3 
 .text.wpa_supplicant_process_1_of_2_wpa
                0x000000004021eca8       0xf8 /home/wall/projects/IoT/mcu/platforms/espressif/esp8266_sdk/2.2.1/ESP8266_NONOS_SDK_2.2.1/lib/libwpa.a(wpa.o)
                                        0x110 (size before relaxing)
 .text.wpa_supplicant_send_2_of_2
                0x000000004021eda0       0xdc /home/wall/projects/IoT/mcu/platforms/espressif/esp8266_sdk/2.2.1/ESP8266_NONOS_SDK_2.2.1/lib/libwpa.a(wpa.o)
                                         0xf0 (size before relaxing)
 .text.wpa_supplicant_process_1_of_2
                0x000000004021ee7c       0xb5 /home/wall/projects/IoT/mcu/platforms/espressif/esp8266_sdk/2.2.1/ESP8266_NONOS_SDK_2.2.1/lib/libwpa.a(wpa.o)
                                         0xdd (size before relaxing)
 *fill*         0x000000004021ef31        0x3 
 .text.wpa_supplicant_send_2_of_2_txcallback
                0x000000004021ef34       0x75 /home/wall/projects/IoT/mcu/platforms/espressif/esp8266_sdk/2.2.1/ESP8266_NONOS_SDK_2.2.1/lib/libwpa.a(wpa.o)
                                         0x89 (size before relaxing)
 *fill*         0x000000004021efa9        0x3 
 .text.wpa_supplicant_verify_eapol_key_mic
                0x000000004021efac       0xec /home/wall/projects/IoT/mcu/platforms/espressif/esp8266_sdk/2.2.1/ESP8266_NONOS_SDK_2.2.1/lib/libwpa.a(wpa.o)
                                        0x114 (size before relaxing)
 .text.wpa_supplicant_decrypt_key_data
                0x000000004021f098       0xaf /home/wall/projects/IoT/mcu/platforms/espressif/esp8266_sdk/2.2.1/ESP8266_NONOS_SDK_2.2.1/lib/libwpa.a(wpa.o)
                                         0xc3 (size before relaxing)
 *fill*         0x000000004021f147        0x1 
 .text.wpa_sm_rx_eapol
                0x000000004021f148      0x189 /home/wall/projects/IoT/mcu/platforms/espressif/esp8266_sdk/2.2.1/ESP8266_NONOS_SDK_2.2.1/lib/libwpa.a(wpa.o)
                                        0x1ad (size before relaxing)
                0x000000004021f154                wpa_sm_rx_eapol
 *fill*         0x000000004021f2d1        0x3 
 .text.wpa_register
                0x000000004021f2d4       0x3a /home/wall/projects/IoT/mcu/platforms/espressif/esp8266_sdk/2.2.1/ESP8266_NONOS_SDK_2.2.1/lib/libwpa.a(wpa.o)
                                         0x3e (size before relaxing)
                0x000000004021f2d8                wpa_register
 *fill*         0x000000004021f30e        0x2 
 .text.wpa_set_profile
                0x000000004021f310       0x15 /home/wall/projects/IoT/mcu/platforms/espressif/esp8266_sdk/2.2.1/ESP8266_NONOS_SDK_2.2.1/lib/libwpa.a(wpa.o)
                                         0x19 (size before relaxing)
                0x000000004021f310                wpa_set_profile
 *fill*         0x000000004021f325        0x3 
 .text.wpa_set_pmk
                0x000000004021f328       0x20 /home/wall/projects/IoT/mcu/platforms/espressif/esp8266_sdk/2.2.1/ESP8266_NONOS_SDK_2.2.1/lib/libwpa.a(wpa.o)
                                         0x2c (size before relaxing)
                0x000000004021f328                wpa_set_pmk
 .text.wpa_set_bss
                0x000000004021f348       0x8c /home/wall/projects/IoT/mcu/platforms/espressif/esp8266_sdk/2.2.1/ESP8266_NONOS_SDK_2.2.1/lib/libwpa.a(wpa.o)
                                         0xbc (size before relaxing)
                0x000000004021f354                wpa_set_bss
 .text.wpa_set_passphrase
                0x000000004021f3d4       0x94 /home/wall/projects/IoT/mcu/platforms/espressif/esp8266_sdk/2.2.1/ESP8266_NONOS_SDK_2.2.1/lib/libwpa.a(wpa.o)
                                         0xdc (size before relaxing)
 .text.set_assoc_ie
                0x000000004021f468       0x33 /home/wall/projects/IoT/mcu/platforms/espressif/esp8266_sdk/2.2.1/ESP8266_NONOS_SDK_2.2.1/lib/libwpa.a(wpa.o)
                                         0x37 (size before relaxing)
 *fill*         0x000000004021f49b        0x1 
 .text.wpa_sm_set_key
                0x000000004021f49c       0x7c /home/wall/projects/IoT/mcu/platforms/espressif/esp8266_sdk/2.2.1/ESP8266_NONOS_SDK_2.2.1/lib/libwpa.a(wpa.o)
                                         0x88 (size before relaxing)
 .text.wpa_supplicant_clr_countermeasures
                0x000000004021f518        0xd /home/wall/projects/IoT/mcu/platforms/espressif/esp8266_sdk/2.2.1/ESP8266_NONOS_SDK_2.2.1/lib/libwpa.a(wpa.o)
                                         0x11 (size before relaxing)
 *fill*         0x000000004021f525        0x3 
 .text.wpa_sm_get_key
                0x000000004021f528       0x19 /home/wall/projects/IoT/mcu/platforms/espressif/esp8266_sdk/2.2.1/ESP8266_NONOS_SDK_2.2.1/lib/libwpa.a(wpa.o)
                                         0x1d (size before relaxing)
 *fill*         0x000000004021f541        0x3 
 .text.wpa_supplicant_stop_countermeasures
                0x000000004021f544       0x27 /home/wall/projects/IoT/mcu/platforms/espressif/esp8266_sdk/2.2.1/ESP8266_NONOS_SDK_2.2.1/lib/libwpa.a(wpa.o)
                                         0x33 (size before relaxing)
 *fill*         0x000000004021f56b        0x1 
 .text.pp_michael_mic_failure
                0x000000004021f56c       0xbe /home/wall/projects/IoT/mcu/platforms/espressif/esp8266_sdk/2.2.1/ESP8266_NONOS_SDK_2.2.1/lib/libwpa.a(wpa.o)
                                        0x10e (size before relaxing)
                0x000000004021f57c                pp_michael_mic_failure
 *fill*         0x000000004021f62a        0x2 
 .text.eapol_txcb
                0x000000004021f62c       0x90 /home/wall/projects/IoT/mcu/platforms/espressif/esp8266_sdk/2.2.1/ESP8266_NONOS_SDK_2.2.1/lib/libwpa.a(wpa.o)
                                         0xa8 (size before relaxing)
                0x000000004021f62c                eapol_txcb
 .text.wpa_sm_set_state
                0x000000004021f6bc       0x28 /home/wall/projects/IoT/mcu/platforms/espressif/esp8266_sdk/2.2.1/ESP8266_NONOS_SDK_2.2.1/lib/libwpa.a(wpa.o)
                                         0x38 (size before relaxing)
                0x000000004021f6bc                wpa_sm_set_state
 .text.rsn_selector_to_bitfield
                0x000000004021f6e4       0x63 /home/wall/projects/IoT/mcu/platforms/espressif/esp8266_sdk/2.2.1/ESP8266_NONOS_SDK_2.2.1/lib/libwpa.a(wpa_common.o)
                                         0x6b (size before relaxing)
 *fill*         0x000000004021f747        0x1 
 .text.rsn_key_mgmt_to_bitfield
                0x000000004021f748       0x37 /home/wall/projects/IoT/mcu/platforms/espressif/esp8266_sdk/2.2.1/ESP8266_NONOS_SDK_2.2.1/lib/libwpa.a(wpa_common.o)
                                         0x3f (size before relaxing)
 *fill*         0x000000004021f77f        0x1 
 .text.wpa_selector_to_bitfield
                0x000000004021f780       0x67 /home/wall/projects/IoT/mcu/platforms/espressif/esp8266_sdk/2.2.1/ESP8266_NONOS_SDK_2.2.1/lib/libwpa.a(wpa_common.o)
                                         0x6b (size before relaxing)
 *fill*         0x000000004021f7e7        0x1 
 .text.wpa_key_mgmt_to_bitfield
                0x000000004021f7e8       0x41 /home/wall/projects/IoT/mcu/platforms/espressif/esp8266_sdk/2.2.1/ESP8266_NONOS_SDK_2.2.1/lib/libwpa.a(wpa_common.o)
                                         0x4d (size before relaxing)
 *fill*         0x000000004021f829        0x3 
 .text.wpa_parse_wpa_ie_rsn
                0x000000004021f82c      0x195 /home/wall/projects/IoT/mcu/platforms/espressif/esp8266_sdk/2.2.1/ESP8266_NONOS_SDK_2.2.1/lib/libwpa.a(wpa_common.o)
                                        0x1ad (size before relaxing)
                0x000000004021f82c                wpa_parse_wpa_ie_rsn
 *fill*         0x000000004021f9c1        0x3 
 .text.wpa_parse_wpa_ie_wpa
                0x000000004021f9c4      0x18e /home/wall/projects/IoT/mcu/platforms/espressif/esp8266_sdk/2.2.1/ESP8266_NONOS_SDK_2.2.1/lib/libwpa.a(wpa_common.o)
                                        0x1a2 (size before relaxing)
                0x000000004021f9c4                wpa_parse_wpa_ie_wpa
 *fill*         0x000000004021fb52        0x2 
 .text.wpa_eapol_key_mic
                0x000000004021fb54       0x47 /home/wall/projects/IoT/mcu/platforms/espressif/esp8266_sdk/2.2.1/ESP8266_NONOS_SDK_2.2.1/lib/libwpa.a(wpa_common.o)
                                         0x4b (size before relaxing)
                0x000000004021fb5c                wpa_eapol_key_mic
 *fill*         0x000000004021fb9b        0x1 
 .text.wpa_compare_rsn_ie
                0x000000004021fb9c       0x26 /home/wall/projects/IoT/mcu/platforms/espressif/esp8266_sdk/2.2.1/ESP8266_NONOS_SDK_2.2.1/lib/libwpa.a(wpa_common.o)
                                         0x2a (size before relaxing)
                0x000000004021fb9c                wpa_compare_rsn_ie
 *fill*         0x000000004021fbc2        0x2 
 .text.wpa_pmk_to_ptk
                0x000000004021fbc4       0xe3 /home/wall/projects/IoT/mcu/platforms/espressif/esp8266_sdk/2.2.1/ESP8266_NONOS_SDK_2.2.1/lib/libwpa.a(wpa_common.o)
                                        0x10f (size before relaxing)
                0x000000004021fbc4                wpa_pmk_to_ptk
 *fill*         0x000000004021fca7        0x1 
 .text.rsn_pmkid
                0x000000004021fca8       0x67 /home/wall/projects/IoT/mcu/platforms/espressif/esp8266_sdk/2.2.1/ESP8266_NONOS_SDK_2.2.1/lib/libwpa.a(wpa_common.o)
                                         0x6f (size before relaxing)
                0x000000004021fcb4                rsn_pmkid
 *fill*         0x000000004021fd0f        0x1 
 .text.wpa_cipher_to_suite
                0x000000004021fd10       0x55 /home/wall/projects/IoT/mcu/platforms/espressif/esp8266_sdk/2.2.1/ESP8266_NONOS_SDK_2.2.1/lib/libwpa.a(wpa_common.o)
                                         0x7d (size before relaxing)
                0x000000004021fd14                wpa_cipher_to_suite
 *fill*         0x000000004021fd65        0x3 
 .text._wpa_snprintf_hex
                0x000000004021fd68       0x78 /home/wall/projects/IoT/mcu/platforms/espressif/esp8266_sdk/2.2.1/ESP8266_NONOS_SDK_2.2.1/lib/libwpa.a(wpa_debug.o)
                                         0x7c (size before relaxing)
 .text.wpa_snprintf_hex_uppercase
                0x000000004021fde0       0x14 /home/wall/projects/IoT/mcu/platforms/espressif/esp8266_sdk/2.2.1/ESP8266_NONOS_SDK_2.2.1/lib/libwpa.a(wpa_debug.o)
                                         0x18 (size before relaxing)
                0x000000004021fde0                wpa_snprintf_hex_uppercase
 .text.wpa_snprintf_hex
                0x000000004021fdf4       0x14 /home/wall/projects/IoT/mcu/platforms/espressif/esp8266_sdk/2.2.1/ESP8266_NONOS_SDK_2.2.1/lib/libwpa.a(wpa_debug.o)
                                         0x18 (size before relaxing)
                0x000000004021fdf4                wpa_snprintf_hex
 .text.wpa_parse_wpa_ie
                0x000000004021fe08       0x25 /home/wall/projects/IoT/mcu/platforms/espressif/esp8266_sdk/2.2.1/ESP8266_NONOS_SDK_2.2.1/lib/libwpa.a(wpa_ie.o)
                                         0x2d (size before relaxing)
                0x000000004021fe08                wpa_parse_wpa_ie
 *fill*         0x000000004021fe2d        0x3 
 .text.wpa_parse_generic
                0x000000004021fe30       0xcb /home/wall/projects/IoT/mcu/platforms/espressif/esp8266_sdk/2.2.1/ESP8266_NONOS_SDK_2.2.1/lib/libwpa.a(wpa_ie.o)
                                         0xdb (size before relaxing)
 *fill*         0x000000004021fefb        0x1 
 .text.wpa_supplicant_parse_ies
                0x000000004021fefc       0x9d /home/wall/projects/IoT/mcu/platforms/espressif/esp8266_sdk/2.2.1/ESP8266_NONOS_SDK_2.2.1/lib/libwpa.a(wpa_ie.o)
                                         0xa5 (size before relaxing)
                0x000000004021fefc                wpa_supplicant_parse_ies
 *fill*         0x000000004021ff99        0x3 
 .text.wpa_gen_wpa_ie
                0x000000004021ff9c       0x34 /home/wall/projects/IoT/mcu/platforms/espressif/esp8266_sdk/2.2.1/ESP8266_NONOS_SDK_2.2.1/lib/libwpa.a(wpa_ie.o)
                                         0x3f (size before relaxing)
                0x000000004021ff9c                wpa_gen_wpa_ie
 *fill*         0x000000004021ffd0        0x0 
 .text.ppInstallKey
                0x000000004021ffd0      0x142 /home/wall/projects/IoT/mcu/platforms/espressif/esp8266_sdk/2.2.1/ESP8266_NONOS_SDK_2.2.1/lib/libwpa.a(wpa_main.o)
                                        0x18a (size before relaxing)
                0x000000004021ffd4                ppInstallKey
 *fill*         0x0000000040220112        0x2 
 .text.ppGetKey
                0x0000000040220114       0x2a /home/wall/projects/IoT/mcu/platforms/espressif/esp8266_sdk/2.2.1/ESP8266_NONOS_SDK_2.2.1/lib/libwpa.a(wpa_main.o)
                                         0x2e (size before relaxing)
                0x0000000040220114                ppGetKey
 *fill*         0x000000004022013e        0x2 
 .text.wpa_sendto_wrapper
                0x0000000040220140       0x1b /home/wall/projects/IoT/mcu/platforms/espressif/esp8266_sdk/2.2.1/ESP8266_NONOS_SDK_2.2.1/lib/libwpa.a(wpa_main.o)
                                         0x23 (size before relaxing)
 *fill*         0x000000004022015b        0x1 
 .text.wpa_deauthenticate
                0x000000004022015c       0x32 /home/wall/projects/IoT/mcu/platforms/espressif/esp8266_sdk/2.2.1/ESP8266_NONOS_SDK_2.2.1/lib/libwpa.a(wpa_main.o)
                                         0x46 (size before relaxing)
 *fill*         0x000000004022018e        0x2 
 .text.wpa_config_profile
                0x0000000040220190       0x34 /home/wall/projects/IoT/mcu/platforms/espressif/esp8266_sdk/2.2.1/ESP8266_NONOS_SDK_2.2.1/lib/libwpa.a(wpa_main.o)
                                         0x3f (size before relaxing)
                0x0000000040220190                wpa_config_profile
 *fill*         0x00000000402201c4        0x0 
 .text.wpa_config_bss
                0x00000000402201c4       0x2d /home/wall/projects/IoT/mcu/platforms/espressif/esp8266_sdk/2.2.1/ESP8266_NONOS_SDK_2.2.1/lib/libwpa.a(wpa_main.o)
                                         0x31 (size before relaxing)
                0x00000000402201c4                wpa_config_bss
 *fill*         0x00000000402201f1        0x3 
 .text.wpa_config_assoc_ie
                0x00000000402201f4       0x14 /home/wall/projects/IoT/mcu/platforms/espressif/esp8266_sdk/2.2.1/ESP8266_NONOS_SDK_2.2.1/lib/libwpa.a(wpa_main.o)
                                         0x18 (size before relaxing)
                0x00000000402201f4                wpa_config_assoc_ie
 .text.dhcp_bind_check
                0x0000000040220208       0x1e /home/wall/projects/IoT/mcu/platforms/espressif/esp8266_sdk/2.2.1/ESP8266_NONOS_SDK_2.2.1/lib/libwpa.a(wpa_main.o)
                                         0x26 (size before relaxing)
                0x0000000040220208                dhcp_bind_check
 *fill*         0x0000000040220226        0x2 
 .text.eagle_auth_done
                0x0000000040220228      0x19b /home/wall/projects/IoT/mcu/platforms/espressif/esp8266_sdk/2.2.1/ESP8266_NONOS_SDK_2.2.1/lib/libwpa.a(wpa_main.o)
                                        0x21f (size before relaxing)
                0x0000000040220244                eagle_auth_done
 *fill*         0x00000000402203c3        0x1 
 .text.wpa_neg_complete
                0x00000000402203c4       0x12 /home/wall/projects/IoT/mcu/platforms/espressif/esp8266_sdk/2.2.1/ESP8266_NONOS_SDK_2.2.1/lib/libwpa.a(wpa_main.o)
                                         0x16 (size before relaxing)
                0x00000000402203c4                wpa_neg_complete
 *fill*         0x00000000402203d6        0x2 
 .text.wpa_attach
                0x00000000402203d8       0x59 /home/wall/projects/IoT/mcu/platforms/espressif/esp8266_sdk/2.2.1/ESP8266_NONOS_SDK_2.2.1/lib/libwpa.a(wpa_main.o)
                                         0x65 (size before relaxing)
                0x00000000402203f4                wpa_attach
 *fill*         0x0000000040220431        0x3 
 .text.wpa_alloc_eapol
                0x0000000040220434       0x6e /home/wall/projects/IoT/mcu/platforms/espressif/esp8266_sdk/2.2.1/ESP8266_NONOS_SDK_2.2.1/lib/libwpa.a(wpas_glue.o)
                                         0x76 (size before relaxing)
 *fill*         0x00000000402204a2        0x2 
 .text.wpa_sm_alloc_eapol
                0x00000000402204a4       0x3f /home/wall/projects/IoT/mcu/platforms/espressif/esp8266_sdk/2.2.1/ESP8266_NONOS_SDK_2.2.1/lib/libwpa.a(wpas_glue.o)
                                         0x4b (size before relaxing)
                0x00000000402204a4                wpa_sm_alloc_eapol
 *fill*         0x00000000402204e3        0x1 
 .literal.hostapd_config_defaults_bss
                0x00000000402204e4        0x0 /home/wall/projects/IoT/mcu/platforms/espressif/esp8266_sdk/2.2.1/ESP8266_NONOS_SDK_2.2.1/lib/libwpa.a(ap_config.o)
 .literal.hostapd_config_defaults
                0x00000000402204e4        0x0 /home/wall/projects/IoT/mcu/platforms/espressif/esp8266_sdk/2.2.1/ESP8266_NONOS_SDK_2.2.1/lib/libwpa.a(ap_config.o)
 .literal.hostapd_mac_comp
                0x00000000402204e4        0x0 /home/wall/projects/IoT/mcu/platforms/espressif/esp8266_sdk/2.2.1/ESP8266_NONOS_SDK_2.2.1/lib/libwpa.a(ap_config.o)
 .literal.hostapd_mac_comp_empty
                0x00000000402204e4        0x0 /home/wall/projects/IoT/mcu/platforms/espressif/esp8266_sdk/2.2.1/ESP8266_NONOS_SDK_2.2.1/lib/libwpa.a(ap_config.o)
 .literal.hostapd_derive_psk
                0x00000000402204e4        0x0 /home/wall/projects/IoT/mcu/platforms/espressif/esp8266_sdk/2.2.1/ESP8266_NONOS_SDK_2.2.1/lib/libwpa.a(ap_config.o)
 .literal.hostapd_setup_wpa_psk
                0x00000000402204e4        0x0 /home/wall/projects/IoT/mcu/platforms/espressif/esp8266_sdk/2.2.1/ESP8266_NONOS_SDK_2.2.1/lib/libwpa.a(ap_config.o)
 .literal.hostapd_wep_key_cmp
                0x00000000402204e4        0x0 /home/wall/projects/IoT/mcu/platforms/espressif/esp8266_sdk/2.2.1/ESP8266_NONOS_SDK_2.2.1/lib/libwpa.a(ap_config.o)
 .literal.hostapd_maclist_found
                0x00000000402204e4        0x0 /home/wall/projects/IoT/mcu/platforms/espressif/esp8266_sdk/2.2.1/ESP8266_NONOS_SDK_2.2.1/lib/libwpa.a(ap_config.o)
 .literal.hostapd_rate_found
                0x00000000402204e4        0x0 /home/wall/projects/IoT/mcu/platforms/espressif/esp8266_sdk/2.2.1/ESP8266_NONOS_SDK_2.2.1/lib/libwpa.a(ap_config.o)
 .literal.hostapd_get_psk
                0x00000000402204e4        0x0 /home/wall/projects/IoT/mcu/platforms/espressif/esp8266_sdk/2.2.1/ESP8266_NONOS_SDK_2.2.1/lib/libwpa.a(ap_config.o)
 *fill*         0x00000000402204e4        0x0 
 *fill*         0x00000000402204e4        0x0 
 *fill*         0x00000000402204e4        0x0 
 *fill*         0x00000000402204e4        0x0 
 *fill*         0x00000000402204e4        0x0 
 .text.hostapd_rate_found
                0x00000000402204e4       0x19 /home/wall/projects/IoT/mcu/platforms/espressif/esp8266_sdk/2.2.1/ESP8266_NONOS_SDK_2.2.1/lib/libwpa.a(ap_config.o)
                0x00000000402204e4                hostapd_rate_found
 *fill*         0x00000000402204fd        0x0 
 *fill*         0x00000000402204fd        0x3 
 .literal.inc_byte_array
                0x0000000040220500        0x0 /home/wall/projects/IoT/mcu/platforms/espressif/esp8266_sdk/2.2.1/ESP8266_NONOS_SDK_2.2.1/lib/libwpa.a(common.o)
 .literal.hex2num
                0x0000000040220500        0x0 /home/wall/projects/IoT/mcu/platforms/espressif/esp8266_sdk/2.2.1/ESP8266_NONOS_SDK_2.2.1/lib/libwpa.a(common.o)
 .literal.hex2byte
                0x0000000040220500        0x0 /home/wall/projects/IoT/mcu/platforms/espressif/esp8266_sdk/2.2.1/ESP8266_NONOS_SDK_2.2.1/lib/libwpa.a(common.o)
 .literal.hexstr2bin
                0x0000000040220500        0x0 /home/wall/projects/IoT/mcu/platforms/espressif/esp8266_sdk/2.2.1/ESP8266_NONOS_SDK_2.2.1/lib/libwpa.a(common.o)
 .literal.wpa_get_ntp_timestamp
                0x0000000040220500        0x0 /home/wall/projects/IoT/mcu/platforms/espressif/esp8266_sdk/2.2.1/ESP8266_NONOS_SDK_2.2.1/lib/libwpa.a(common.o)
 .literal.wpa_config_parse_string
                0x0000000040220500        0x0 /home/wall/projects/IoT/mcu/platforms/espressif/esp8266_sdk/2.2.1/ESP8266_NONOS_SDK_2.2.1/lib/libwpa.a(common.o)
 .literal.dup_binstr
                0x0000000040220500        0x0 /home/wall/projects/IoT/mcu/platforms/espressif/esp8266_sdk/2.2.1/ESP8266_NONOS_SDK_2.2.1/lib/libwpa.a(common.o)
 .text.inc_byte_array
                0x0000000040220500       0x1d /home/wall/projects/IoT/mcu/platforms/espressif/esp8266_sdk/2.2.1/ESP8266_NONOS_SDK_2.2.1/lib/libwpa.a(common.o)
                0x0000000040220500                inc_byte_array
 *fill*         0x000000004022051d        0x3 
 .text.hex2num  0x0000000040220520       0x33 /home/wall/projects/IoT/mcu/platforms/espressif/esp8266_sdk/2.2.1/ESP8266_NONOS_SDK_2.2.1/lib/libwpa.a(common.o)
 *fill*         0x0000000040220553        0x0 
 *fill*         0x0000000040220553        0x0 
 *fill*         0x0000000040220553        0x0 
 *fill*         0x0000000040220553        0x1 
 .literal.ets_strdup
                0x0000000040220554        0x0 /home/wall/projects/IoT/mcu/platforms/espressif/esp8266_sdk/2.2.1/ESP8266_NONOS_SDK_2.2.1/lib/libwpa.a(os_xtensa.o)
 .literal.os_get_time
                0x0000000040220554        0x0 /home/wall/projects/IoT/mcu/platforms/espressif/esp8266_sdk/2.2.1/ESP8266_NONOS_SDK_2.2.1/lib/libwpa.a(os_xtensa.o)
 .literal.r_rand
                0x0000000040220554        0x0 /home/wall/projects/IoT/mcu/platforms/espressif/esp8266_sdk/2.2.1/ESP8266_NONOS_SDK_2.2.1/lib/libwpa.a(os_xtensa.o)
 .literal.os_random
                0x0000000040220554        0x0 /home/wall/projects/IoT/mcu/platforms/espressif/esp8266_sdk/2.2.1/ESP8266_NONOS_SDK_2.2.1/lib/libwpa.a(os_xtensa.o)
 .literal.os_get_random
                0x0000000040220554        0x0 /home/wall/projects/IoT/mcu/platforms/espressif/esp8266_sdk/2.2.1/ESP8266_NONOS_SDK_2.2.1/lib/libwpa.a(os_xtensa.o)
 *fill*         0x0000000040220554        0x0 
 .text.os_get_time
                0x0000000040220554        0x4 /home/wall/projects/IoT/mcu/platforms/espressif/esp8266_sdk/2.2.1/ESP8266_NONOS_SDK_2.2.1/lib/libwpa.a(os_xtensa.o)
                0x0000000040220554                os_get_time
 *fill*         0x0000000040220558        0x0 
 *fill*         0x0000000040220558        0x0 
 *fill*         0x0000000040220558        0x0 
 .literal.wpa_key_mgmt_wpa_psk
                0x0000000040220558        0x0 /home/wall/projects/IoT/mcu/platforms/espressif/esp8266_sdk/2.2.1/ESP8266_NONOS_SDK_2.2.1/lib/libwpa.a(wpa_auth.o)
 .literal.wpa_auth_get_sm
                0x0000000040220558        0x0 /home/wall/projects/IoT/mcu/platforms/espressif/esp8266_sdk/2.2.1/ESP8266_NONOS_SDK_2.2.1/lib/libwpa.a(wpa_auth.o)
 .literal.wpa_auth_add_sm
                0x0000000040220558        0x0 /home/wall/projects/IoT/mcu/platforms/espressif/esp8266_sdk/2.2.1/ESP8266_NONOS_SDK_2.2.1/lib/libwpa.a(wpa_auth.o)
 .literal.wpa_auth_del_sm
                0x0000000040220558        0x0 /home/wall/projects/IoT/mcu/platforms/espressif/esp8266_sdk/2.2.1/ESP8266_NONOS_SDK_2.2.1/lib/libwpa.a(wpa_auth.o)
 .literal.wpa_auth_set_key
                0x0000000040220558        0x0 /home/wall/projects/IoT/mcu/platforms/espressif/esp8266_sdk/2.2.1/ESP8266_NONOS_SDK_2.2.1/lib/libwpa.a(wpa_auth.o)
 .literal.wpa_auth_for_each_sta
                0x0000000040220558        0x0 /home/wall/projects/IoT/mcu/platforms/espressif/esp8266_sdk/2.2.1/ESP8266_NONOS_SDK_2.2.1/lib/libwpa.a(wpa_auth.o)
 .literal.wpa_sta_disconnect
                0x0000000040220558        0x0 /home/wall/projects/IoT/mcu/platforms/espressif/esp8266_sdk/2.2.1/ESP8266_NONOS_SDK_2.2.1/lib/libwpa.a(wpa_auth.o)
 .literal.wpa_use_aes_cmac
                0x0000000040220558        0x0 /home/wall/projects/IoT/mcu/platforms/espressif/esp8266_sdk/2.2.1/ESP8266_NONOS_SDK_2.2.1/lib/libwpa.a(wpa_auth.o)
 .literal.wpa_rekey_gtk
                0x0000000040220558        0x0 /home/wall/projects/IoT/mcu/platforms/espressif/esp8266_sdk/2.2.1/ESP8266_NONOS_SDK_2.2.1/lib/libwpa.a(wpa_auth.o)
 .literal.wpa_rekey_ptk
                0x0000000040220558        0x0 /home/wall/projects/IoT/mcu/platforms/espressif/esp8266_sdk/2.2.1/ESP8266_NONOS_SDK_2.2.1/lib/libwpa.a(wpa_auth.o)
 .literal.wpa_group_init_gmk_and_counter
                0x0000000040220558        0x0 /home/wall/projects/IoT/mcu/platforms/espressif/esp8266_sdk/2.2.1/ESP8266_NONOS_SDK_2.2.1/lib/libwpa.a(wpa_auth.o)
 .literal.wpa_group_init
                0x0000000040220558        0x0 /home/wall/projects/IoT/mcu/platforms/espressif/esp8266_sdk/2.2.1/ESP8266_NONOS_SDK_2.2.1/lib/libwpa.a(wpa_auth.o)
 .literal.wpa_init
                0x0000000040220558        0x0 /home/wall/projects/IoT/mcu/platforms/espressif/esp8266_sdk/2.2.1/ESP8266_NONOS_SDK_2.2.1/lib/libwpa.a(wpa_auth.o)
 .literal.wpa_auth_sta_init
                0x0000000040220558        0x0 /home/wall/projects/IoT/mcu/platforms/espressif/esp8266_sdk/2.2.1/ESP8266_NONOS_SDK_2.2.1/lib/libwpa.a(wpa_auth.o)
 .literal.wpa_auth_sta_associated
                0x0000000040220558        0x0 /home/wall/projects/IoT/mcu/platforms/espressif/esp8266_sdk/2.2.1/ESP8266_NONOS_SDK_2.2.1/lib/libwpa.a(wpa_auth.o)
 .literal.wpa_auth_sta_no_wpa
                0x0000000040220558        0x0 /home/wall/projects/IoT/mcu/platforms/espressif/esp8266_sdk/2.2.1/ESP8266_NONOS_SDK_2.2.1/lib/libwpa.a(wpa_auth.o)
 .literal.wpa_free_sta_sm
                0x0000000040220558        0x0 /home/wall/projects/IoT/mcu/platforms/espressif/esp8266_sdk/2.2.1/ESP8266_NONOS_SDK_2.2.1/lib/libwpa.a(wpa_auth.o)
 .literal.wpa_auth_sta_deinit
                0x0000000040220558        0x0 /home/wall/projects/IoT/mcu/platforms/espressif/esp8266_sdk/2.2.1/ESP8266_NONOS_SDK_2.2.1/lib/libwpa.a(wpa_auth.o)
 .literal.wpa_request_new_ptk
                0x0000000040220558        0x0 /home/wall/projects/IoT/mcu/platforms/espressif/esp8266_sdk/2.2.1/ESP8266_NONOS_SDK_2.2.1/lib/libwpa.a(wpa_auth.o)
 .literal.wpa_replay_counter_valid
                0x0000000040220558        0x0 /home/wall/projects/IoT/mcu/platforms/espressif/esp8266_sdk/2.2.1/ESP8266_NONOS_SDK_2.2.1/lib/libwpa.a(wpa_auth.o)
 .literal.wpa_replay_counter_mark_invalid
                0x0000000040220558        0x0 /home/wall/projects/IoT/mcu/platforms/espressif/esp8266_sdk/2.2.1/ESP8266_NONOS_SDK_2.2.1/lib/libwpa.a(wpa_auth.o)
 .literal.wpa_receive_error_report
                0x0000000040220558        0x0 /home/wall/projects/IoT/mcu/platforms/espressif/esp8266_sdk/2.2.1/ESP8266_NONOS_SDK_2.2.1/lib/libwpa.a(wpa_auth.o)
 .literal.wpa_receive
                0x0000000040220558        0x0 /home/wall/projects/IoT/mcu/platforms/espressif/esp8266_sdk/2.2.1/ESP8266_NONOS_SDK_2.2.1/lib/libwpa.a(wpa_auth.o)
 .literal.wpa_gmk_to_gtk
                0x0000000040220558        0x0 /home/wall/projects/IoT/mcu/platforms/espressif/esp8266_sdk/2.2.1/ESP8266_NONOS_SDK_2.2.1/lib/libwpa.a(wpa_auth.o)
 .literal.wpa_send_eapol_timeout
                0x0000000040220558        0x0 /home/wall/projects/IoT/mcu/platforms/espressif/esp8266_sdk/2.2.1/ESP8266_NONOS_SDK_2.2.1/lib/libwpa.a(wpa_auth.o)
 .literal.__wpa_send_eapol
                0x0000000040220558        0x0 /home/wall/projects/IoT/mcu/platforms/espressif/esp8266_sdk/2.2.1/ESP8266_NONOS_SDK_2.2.1/lib/libwpa.a(wpa_auth.o)
 .literal.resend_eapol_handle
                0x0000000040220558        0x0 /home/wall/projects/IoT/mcu/platforms/espressif/esp8266_sdk/2.2.1/ESP8266_NONOS_SDK_2.2.1/lib/libwpa.a(wpa_auth.o)
 .literal.wpa_send_eapol
                0x0000000040220558        0x0 /home/wall/projects/IoT/mcu/platforms/espressif/esp8266_sdk/2.2.1/ESP8266_NONOS_SDK_2.2.1/lib/libwpa.a(wpa_auth.o)
 .literal.wpa_verify_key_mic
                0x0000000040220558        0x0 /home/wall/projects/IoT/mcu/platforms/espressif/esp8266_sdk/2.2.1/ESP8266_NONOS_SDK_2.2.1/lib/libwpa.a(wpa_auth.o)
 .literal.wpa_remove_ptk
                0x0000000040220558        0x0 /home/wall/projects/IoT/mcu/platforms/espressif/esp8266_sdk/2.2.1/ESP8266_NONOS_SDK_2.2.1/lib/libwpa.a(wpa_auth.o)
 .literal.wpa_auth_sm_event
                0x0000000040220558        0x0 /home/wall/projects/IoT/mcu/platforms/espressif/esp8266_sdk/2.2.1/ESP8266_NONOS_SDK_2.2.1/lib/libwpa.a(wpa_auth.o)
 .literal.sm_WPA_PTK_INITIALIZE_Enter
                0x0000000040220558        0x0 /home/wall/projects/IoT/mcu/platforms/espressif/esp8266_sdk/2.2.1/ESP8266_NONOS_SDK_2.2.1/lib/libwpa.a(wpa_auth.o)
 .literal.sm_WPA_PTK_DISCONNECT_Enter
                0x0000000040220558        0x0 /home/wall/projects/IoT/mcu/platforms/espressif/esp8266_sdk/2.2.1/ESP8266_NONOS_SDK_2.2.1/lib/libwpa.a(wpa_auth.o)
 .literal.sm_WPA_PTK_DISCONNECTED_Enter
                0x0000000040220558        0x0 /home/wall/projects/IoT/mcu/platforms/espressif/esp8266_sdk/2.2.1/ESP8266_NONOS_SDK_2.2.1/lib/libwpa.a(wpa_auth.o)
 .literal.sm_WPA_PTK_AUTHENTICATION_Enter
                0x0000000040220558        0x0 /home/wall/projects/IoT/mcu/platforms/espressif/esp8266_sdk/2.2.1/ESP8266_NONOS_SDK_2.2.1/lib/libwpa.a(wpa_auth.o)
 .literal.wpa_group_ensure_init
                0x0000000040220558        0x0 /home/wall/projects/IoT/mcu/platforms/espressif/esp8266_sdk/2.2.1/ESP8266_NONOS_SDK_2.2.1/lib/libwpa.a(wpa_auth.o)
 .literal.sm_WPA_PTK_AUTHENTICATION2_Enter
                0x0000000040220558        0x0 /home/wall/projects/IoT/mcu/platforms/espressif/esp8266_sdk/2.2.1/ESP8266_NONOS_SDK_2.2.1/lib/libwpa.a(wpa_auth.o)
 .literal.sm_WPA_PTK_INITPMK_Enter
                0x0000000040220558        0x0 /home/wall/projects/IoT/mcu/platforms/espressif/esp8266_sdk/2.2.1/ESP8266_NONOS_SDK_2.2.1/lib/libwpa.a(wpa_auth.o)
 .literal.sm_WPA_PTK_INITPSK_Enter
                0x0000000040220558        0x0 /home/wall/projects/IoT/mcu/platforms/espressif/esp8266_sdk/2.2.1/ESP8266_NONOS_SDK_2.2.1/lib/libwpa.a(wpa_auth.o)
 .literal.sm_WPA_PTK_PTKSTART_Enter
                0x0000000040220558        0x0 /home/wall/projects/IoT/mcu/platforms/espressif/esp8266_sdk/2.2.1/ESP8266_NONOS_SDK_2.2.1/lib/libwpa.a(wpa_auth.o)
 .literal.wpa_derive_ptk
                0x0000000040220558        0x0 /home/wall/projects/IoT/mcu/platforms/espressif/esp8266_sdk/2.2.1/ESP8266_NONOS_SDK_2.2.1/lib/libwpa.a(wpa_auth.o)
 .literal.sm_WPA_PTK_PTKCALCNEGOTIATING_Enter
                0x0000000040220558        0x0 /home/wall/projects/IoT/mcu/platforms/espressif/esp8266_sdk/2.2.1/ESP8266_NONOS_SDK_2.2.1/lib/libwpa.a(wpa_auth.o)
 .literal.sm_WPA_PTK_PTKCALCNEGOTIATING2_Enter
                0x0000000040220558        0x0 /home/wall/projects/IoT/mcu/platforms/espressif/esp8266_sdk/2.2.1/ESP8266_NONOS_SDK_2.2.1/lib/libwpa.a(wpa_auth.o)
 .literal.ieee80211w_kde_len
                0x0000000040220558        0x0 /home/wall/projects/IoT/mcu/platforms/espressif/esp8266_sdk/2.2.1/ESP8266_NONOS_SDK_2.2.1/lib/libwpa.a(wpa_auth.o)
 .literal.ieee80211w_kde_add
                0x0000000040220558        0x0 /home/wall/projects/IoT/mcu/platforms/espressif/esp8266_sdk/2.2.1/ESP8266_NONOS_SDK_2.2.1/lib/libwpa.a(wpa_auth.o)
 .literal.sm_WPA_PTK_PTKINITNEGOTIATING_Enter
                0x0000000040220558        0x0 /home/wall/projects/IoT/mcu/platforms/espressif/esp8266_sdk/2.2.1/ESP8266_NONOS_SDK_2.2.1/lib/libwpa.a(wpa_auth.o)
 .literal.sm_WPA_PTK_PTKINITDONE_Enter
                0x0000000040220558        0x0 /home/wall/projects/IoT/mcu/platforms/espressif/esp8266_sdk/2.2.1/ESP8266_NONOS_SDK_2.2.1/lib/libwpa.a(wpa_auth.o)
 .literal.sm_WPA_PTK_Step
                0x0000000040220558        0x0 /home/wall/projects/IoT/mcu/platforms/espressif/esp8266_sdk/2.2.1/ESP8266_NONOS_SDK_2.2.1/lib/libwpa.a(wpa_auth.o)
 .literal.sm_WPA_PTK_GROUP_IDLE_Enter
                0x0000000040220558        0x0 /home/wall/projects/IoT/mcu/platforms/espressif/esp8266_sdk/2.2.1/ESP8266_NONOS_SDK_2.2.1/lib/libwpa.a(wpa_auth.o)
 .literal.sm_WPA_PTK_GROUP_REKEYNEGOTIATING_Enter
                0x0000000040220558        0x0 /home/wall/projects/IoT/mcu/platforms/espressif/esp8266_sdk/2.2.1/ESP8266_NONOS_SDK_2.2.1/lib/libwpa.a(wpa_auth.o)
 .literal.sm_WPA_PTK_GROUP_REKEYESTABLISHED_Enter
                0x0000000040220558        0x0 /home/wall/projects/IoT/mcu/platforms/espressif/esp8266_sdk/2.2.1/ESP8266_NONOS_SDK_2.2.1/lib/libwpa.a(wpa_auth.o)
 .literal.sm_WPA_PTK_GROUP_KEYERROR_Enter
                0x0000000040220558        0x0 /home/wall/projects/IoT/mcu/platforms/espressif/esp8266_sdk/2.2.1/ESP8266_NONOS_SDK_2.2.1/lib/libwpa.a(wpa_auth.o)
 .literal.sm_WPA_PTK_GROUP_Step
                0x0000000040220558        0x0 /home/wall/projects/IoT/mcu/platforms/espressif/esp8266_sdk/2.2.1/ESP8266_NONOS_SDK_2.2.1/lib/libwpa.a(wpa_auth.o)
 .literal.wpa_gtk_update
                0x0000000040220558        0x0 /home/wall/projects/IoT/mcu/platforms/espressif/esp8266_sdk/2.2.1/ESP8266_NONOS_SDK_2.2.1/lib/libwpa.a(wpa_auth.o)
 .literal.wpa_group_gtk_init
                0x0000000040220558        0x0 /home/wall/projects/IoT/mcu/platforms/espressif/esp8266_sdk/2.2.1/ESP8266_NONOS_SDK_2.2.1/lib/libwpa.a(wpa_auth.o)
 .literal.wpa_group_update_sta
                0x0000000040220558        0x0 /home/wall/projects/IoT/mcu/platforms/espressif/esp8266_sdk/2.2.1/ESP8266_NONOS_SDK_2.2.1/lib/libwpa.a(wpa_auth.o)
 .literal.wpa_group_setkeys
                0x0000000040220558        0x0 /home/wall/projects/IoT/mcu/platforms/espressif/esp8266_sdk/2.2.1/ESP8266_NONOS_SDK_2.2.1/lib/libwpa.a(wpa_auth.o)
 .literal.wpa_group_config_group_keys
                0x0000000040220558        0x0 /home/wall/projects/IoT/mcu/platforms/espressif/esp8266_sdk/2.2.1/ESP8266_NONOS_SDK_2.2.1/lib/libwpa.a(wpa_auth.o)
 .literal.wpa_group_setkeysdone
                0x0000000040220558        0x0 /home/wall/projects/IoT/mcu/platforms/espressif/esp8266_sdk/2.2.1/ESP8266_NONOS_SDK_2.2.1/lib/libwpa.a(wpa_auth.o)
 .literal.wpa_group_sm_step
                0x0000000040220558        0x0 /home/wall/projects/IoT/mcu/platforms/espressif/esp8266_sdk/2.2.1/ESP8266_NONOS_SDK_2.2.1/lib/libwpa.a(wpa_auth.o)
 .literal.wpa_sm_step
                0x0000000040220558        0x0 /home/wall/projects/IoT/mcu/platforms/espressif/esp8266_sdk/2.2.1/ESP8266_NONOS_SDK_2.2.1/lib/libwpa.a(wpa_auth.o)
 .text.wpa_key_mgmt_wpa_psk
                0x0000000040220558       0x11 /home/wall/projects/IoT/mcu/platforms/espressif/esp8266_sdk/2.2.1/ESP8266_NONOS_SDK_2.2.1/lib/libwpa.a(wpa_auth.o)
 *fill*         0x0000000040220569        0x0 
 *fill*         0x0000000040220569        0x0 
 *fill*         0x0000000040220569        0x0 
 *fill*         0x0000000040220569        0x0 
 *fill*         0x0000000040220569        0x3 
 .text.wpa_auth_for_each_sta
                0x000000004022056c        0x4 /home/wall/projects/IoT/mcu/platforms/espressif/esp8266_sdk/2.2.1/ESP8266_NONOS_SDK_2.2.1/lib/libwpa.a(wpa_auth.o)
                0x000000004022056c                wpa_auth_for_each_sta
 .text.wpa_sta_disconnect
                0x0000000040220570        0x2 /home/wall/projects/IoT/mcu/platforms/espressif/esp8266_sdk/2.2.1/ESP8266_NONOS_SDK_2.2.1/lib/libwpa.a(wpa_auth.o)
 *fill*         0x0000000040220572        0x2 
 .text.wpa_use_aes_cmac
                0x0000000040220574        0x4 /home/wall/projects/IoT/mcu/platforms/espressif/esp8266_sdk/2.2.1/ESP8266_NONOS_SDK_2.2.1/lib/libwpa.a(wpa_auth.o)
 *fill*         0x0000000040220578        0x0 
 *fill*         0x0000000040220578        0x0 
 *fill*         0x0000000040220578        0x0 
 *fill*         0x0000000040220578        0x0 
 *fill*         0x0000000040220578        0x0 
 *fill*         0x0000000040220578        0x0 
 *fill*         0x0000000040220578        0x0 
 .text.wpa_auth_sta_no_wpa
                0x0000000040220578        0x9 /home/wall/projects/IoT/mcu/platforms/espressif/esp8266_sdk/2.2.1/ESP8266_NONOS_SDK_2.2.1/lib/libwpa.a(wpa_auth.o)
                0x0000000040220578                wpa_auth_sta_no_wpa
 *fill*         0x0000000040220581        0x0 
 *fill*         0x0000000040220581        0x0 
 *fill*         0x0000000040220581        0x3 
 .text.wpa_request_new_ptk
                0x0000000040220584        0xe /home/wall/projects/IoT/mcu/platforms/espressif/esp8266_sdk/2.2.1/ESP8266_NONOS_SDK_2.2.1/lib/libwpa.a(wpa_auth.o)
 *fill*         0x0000000040220592        0x0 
 *fill*         0x0000000040220592        0x0 
 *fill*         0x0000000040220592        0x0 
 *fill*         0x0000000040220592        0x0 
 *fill*         0x0000000040220592        0x0 
 *fill*         0x0000000040220592        0x0 
 *fill*         0x0000000040220592        0x0 
 *fill*         0x0000000040220592        0x0 
 *fill*         0x0000000040220592        0x0 
 *fill*         0x0000000040220592        0x0 
 *fill*         0x0000000040220592        0x0 
 *fill*         0x0000000040220592        0x2 
 .text.sm_WPA_PTK_DISCONNECTED_Enter
                0x0000000040220594       0x1c /home/wall/projects/IoT/mcu/platforms/espressif/esp8266_sdk/2.2.1/ESP8266_NONOS_SDK_2.2.1/lib/libwpa.a(wpa_auth.o)
 *fill*         0x00000000402205b0        0x0 
 *fill*         0x00000000402205b0        0x0 
 *fill*         0x00000000402205b0        0x0 
 .text.sm_WPA_PTK_INITPMK_Enter
                0x00000000402205b0       0x1d /home/wall/projects/IoT/mcu/platforms/espressif/esp8266_sdk/2.2.1/ESP8266_NONOS_SDK_2.2.1/lib/libwpa.a(wpa_auth.o)
 *fill*         0x00000000402205cd        0x0 
 *fill*         0x00000000402205cd        0x0 
 *fill*         0x00000000402205cd        0x0 
 *fill*         0x00000000402205cd        0x0 
 *fill*         0x00000000402205cd        0x3 
 .text.sm_WPA_PTK_PTKCALCNEGOTIATING2_Enter
                0x00000000402205d0       0x1c /home/wall/projects/IoT/mcu/platforms/espressif/esp8266_sdk/2.2.1/ESP8266_NONOS_SDK_2.2.1/lib/libwpa.a(wpa_auth.o)
 .text.ieee80211w_kde_len
                0x00000000402205ec        0x4 /home/wall/projects/IoT/mcu/platforms/espressif/esp8266_sdk/2.2.1/ESP8266_NONOS_SDK_2.2.1/lib/libwpa.a(wpa_auth.o)
 .text.ieee80211w_kde_add
                0x00000000402205f0        0x4 /home/wall/projects/IoT/mcu/platforms/espressif/esp8266_sdk/2.2.1/ESP8266_NONOS_SDK_2.2.1/lib/libwpa.a(wpa_auth.o)
 *fill*         0x00000000402205f4        0x0 
 *fill*         0x00000000402205f4        0x0 
 .text.sm_WPA_PTK_GROUP_IDLE_Enter
                0x00000000402205f4       0x28 /home/wall/projects/IoT/mcu/platforms/espressif/esp8266_sdk/2.2.1/ESP8266_NONOS_SDK_2.2.1/lib/libwpa.a(wpa_auth.o)
 *fill*         0x000000004022061c        0x0 
 .text.sm_WPA_PTK_GROUP_REKEYESTABLISHED_Enter
                0x000000004022061c       0x31 /home/wall/projects/IoT/mcu/platforms/espressif/esp8266_sdk/2.2.1/ESP8266_NONOS_SDK_2.2.1/lib/libwpa.a(wpa_auth.o)
 *fill*         0x000000004022064d        0x3 
 .text.sm_WPA_PTK_GROUP_KEYERROR_Enter
                0x0000000040220650       0x2c /home/wall/projects/IoT/mcu/platforms/espressif/esp8266_sdk/2.2.1/ESP8266_NONOS_SDK_2.2.1/lib/libwpa.a(wpa_auth.o)
 *fill*         0x000000004022067c        0x0 
 *fill*         0x000000004022067c        0x0 
 *fill*         0x000000004022067c        0x0 
 *fill*         0x000000004022067c        0x0 
 *fill*         0x000000004022067c        0x0 
 *fill*         0x000000004022067c        0x0 
 *fill*         0x000000004022067c        0x0 
 .literal.wpa_write_wpa_ie
                0x000000004022067c        0x0 /home/wall/projects/IoT/mcu/platforms/espressif/esp8266_sdk/2.2.1/ESP8266_NONOS_SDK_2.2.1/lib/libwpa.a(wpa_auth_ie.o)
 .literal.wpa_write_rsn_ie
                0x000000004022067c        0x0 /home/wall/projects/IoT/mcu/platforms/espressif/esp8266_sdk/2.2.1/ESP8266_NONOS_SDK_2.2.1/lib/libwpa.a(wpa_auth_ie.o)
 .literal.wpa_auth_gen_wpa_ie
                0x000000004022067c        0x0 /home/wall/projects/IoT/mcu/platforms/espressif/esp8266_sdk/2.2.1/ESP8266_NONOS_SDK_2.2.1/lib/libwpa.a(wpa_auth_ie.o)
 .literal.wpa_add_kde
                0x000000004022067c        0x0 /home/wall/projects/IoT/mcu/platforms/espressif/esp8266_sdk/2.2.1/ESP8266_NONOS_SDK_2.2.1/lib/libwpa.a(wpa_auth_ie.o)
 .literal.wpa_validate_wpa_ie
                0x000000004022067c        0x0 /home/wall/projects/IoT/mcu/platforms/espressif/esp8266_sdk/2.2.1/ESP8266_NONOS_SDK_2.2.1/lib/libwpa.a(wpa_auth_ie.o)
 .literal.wpa_parse_generic
                0x000000004022067c        0x0 /home/wall/projects/IoT/mcu/platforms/espressif/esp8266_sdk/2.2.1/ESP8266_NONOS_SDK_2.2.1/lib/libwpa.a(wpa_auth_ie.o)
 .literal.wpa_parse_kde_ies
                0x000000004022067c        0x0 /home/wall/projects/IoT/mcu/platforms/espressif/esp8266_sdk/2.2.1/ESP8266_NONOS_SDK_2.2.1/lib/libwpa.a(wpa_auth_ie.o)
 .literal.wpa_auth_uses_mfp
                0x000000004022067c        0x0 /home/wall/projects/IoT/mcu/platforms/espressif/esp8266_sdk/2.2.1/ESP8266_NONOS_SDK_2.2.1/lib/libwpa.a(wpa_auth_ie.o)
 *fill*         0x000000004022067c        0x0 
 *fill*         0x000000004022067c        0x0 
 *fill*         0x000000004022067c        0x0 
 *fill*         0x000000004022067c        0x0 
 *fill*         0x000000004022067c        0x0 
 *fill*         0x000000004022067c        0x0 
 *fill*         0x000000004022067c        0x0 
 .text.wpa_auth_uses_mfp
                0x000000004022067c        0xe /home/wall/projects/IoT/mcu/platforms/espressif/esp8266_sdk/2.2.1/ESP8266_NONOS_SDK_2.2.1/lib/libwpa.a(wpa_auth_ie.o)
                0x000000004022067c                wpa_auth_uses_mfp
 *fill*         0x000000004022068a        0x2 
 .literal.eapol_sm_notify_eap_success
                0x000000004022068c        0x0 /home/wall/projects/IoT/mcu/platforms/espressif/esp8266_sdk/2.2.1/ESP8266_NONOS_SDK_2.2.1/lib/libwpa.a(wpa.o)
 .literal.wpa_eapol_key_send
                0x000000004022068c        0x0 /home/wall/projects/IoT/mcu/platforms/espressif/esp8266_sdk/2.2.1/ESP8266_NONOS_SDK_2.2.1/lib/libwpa.a(wpa.o)
 .literal.wpa_sm_key_request
                0x000000004022068c        0x0 /home/wall/projects/IoT/mcu/platforms/espressif/esp8266_sdk/2.2.1/ESP8266_NONOS_SDK_2.2.1/lib/libwpa.a(wpa.o)
 .literal.wpa_supplicant_get_pmk
                0x000000004022068c        0x0 /home/wall/projects/IoT/mcu/platforms/espressif/esp8266_sdk/2.2.1/ESP8266_NONOS_SDK_2.2.1/lib/libwpa.a(wpa.o)
 .literal.wpa_supplicant_send_2_of_4
                0x000000004022068c        0x0 /home/wall/projects/IoT/mcu/platforms/espressif/esp8266_sdk/2.2.1/ESP8266_NONOS_SDK_2.2.1/lib/libwpa.a(wpa.o)
 .literal.wpa_derive_ptk
                0x000000004022068c        0x0 /home/wall/projects/IoT/mcu/platforms/espressif/esp8266_sdk/2.2.1/ESP8266_NONOS_SDK_2.2.1/lib/libwpa.a(wpa.o)
 .literal.wpa_supplicant_process_1_of_4
                0x000000004022068c        0x0 /home/wall/projects/IoT/mcu/platforms/espressif/esp8266_sdk/2.2.1/ESP8266_NONOS_SDK_2.2.1/lib/libwpa.a(wpa.o)
 .literal.wpa_sm_rekey_ptk
                0x000000004022068c        0x0 /home/wall/projects/IoT/mcu/platforms/espressif/esp8266_sdk/2.2.1/ESP8266_NONOS_SDK_2.2.1/lib/libwpa.a(wpa.o)
 .literal.wpa_supplicant_install_ptk
                0x000000004022068c        0x0 /home/wall/projects/IoT/mcu/platforms/espressif/esp8266_sdk/2.2.1/ESP8266_NONOS_SDK_2.2.1/lib/libwpa.a(wpa.o)
 .literal.wpa_supplicant_check_group_cipher
                0x000000004022068c        0x0 /home/wall/projects/IoT/mcu/platforms/espressif/esp8266_sdk/2.2.1/ESP8266_NONOS_SDK_2.2.1/lib/libwpa.a(wpa.o)
 .literal.wpa_supplicant_key_neg_complete
                0x000000004022068c        0x0 /home/wall/projects/IoT/mcu/platforms/espressif/esp8266_sdk/2.2.1/ESP8266_NONOS_SDK_2.2.1/lib/libwpa.a(wpa.o)
 .literal.wpa_supplicant_install_gtk
                0x000000004022068c        0x0 /home/wall/projects/IoT/mcu/platforms/espressif/esp8266_sdk/2.2.1/ESP8266_NONOS_SDK_2.2.1/lib/libwpa.a(wpa.o)
 .literal.wpa_supplicant_gtk_in_use
                0x000000004022068c        0x0 /home/wall/projects/IoT/mcu/platforms/espressif/esp8266_sdk/2.2.1/ESP8266_NONOS_SDK_2.2.1/lib/libwpa.a(wpa.o)
 .literal.wpa_supplicant_gtk_tx_bit_workaround
                0x000000004022068c        0x0 /home/wall/projects/IoT/mcu/platforms/espressif/esp8266_sdk/2.2.1/ESP8266_NONOS_SDK_2.2.1/lib/libwpa.a(wpa.o)
 .literal.wpa_supplicant_pairwise_gtk
                0x000000004022068c        0x0 /home/wall/projects/IoT/mcu/platforms/espressif/esp8266_sdk/2.2.1/ESP8266_NONOS_SDK_2.2.1/lib/libwpa.a(wpa.o)
 .literal.wpa_report_ie_mismatch
                0x000000004022068c        0x0 /home/wall/projects/IoT/mcu/platforms/espressif/esp8266_sdk/2.2.1/ESP8266_NONOS_SDK_2.2.1/lib/libwpa.a(wpa.o)
 .literal.ieee80211w_set_keys
                0x000000004022068c        0x0 /home/wall/projects/IoT/mcu/platforms/espressif/esp8266_sdk/2.2.1/ESP8266_NONOS_SDK_2.2.1/lib/libwpa.a(wpa.o)
 .literal.wpa_supplicant_validate_ie
                0x000000004022068c        0x0 /home/wall/projects/IoT/mcu/platforms/espressif/esp8266_sdk/2.2.1/ESP8266_NONOS_SDK_2.2.1/lib/libwpa.a(wpa.o)
 .literal.wpa_supplicant_send_4_of_4
                0x000000004022068c        0x0 /home/wall/projects/IoT/mcu/platforms/espressif/esp8266_sdk/2.2.1/ESP8266_NONOS_SDK_2.2.1/lib/libwpa.a(wpa.o)
 .literal.wpa_sm_set_seq
                0x000000004022068c        0x0 /home/wall/projects/IoT/mcu/platforms/espressif/esp8266_sdk/2.2.1/ESP8266_NONOS_SDK_2.2.1/lib/libwpa.a(wpa.o)
 .literal.wpa_supplicant_process_3_of_4
                0x000000004022068c        0x0 /home/wall/projects/IoT/mcu/platforms/espressif/esp8266_sdk/2.2.1/ESP8266_NONOS_SDK_2.2.1/lib/libwpa.a(wpa.o)
 .literal.wpa_supplicant_send_4_of_4_txcallback
                0x000000004022068c        0x0 /home/wall/projects/IoT/mcu/platforms/espressif/esp8266_sdk/2.2.1/ESP8266_NONOS_SDK_2.2.1/lib/libwpa.a(wpa.o)
 .literal.wpa_supplicant_process_1_of_2_rsn
                0x000000004022068c        0x0 /home/wall/projects/IoT/mcu/platforms/espressif/esp8266_sdk/2.2.1/ESP8266_NONOS_SDK_2.2.1/lib/libwpa.a(wpa.o)
 .literal.wpa_supplicant_process_1_of_2_wpa
                0x000000004022068c        0x0 /home/wall/projects/IoT/mcu/platforms/espressif/esp8266_sdk/2.2.1/ESP8266_NONOS_SDK_2.2.1/lib/libwpa.a(wpa.o)
 .literal.wpa_supplicant_send_2_of_2
                0x000000004022068c        0x0 /home/wall/projects/IoT/mcu/platforms/espressif/esp8266_sdk/2.2.1/ESP8266_NONOS_SDK_2.2.1/lib/libwpa.a(wpa.o)
 .literal.wpa_supplicant_process_1_of_2
                0x000000004022068c        0x0 /home/wall/projects/IoT/mcu/platforms/espressif/esp8266_sdk/2.2.1/ESP8266_NONOS_SDK_2.2.1/lib/libwpa.a(wpa.o)
 .literal.wpa_supplicant_send_2_of_2_txcallback
                0x000000004022068c        0x0 /home/wall/projects/IoT/mcu/platforms/espressif/esp8266_sdk/2.2.1/ESP8266_NONOS_SDK_2.2.1/lib/libwpa.a(wpa.o)
 .literal.wpa_supplicant_verify_eapol_key_mic
                0x000000004022068c        0x0 /home/wall/projects/IoT/mcu/platforms/espressif/esp8266_sdk/2.2.1/ESP8266_NONOS_SDK_2.2.1/lib/libwpa.a(wpa.o)
 .literal.wpa_supplicant_decrypt_key_data
                0x000000004022068c        0x0 /home/wall/projects/IoT/mcu/platforms/espressif/esp8266_sdk/2.2.1/ESP8266_NONOS_SDK_2.2.1/lib/libwpa.a(wpa.o)
 .literal.wpa_eapol_key_dump
                0x000000004022068c        0x0 /home/wall/projects/IoT/mcu/platforms/espressif/esp8266_sdk/2.2.1/ESP8266_NONOS_SDK_2.2.1/lib/libwpa.a(wpa.o)
 .literal.wpa_sm_rx_eapol
                0x000000004022068c        0x0 /home/wall/projects/IoT/mcu/platforms/espressif/esp8266_sdk/2.2.1/ESP8266_NONOS_SDK_2.2.1/lib/libwpa.a(wpa.o)
 .literal.wpa_register
                0x000000004022068c        0x0 /home/wall/projects/IoT/mcu/platforms/espressif/esp8266_sdk/2.2.1/ESP8266_NONOS_SDK_2.2.1/lib/libwpa.a(wpa.o)
 .literal.wpa_set_profile
                0x000000004022068c        0x0 /home/wall/projects/IoT/mcu/platforms/espressif/esp8266_sdk/2.2.1/ESP8266_NONOS_SDK_2.2.1/lib/libwpa.a(wpa.o)
 .literal.wpa_set_pmk
                0x000000004022068c        0x0 /home/wall/projects/IoT/mcu/platforms/espressif/esp8266_sdk/2.2.1/ESP8266_NONOS_SDK_2.2.1/lib/libwpa.a(wpa.o)
 .literal.wpa_set_bss
                0x000000004022068c        0x0 /home/wall/projects/IoT/mcu/platforms/espressif/esp8266_sdk/2.2.1/ESP8266_NONOS_SDK_2.2.1/lib/libwpa.a(wpa.o)
 .literal.wpa_set_passphrase
                0x000000004022068c        0x0 /home/wall/projects/IoT/mcu/platforms/espressif/esp8266_sdk/2.2.1/ESP8266_NONOS_SDK_2.2.1/lib/libwpa.a(wpa.o)
 .literal.set_assoc_ie
                0x000000004022068c        0x0 /home/wall/projects/IoT/mcu/platforms/espressif/esp8266_sdk/2.2.1/ESP8266_NONOS_SDK_2.2.1/lib/libwpa.a(wpa.o)
 .literal.wpa_sm_set_key
                0x000000004022068c        0x0 /home/wall/projects/IoT/mcu/platforms/espressif/esp8266_sdk/2.2.1/ESP8266_NONOS_SDK_2.2.1/lib/libwpa.a(wpa.o)
 .literal.wpa_supplicant_clr_countermeasures
                0x000000004022068c        0x0 /home/wall/projects/IoT/mcu/platforms/espressif/esp8266_sdk/2.2.1/ESP8266_NONOS_SDK_2.2.1/lib/libwpa.a(wpa.o)
 .literal.wpa_sm_get_key
                0x000000004022068c        0x0 /home/wall/projects/IoT/mcu/platforms/espressif/esp8266_sdk/2.2.1/ESP8266_NONOS_SDK_2.2.1/lib/libwpa.a(wpa.o)
 .literal.wpa_supplicant_stop_countermeasures
                0x000000004022068c        0x0 /home/wall/projects/IoT/mcu/platforms/espressif/esp8266_sdk/2.2.1/ESP8266_NONOS_SDK_2.2.1/lib/libwpa.a(wpa.o)
 .literal.pp_michael_mic_failure
                0x000000004022068c        0x0 /home/wall/projects/IoT/mcu/platforms/espressif/esp8266_sdk/2.2.1/ESP8266_NONOS_SDK_2.2.1/lib/libwpa.a(wpa.o)
 .literal.eapol_txcb
                0x000000004022068c        0x0 /home/wall/projects/IoT/mcu/platforms/espressif/esp8266_sdk/2.2.1/ESP8266_NONOS_SDK_2.2.1/lib/libwpa.a(wpa.o)
 .literal.wpa_sm_set_state
                0x000000004022068c        0x0 /home/wall/projects/IoT/mcu/platforms/espressif/esp8266_sdk/2.2.1/ESP8266_NONOS_SDK_2.2.1/lib/libwpa.a(wpa.o)
 .text.eapol_sm_notify_eap_success
                0x000000004022068c        0x2 /home/wall/projects/IoT/mcu/platforms/espressif/esp8266_sdk/2.2.1/ESP8266_NONOS_SDK_2.2.1/lib/libwpa.a(wpa.o)
 *fill*         0x000000004022068e        0x2 
 .text.wpa_supplicant_get_pmk
                0x0000000040220690        0xb /home/wall/projects/IoT/mcu/platforms/espressif/esp8266_sdk/2.2.1/ESP8266_NONOS_SDK_2.2.1/lib/libwpa.a(wpa.o)
 *fill*         0x000000004022069b        0x0 
 *fill*         0x000000004022069b        0x0 
 *fill*         0x000000004022069b        0x0 
 *fill*         0x000000004022069b        0x1 
 .text.wpa_supplicant_check_group_cipher
                0x000000004022069c       0x56 /home/wall/projects/IoT/mcu/platforms/espressif/esp8266_sdk/2.2.1/ESP8266_NONOS_SDK_2.2.1/lib/libwpa.a(wpa.o)
 *fill*         0x00000000402206f2        0x2 
 .text.wpa_supplicant_gtk_tx_bit_workaround
                0x00000000402206f4       0x10 /home/wall/projects/IoT/mcu/platforms/espressif/esp8266_sdk/2.2.1/ESP8266_NONOS_SDK_2.2.1/lib/libwpa.a(wpa.o)
 *fill*         0x0000000040220704        0x0 
 .text.ieee80211w_set_keys
                0x0000000040220704        0x4 /home/wall/projects/IoT/mcu/platforms/espressif/esp8266_sdk/2.2.1/ESP8266_NONOS_SDK_2.2.1/lib/libwpa.a(wpa.o)
 *fill*         0x0000000040220708        0x0 
 *fill*         0x0000000040220708        0x0 
 *fill*         0x0000000040220708        0x0 
 *fill*         0x0000000040220708        0x0 
 *fill*         0x0000000040220708        0x0 
 *fill*         0x0000000040220708        0x0 
 *fill*         0x0000000040220708        0x0 
 .text.wpa_eapol_key_dump
                0x0000000040220708        0x2 /home/wall/projects/IoT/mcu/platforms/espressif/esp8266_sdk/2.2.1/ESP8266_NONOS_SDK_2.2.1/lib/libwpa.a(wpa.o)
 *fill*         0x000000004022070a        0x0 
 *fill*         0x000000004022070a        0x0 
 *fill*         0x000000004022070a        0x0 
 *fill*         0x000000004022070a        0x0 
 *fill*         0x000000004022070a        0x0 
 *fill*         0x000000004022070a        0x0 
 *fill*         0x000000004022070a        0x0 
 *fill*         0x000000004022070a        0x0 
 *fill*         0x000000004022070a        0x2 
 .literal.rsn_selector_to_bitfield
                0x000000004022070c        0x0 /home/wall/projects/IoT/mcu/platforms/espressif/esp8266_sdk/2.2.1/ESP8266_NONOS_SDK_2.2.1/lib/libwpa.a(wpa_common.o)
 .literal.rsn_key_mgmt_to_bitfield
                0x000000004022070c        0x0 /home/wall/projects/IoT/mcu/platforms/espressif/esp8266_sdk/2.2.1/ESP8266_NONOS_SDK_2.2.1/lib/libwpa.a(wpa_common.o)
 .literal.wpa_selector_to_bitfield
                0x000000004022070c        0x0 /home/wall/projects/IoT/mcu/platforms/espressif/esp8266_sdk/2.2.1/ESP8266_NONOS_SDK_2.2.1/lib/libwpa.a(wpa_common.o)
 .literal.wpa_key_mgmt_to_bitfield
                0x000000004022070c        0x0 /home/wall/projects/IoT/mcu/platforms/espressif/esp8266_sdk/2.2.1/ESP8266_NONOS_SDK_2.2.1/lib/libwpa.a(wpa_common.o)
 .literal.wpa_parse_wpa_ie_rsn
                0x000000004022070c        0x0 /home/wall/projects/IoT/mcu/platforms/espressif/esp8266_sdk/2.2.1/ESP8266_NONOS_SDK_2.2.1/lib/libwpa.a(wpa_common.o)
 .literal.wpa_parse_wpa_ie_wpa
                0x000000004022070c        0x0 /home/wall/projects/IoT/mcu/platforms/espressif/esp8266_sdk/2.2.1/ESP8266_NONOS_SDK_2.2.1/lib/libwpa.a(wpa_common.o)
 .literal.wpa_eapol_key_mic
                0x000000004022070c        0x0 /home/wall/projects/IoT/mcu/platforms/espressif/esp8266_sdk/2.2.1/ESP8266_NONOS_SDK_2.2.1/lib/libwpa.a(wpa_common.o)
 .literal.wpa_compare_rsn_ie
                0x000000004022070c        0x0 /home/wall/projects/IoT/mcu/platforms/espressif/esp8266_sdk/2.2.1/ESP8266_NONOS_SDK_2.2.1/lib/libwpa.a(wpa_common.o)
 .literal.wpa_pmk_to_ptk
                0x000000004022070c        0x0 /home/wall/projects/IoT/mcu/platforms/espressif/esp8266_sdk/2.2.1/ESP8266_NONOS_SDK_2.2.1/lib/libwpa.a(wpa_common.o)
 .literal.rsn_pmkid
                0x000000004022070c        0x0 /home/wall/projects/IoT/mcu/platforms/espressif/esp8266_sdk/2.2.1/ESP8266_NONOS_SDK_2.2.1/lib/libwpa.a(wpa_common.o)
 .literal.wpa_cipher_key_len
                0x000000004022070c        0x0 /home/wall/projects/IoT/mcu/platforms/espressif/esp8266_sdk/2.2.1/ESP8266_NONOS_SDK_2.2.1/lib/libwpa.a(wpa_common.o)
 .literal.wpa_cipher_to_alg
                0x000000004022070c        0x0 /home/wall/projects/IoT/mcu/platforms/espressif/esp8266_sdk/2.2.1/ESP8266_NONOS_SDK_2.2.1/lib/libwpa.a(wpa_common.o)
 .literal.wpa_cipher_to_suite
                0x000000004022070c        0x0 /home/wall/projects/IoT/mcu/platforms/espressif/esp8266_sdk/2.2.1/ESP8266_NONOS_SDK_2.2.1/lib/libwpa.a(wpa_common.o)
 .literal.rsn_cipher_put_suites
                0x000000004022070c        0x0 /home/wall/projects/IoT/mcu/platforms/espressif/esp8266_sdk/2.2.1/ESP8266_NONOS_SDK_2.2.1/lib/libwpa.a(wpa_common.o)
 .literal.wpa_cipher_put_suites
                0x000000004022070c        0x0 /home/wall/projects/IoT/mcu/platforms/espressif/esp8266_sdk/2.2.1/ESP8266_NONOS_SDK_2.2.1/lib/libwpa.a(wpa_common.o)
 *fill*         0x000000004022070c        0x0 
 *fill*         0x000000004022070c        0x0 
 *fill*         0x000000004022070c        0x0 
 *fill*         0x000000004022070c        0x0 
 *fill*         0x000000004022070c        0x0 
 *fill*         0x000000004022070c        0x0 
 *fill*         0x000000004022070c        0x0 
 *fill*         0x000000004022070c        0x0 
 *fill*         0x000000004022070c        0x0 
 *fill*         0x000000004022070c        0x0 
 .text.wpa_cipher_key_len
                0x000000004022070c       0x24 /home/wall/projects/IoT/mcu/platforms/espressif/esp8266_sdk/2.2.1/ESP8266_NONOS_SDK_2.2.1/lib/libwpa.a(wpa_common.o)
                0x000000004022070c                wpa_cipher_key_len
 .text.wpa_cipher_to_alg
                0x0000000040220730       0x23 /home/wall/projects/IoT/mcu/platforms/espressif/esp8266_sdk/2.2.1/ESP8266_NONOS_SDK_2.2.1/lib/libwpa.a(wpa_common.o)
                0x0000000040220730                wpa_cipher_to_alg
 *fill*         0x0000000040220753        0x0 
 *fill*         0x0000000040220753        0x1 
 .text.rsn_cipher_put_suites
                0x0000000040220754       0x60 /home/wall/projects/IoT/mcu/platforms/espressif/esp8266_sdk/2.2.1/ESP8266_NONOS_SDK_2.2.1/lib/libwpa.a(wpa_common.o)
                0x0000000040220754                rsn_cipher_put_suites
 .text.wpa_cipher_put_suites
                0x00000000402207b4       0x4a /home/wall/projects/IoT/mcu/platforms/espressif/esp8266_sdk/2.2.1/ESP8266_NONOS_SDK_2.2.1/lib/libwpa.a(wpa_common.o)
                0x00000000402207b4                wpa_cipher_put_suites
 *fill*         0x00000000402207fe        0x2 
 .literal._wpa_snprintf_hex
                0x0000000040220800        0x0 /home/wall/projects/IoT/mcu/platforms/espressif/esp8266_sdk/2.2.1/ESP8266_NONOS_SDK_2.2.1/lib/libwpa.a(wpa_debug.o)
 .literal.wpa_snprintf_hex_uppercase
                0x0000000040220800        0x0 /home/wall/projects/IoT/mcu/platforms/espressif/esp8266_sdk/2.2.1/ESP8266_NONOS_SDK_2.2.1/lib/libwpa.a(wpa_debug.o)
 .literal.wpa_snprintf_hex
                0x0000000040220800        0x0 /home/wall/projects/IoT/mcu/platforms/espressif/esp8266_sdk/2.2.1/ESP8266_NONOS_SDK_2.2.1/lib/libwpa.a(wpa_debug.o)
 .literal.eloop_cancel_timeout
                0x0000000040220800        0x0 /home/wall/projects/IoT/mcu/platforms/espressif/esp8266_sdk/2.2.1/ESP8266_NONOS_SDK_2.2.1/lib/libwpa.a(wpa_debug.o)
 .literal.eloop_register_timeout
                0x0000000040220800        0x0 /home/wall/projects/IoT/mcu/platforms/espressif/esp8266_sdk/2.2.1/ESP8266_NONOS_SDK_2.2.1/lib/libwpa.a(wpa_debug.o)
 .text.eloop_cancel_timeout
                0x0000000040220800        0x4 /home/wall/projects/IoT/mcu/platforms/espressif/esp8266_sdk/2.2.1/ESP8266_NONOS_SDK_2.2.1/lib/libwpa.a(wpa_debug.o)
                0x0000000040220800                eloop_cancel_timeout
 .text.eloop_register_timeout
                0x0000000040220804        0x4 /home/wall/projects/IoT/mcu/platforms/espressif/esp8266_sdk/2.2.1/ESP8266_NONOS_SDK_2.2.1/lib/libwpa.a(wpa_debug.o)
                0x0000000040220804                eloop_register_timeout
 .literal.wpa_parse_wpa_ie
                0x0000000040220808        0x0 /home/wall/projects/IoT/mcu/platforms/espressif/esp8266_sdk/2.2.1/ESP8266_NONOS_SDK_2.2.1/lib/libwpa.a(wpa_ie.o)
 .literal.wpa_parse_generic
                0x0000000040220808        0x0 /home/wall/projects/IoT/mcu/platforms/espressif/esp8266_sdk/2.2.1/ESP8266_NONOS_SDK_2.2.1/lib/libwpa.a(wpa_ie.o)
 .literal.wpa_supplicant_parse_ies
                0x0000000040220808        0x0 /home/wall/projects/IoT/mcu/platforms/espressif/esp8266_sdk/2.2.1/ESP8266_NONOS_SDK_2.2.1/lib/libwpa.a(wpa_ie.o)
 .literal.wpa_gen_wpa_ie_wpa
                0x0000000040220808        0x0 /home/wall/projects/IoT/mcu/platforms/espressif/esp8266_sdk/2.2.1/ESP8266_NONOS_SDK_2.2.1/lib/libwpa.a(wpa_ie.o)
 .literal.wpa_gen_wpa_ie_rsn
                0x0000000040220808        0x0 /home/wall/projects/IoT/mcu/platforms/espressif/esp8266_sdk/2.2.1/ESP8266_NONOS_SDK_2.2.1/lib/libwpa.a(wpa_ie.o)
 .literal.wpa_gen_wpa_ie
                0x0000000040220808        0x0 /home/wall/projects/IoT/mcu/platforms/espressif/esp8266_sdk/2.2.1/ESP8266_NONOS_SDK_2.2.1/lib/libwpa.a(wpa_ie.o)
 *fill*         0x0000000040220808        0x0 
 *fill*         0x0000000040220808        0x0 
 *fill*         0x0000000040220808        0x0 
 .text.wpa_gen_wpa_ie_wpa
                0x0000000040220808       0xb7 /home/wall/projects/IoT/mcu/platforms/espressif/esp8266_sdk/2.2.1/ESP8266_NONOS_SDK_2.2.1/lib/libwpa.a(wpa_ie.o)
 *fill*         0x00000000402208bf        0x1 
 .text.wpa_gen_wpa_ie_rsn
                0x00000000402208c0       0xa9 /home/wall/projects/IoT/mcu/platforms/espressif/esp8266_sdk/2.2.1/ESP8266_NONOS_SDK_2.2.1/lib/libwpa.a(wpa_ie.o)
 *fill*         0x0000000040220969        0x0 
 *fill*         0x0000000040220969        0x3 
 .literal.ppInstallKey
                0x000000004022096c        0x0 /home/wall/projects/IoT/mcu/platforms/espressif/esp8266_sdk/2.2.1/ESP8266_NONOS_SDK_2.2.1/lib/libwpa.a(wpa_main.o)
 .literal.ppGetKey
                0x000000004022096c        0x0 /home/wall/projects/IoT/mcu/platforms/espressif/esp8266_sdk/2.2.1/ESP8266_NONOS_SDK_2.2.1/lib/libwpa.a(wpa_main.o)
 .literal.wpa_sendto_wrapper
                0x000000004022096c        0x0 /home/wall/projects/IoT/mcu/platforms/espressif/esp8266_sdk/2.2.1/ESP8266_NONOS_SDK_2.2.1/lib/libwpa.a(wpa_main.o)
 .literal.wpa_deauthenticate
                0x000000004022096c        0x0 /home/wall/projects/IoT/mcu/platforms/espressif/esp8266_sdk/2.2.1/ESP8266_NONOS_SDK_2.2.1/lib/libwpa.a(wpa_main.o)
 .literal.wpa_config_profile
                0x000000004022096c        0x0 /home/wall/projects/IoT/mcu/platforms/espressif/esp8266_sdk/2.2.1/ESP8266_NONOS_SDK_2.2.1/lib/libwpa.a(wpa_main.o)
 .literal.wpa_config_bss
                0x000000004022096c        0x0 /home/wall/projects/IoT/mcu/platforms/espressif/esp8266_sdk/2.2.1/ESP8266_NONOS_SDK_2.2.1/lib/libwpa.a(wpa_main.o)
 .literal.wpa_config_assoc_ie
                0x000000004022096c        0x0 /home/wall/projects/IoT/mcu/platforms/espressif/esp8266_sdk/2.2.1/ESP8266_NONOS_SDK_2.2.1/lib/libwpa.a(wpa_main.o)
 .literal.dhcp_bind_check
                0x000000004022096c        0x0 /home/wall/projects/IoT/mcu/platforms/espressif/esp8266_sdk/2.2.1/ESP8266_NONOS_SDK_2.2.1/lib/libwpa.a(wpa_main.o)
 .literal.eagle_auth_done
                0x000000004022096c        0x0 /home/wall/projects/IoT/mcu/platforms/espressif/esp8266_sdk/2.2.1/ESP8266_NONOS_SDK_2.2.1/lib/libwpa.a(wpa_main.o)
 .literal.wpa_neg_complete
                0x000000004022096c        0x0 /home/wall/projects/IoT/mcu/platforms/espressif/esp8266_sdk/2.2.1/ESP8266_NONOS_SDK_2.2.1/lib/libwpa.a(wpa_main.o)
 .literal.wpa_attach
                0x000000004022096c        0x0 /home/wall/projects/IoT/mcu/platforms/espressif/esp8266_sdk/2.2.1/ESP8266_NONOS_SDK_2.2.1/lib/libwpa.a(wpa_main.o)
 *fill*         0x000000004022096c        0x0 
 *fill*         0x000000004022096c        0x0 
 *fill*         0x000000004022096c        0x0 
 *fill*         0x000000004022096c        0x0 
 *fill*         0x000000004022096c        0x0 
 *fill*         0x000000004022096c        0x0 
 *fill*         0x000000004022096c        0x0 
 *fill*         0x000000004022096c        0x0 
 *fill*         0x000000004022096c        0x0 
 *fill*         0x000000004022096c        0x0 
 .literal.wpa_alloc_eapol
                0x000000004022096c        0x0 /home/wall/projects/IoT/mcu/platforms/espressif/esp8266_sdk/2.2.1/ESP8266_NONOS_SDK_2.2.1/lib/libwpa.a(wpas_glue.o)
 .literal.wpa_sm_alloc_eapol
                0x000000004022096c        0x0 /home/wall/projects/IoT/mcu/platforms/espressif/esp8266_sdk/2.2.1/ESP8266_NONOS_SDK_2.2.1/lib/libwpa.a(wpas_glue.o)
 .literal.wpa_sm_deauthenticate
                0x000000004022096c        0x0 /home/wall/projects/IoT/mcu/platforms/espressif/esp8266_sdk/2.2.1/ESP8266_NONOS_SDK_2.2.1/lib/libwpa.a(wpas_glue.o)
 .literal.wpa_sm_mlme_setprotection
                0x000000004022096c        0x0 /home/wall/projects/IoT/mcu/platforms/espressif/esp8266_sdk/2.2.1/ESP8266_NONOS_SDK_2.2.1/lib/libwpa.a(wpas_glue.o)
 .literal.wpa_sm_get_beacon_ie
                0x000000004022096c        0x0 /home/wall/projects/IoT/mcu/platforms/espressif/esp8266_sdk/2.2.1/ESP8266_NONOS_SDK_2.2.1/lib/libwpa.a(wpas_glue.o)
 .literal.wpa_sm_disassociate
                0x000000004022096c        0x0 /home/wall/projects/IoT/mcu/platforms/espressif/esp8266_sdk/2.2.1/ESP8266_NONOS_SDK_2.2.1/lib/libwpa.a(wpas_glue.o)
 *fill*         0x000000004022096c        0x0 
 *fill*         0x000000004022096c        0x0 
 .text.wpa_sm_deauthenticate
                0x000000004022096c       0x1a /home/wall/projects/IoT/mcu/platforms/espressif/esp8266_sdk/2.2.1/ESP8266_NONOS_SDK_2.2.1/lib/libwpa.a(wpas_glue.o)
                0x000000004022096c                wpa_sm_deauthenticate
 *fill*         0x0000000040220986        0x2 
 .text.wpa_sm_mlme_setprotection
                0x0000000040220988        0x4 /home/wall/projects/IoT/mcu/platforms/espressif/esp8266_sdk/2.2.1/ESP8266_NONOS_SDK_2.2.1/lib/libwpa.a(wpas_glue.o)
                0x0000000040220988                wpa_sm_mlme_setprotection
 .text.wpa_sm_get_beacon_ie
                0x000000004022098c        0x4 /home/wall/projects/IoT/mcu/platforms/espressif/esp8266_sdk/2.2.1/ESP8266_NONOS_SDK_2.2.1/lib/libwpa.a(wpas_glue.o)
                0x000000004022098c                wpa_sm_get_beacon_ie
 .text.wpa_sm_disassociate
                0x0000000040220990        0x2 /home/wall/projects/IoT/mcu/platforms/espressif/esp8266_sdk/2.2.1/ESP8266_NONOS_SDK_2.2.1/lib/libwpa.a(wpas_glue.o)
                0x0000000040220990                wpa_sm_disassociate
 *libwpa2.a:(.literal.* .text.*)
 *libwps.a:(.literal.* .text.*)
 *libmbedtls.a:(.literal.* .text.*)
 *libm.a:(.literal .text .literal.* .text.*)
 *(.irom0.literal .irom.literal .irom.text.literal .irom0.text .irom.text)
 *fill*         0x0000000040220992        0x2 
 .irom0.text    0x0000000040220994      0xcd1 /home/wall/projects/IoT/mcu/platforms/espressif/esp8266_sdk/2.2.1/ESP8266_NONOS_SDK_2.2.1/lib/libmain.a(app_main.o)
                                        0xfdd (size before relaxing)
                0x00000000402209a4                uart_div_modify
                0x0000000040220be8                wdt_init
                0x0000000040220c84                user_uart_wait_tx_fifo_empty
                0x0000000040220f34                wifi_set_backup_mac
                0x0000000040220f38                user_rf_pre_init
                0x0000000040220f40                system_phy_freq_trace_enable
                0x0000000040220f54                flash_data_check
 *fill*         0x0000000040221665        0x3 
 .irom0.text    0x0000000040221668      0x176 /home/wall/projects/IoT/mcu/platforms/espressif/esp8266_sdk/2.2.1/ESP8266_NONOS_SDK_2.2.1/lib/libmain.a(ets_timer.o)
                                        0x1b2 (size before relaxing)
                0x0000000040221670                ets_timer_done
                0x00000000402216ac                ets_timer_handler_isr
                0x000000004022177c                ets_timer_init
 *fill*         0x00000000402217de        0x2 
 .irom0.text    0x00000000402217e0       0xe8 /home/wall/projects/IoT/mcu/platforms/espressif/esp8266_sdk/2.2.1/ESP8266_NONOS_SDK_2.2.1/lib/libmain.a(mem_manager.o)
                                         0xf8 (size before relaxing)
                0x00000000402217e0                check_memleak_debug_enable
                0x0000000040221848                xPortGetFreeHeapSize
                0x0000000040221850                vPortInitialiseBlocks
 .irom0.text    0x00000000402218c8     0x4079 /home/wall/projects/IoT/mcu/platforms/espressif/esp8266_sdk/2.2.1/ESP8266_NONOS_SDK_2.2.1/lib/libmain.a(user_interface.o)
                                       0x4d15 (size before relaxing)
                0x00000000402218cc                system_set_os_print
                0x00000000402218dc                system_get_os_print
                0x0000000040221aa4                system_pp_recycle_rx_pkt
                0x0000000040221ab8                system_adc_read
                0x0000000040221af8                system_adc_read_fast
                0x0000000040221b58                system_get_vdd33
                0x0000000040221b84                system_restart_hook
                0x0000000040221ba4                system_restart_local
                0x0000000040221c80                system_restart
                0x0000000040221cdc                system_restore
                0x0000000040221d44                system_get_flash_size_map
                0x0000000040221d64                system_get_boot_version
                0x0000000040221d9c                system_get_test_result
                0x0000000040221dc0                system_get_userbin_addr
                0x0000000040221e5c                system_get_boot_mode
                0x0000000040221e8c                system_restart_enhance
                0x0000000040222038                system_upgrade_userbin_set
                0x0000000040222084                system_upgrade_userbin_check
                0x00000000402220c4                system_upgrade_flag_set
                0x00000000402220d8                system_upgrade_flag_check
                0x00000000402220e0                spi_flash_erase_protect_enable
                0x0000000040222108                spi_flash_erase_protect_disable
                0x000000004022211c                spi_flash_erase_sector_check
                0x00000000402221c8                system_get_current_sumlength
                0x0000000040222240                get_irom0_bin_len
                0x00000000402222a8                get_flash_bin_len
                0x0000000040222574                system_upgrade_reboot
                0x0000000040222888                system_deep_sleep_instant
                0x00000000402228e0                system_deep_sleep
                0x0000000040222980                system_deep_sleep_set_option
                0x000000004022299c                system_phy_temperature_alert
                0x00000000402229b0                system_phy_set_max_tpw
                0x00000000402229c4                system_phy_set_tpw_via_vdd33
                0x00000000402229d8                system_phy_set_rfoption
                0x00000000402229ec                system_phy_set_powerup_option
                0x0000000040222a04                system_update_cpu_freq
                0x0000000040222a60                system_get_cpu_freq
                0x0000000040222a7c                system_overclock
                0x0000000040222aa8                system_restoreclock
                0x0000000040222ad8                system_timer_reinit
                0x0000000040222af4                system_relative_time
                0x0000000040222b14                system_station_got_ip_set
                0x0000000040222c40                system_print_meminfo
                0x0000000040222ca0                system_get_free_heap_size
                0x0000000040222cb4                system_get_chip_id
                0x0000000040222cf4                system_rtc_clock_cali_proc
                0x0000000040222d08                system_get_rtc_time
                0x0000000040222d1c                system_mktime
                0x0000000040222dec                system_init_done_cb
                0x0000000040222df4                system_get_rst_info
                0x0000000040222dfc                system_get_data_of_array_8
                0x0000000040222e20                system_get_data_of_array_16
                0x0000000040222e48                system_get_string_from_flash
                0x0000000040222eb4                wifi_softap_dhcps_start
                0x0000000040222efc                wifi_softap_dhcps_stop
                0x0000000040222f3c                wifi_softap_dhcps_status
                0x0000000040222f44                wifi_station_dhcpc_start
                0x0000000040222f9c                wifi_station_dhcpc_stop
                0x0000000040222fdc                wifi_station_dhcpc_event
                0x0000000040223050                wifi_station_dhcpc_set_maxtry
                0x0000000040223060                wifi_station_dhcpc_status
                0x00000000402230e0                wifi_get_opmode
                0x00000000402230f4                wifi_get_opmode_default
                0x0000000040223170                wifi_get_broadcast_if
                0x00000000402231ac                wifi_set_broadcast_if
                0x0000000040223370                wifi_set_opmode
                0x0000000040223384                wifi_set_opmode_current
                0x0000000040223398                system_get_checksum
                0x00000000402233e0                wifi_param_save_protect_with_check
                0x00000000402234a0                system_param_save_with_protect
                0x0000000040223554                system_save_sys_param
                0x0000000040223580                system_param_load
                0x00000000402236c4                wifi_station_get_config
                0x00000000402236d8                wifi_station_get_config_default
                0x00000000402236f8                wifi_station_get_ap_info
                0x00000000402237b8                wifi_station_ap_number_set
                0x0000000040223cb0                wifi_station_set_config
                0x0000000040223cc8                wifi_station_set_config_current
                0x0000000040223ce0                wifi_station_restore_config
                0x0000000040223cf8                wifi_station_get_current_ap_id
                0x0000000040223d0c                wifi_station_ap_check
                0x0000000040223d50                wifi_station_ap_change
                0x0000000040223e68                wifi_station_scan
                0x0000000040223eb4                wifi_station_get_auto_connect
                0x0000000040223ed4                wifi_station_set_auto_connect
                0x0000000040223f8c                wifi_station_save_pmk2cache
                0x00000000402240bc                wifi_station_save_bssid
                0x0000000040224158                wifi_station_connect
                0x00000000402241ec                wifi_station_disconnect
                0x00000000402242ac                wifi_station_get_connect_status
                0x00000000402242dc                wifi_station_set_reconnect_policy
                0x00000000402242f4                wifi_station_get_reconnect_policy
                0x00000000402242fc                wifi_station_get_rssi
                0x000000004022434c                wifi_station_set_default_hostname
                0x00000000402243b4                wifi_station_get_hostname
                0x00000000402243e4                wifi_station_set_hostname
                0x0000000040224480                wifi_softap_cacl_mac
                0x00000000402244e4                wifi_softap_set_default_ssid
                0x00000000402246c8                wifi_softap_get_config
                0x00000000402246dc                wifi_softap_get_config_default
                0x00000000402249ec                wifi_softap_set_config
                0x0000000040224a00                wifi_softap_set_config_current
                0x0000000040224a1c                wifi_softap_set_station_info
                0x0000000040224af0                wifi_softap_get_station_info
                0x0000000040224b9c                wifi_softap_free_station_info
                0x0000000040224bdc                wifi_softap_get_station_num
                0x0000000040224c2c                wifi_softap_deauth
                0x0000000040224d1c                wifi_softap_get_beacon_only_mode
                0x0000000040224d30                wifi_softap_set_beacon_only_mode
                0x0000000040224d94                wifi_register_user_ie_manufacturer_recv_cb
                0x0000000040224da8                wifi_unregister_user_ie_manufacturer_recv_cb
                0x0000000040224ddc                wifi_set_user_ie
                0x0000000040224eec                wifi_get_user_ie
                0x0000000040224f20                wifi_get_phy_mode
                0x0000000040224f34                wifi_set_phy_mode
                0x0000000040225054                wifi_set_sleep_type
                0x0000000040225074                wifi_enable_gpio_wakeup
                0x00000000402250a0                wifi_disable_gpio_wakeup
                0x00000000402250b8                wifi_get_sleep_type
                0x00000000402250cc                wifi_get_channel
                0x00000000402250e4                wifi_set_channel
                0x0000000040225140                wifi_adjust_ap_chan
                0x00000000402251b8                wifi_set_country
                0x00000000402251f8                wifi_get_country
                0x0000000040225230                wifi_promiscuous_set_mac
                0x000000004022528c                wifi_promiscuous_enable
                0x0000000040225370                wifi_set_promiscuous_rx_cb
                0x0000000040225378                wifi_get_ip_info
                0x00000000402253f8                wifi_set_ip_info
                0x000000004022546c                wifi_get_macaddr
                0x00000000402254cc                wifi_set_macaddr
                0x00000000402255f0                wifi_enable_6m_rate
                0x00000000402255f8                wifi_get_user_fixed_rate
                0x0000000040225618                wifi_set_user_fixed_rate
                0x0000000040225638                wifi_set_user_sup_rate
                0x0000000040225674                wifi_set_user_rate_limit
                0x0000000040225698                wifi_get_user_limit_rate_mask
                0x00000000402256a0                wifi_set_user_limit_rate_mask
                0x00000000402256b8                wifi_register_send_pkt_freedom_cb
                0x00000000402256cc                wifi_unregister_send_pkt_freedom_cb
                0x00000000402256d8                wifi_send_pkt_freedom
                0x0000000040225724                wifi_rfid_locp_recv_open
                0x0000000040225738                wifi_rfid_locp_recv_close
                0x000000004022574c                wifi_register_rfid_locp_recv_cb
                0x0000000040225760                wifi_unregister_rfid_locp_recv_cb
                0x0000000040225778                wifi_status_led_install
                0x00000000402257ac                wifi_status_led_uninstall
                0x00000000402257d0                wifi_set_status_led_output_level
                0x0000000040225824                wifi_set_event_handler_cb
                0x000000004022586c                system_os_task
                0x00000000402258a8                system_uart_swap
                0x0000000040225908                system_uart_de_swap
                0x000000004022593c                system_get_sdk_version
 *fill*         0x0000000040225941        0x3 
 .irom0.text    0x0000000040225944        0xb /home/wall/projects/IoT/mcu/platforms/espressif/esp8266_sdk/2.2.1/ESP8266_NONOS_SDK_2.2.1/lib/libmain.a(spi_flash.o)
                0x0000000040225948                spi_flash_set_read_func
 *fill*         0x000000004022594f        0x1 
 .irom0.text    0x0000000040225950      0x60c /home/wall/projects/IoT/mcu/platforms/espressif/esp8266_sdk/2.2.1/ESP8266_NONOS_SDK_2.2.1/lib/libmain.a(eagle_lib.o)
                                        0x620 (size before relaxing)
                0x0000000040225950                divide
                0x000000004022598c                skip_atoi
                0x0000000040225b0c                ets_vsnprintf
                0x0000000040225e6c                ets_vsprintf
                0x0000000040225e90                ets_sprintf
                0x0000000040225eb8                ets_strcat
                0x0000000040225ed8                ets_strrchr
                0x0000000040225f04                ets_strchr
                0x0000000040225f1c                bit_popcount
                0x0000000040225f38                ets_snprintf
 .irom0.text    0x0000000040225f5c      0x31e /home/wall/projects/IoT/mcu/platforms/espressif/esp8266_sdk/2.2.1/ESP8266_NONOS_SDK_2.2.1/lib/libmain.a(eagle_lwip_if.o)
                                        0x3e6 (size before relaxing)
                0x0000000040226014                eagle_lwip_if_alloc
                0x00000000402261d4                eagle_lwip_if_free
                0x0000000040226258                eagle_lwip_getif
 *fill*         0x000000004022627a        0x2 
 .irom0.text    0x000000004022627c      0x4b1 /home/wall/projects/IoT/mcu/platforms/espressif/esp8266_sdk/2.2.1/ESP8266_NONOS_SDK_2.2.1/lib/libpp.a(if_hwctrl.o)
                                        0x5e1 (size before relaxing)
                0x000000004022629c                ic_get_addr
                0x00000000402262a8                ic_set_opmode
                0x00000000402262bc                ic_enable_interface
                0x000000004022630c                ic_interface_enabled
                0x0000000040226320                ic_disable_interface
                0x0000000040226368                ic_is_pure_sta
                0x0000000040226384                ic_get_ptk_alg
                0x0000000040226394                ic_get_gtk_alg
                0x00000000402263a4                ic_set_ptk_alg
                0x00000000402263b4                ic_set_gtk_alg
                0x00000000402263c4                ic_interface_is_p2p
                0x000000004022645c                ic_set_vif
                0x0000000040226518                ic_set_sta
                0x0000000040226618                ic_bss_info_update
                0x0000000040226674                ic_set_key
                0x00000000402266d4                ic_get_key
                0x00000000402266f4                ic_remove_key
                0x0000000040226708                ic_get_rssi
 *fill*         0x000000004022672d        0x3 
 .irom0.text    0x0000000040226730      0x104 /home/wall/projects/IoT/mcu/platforms/espressif/esp8266_sdk/2.2.1/ESP8266_NONOS_SDK_2.2.1/lib/libpp.a(lmac.o)
                                        0x118 (size before relaxing)
                0x0000000040226734                lmacInitAc
                0x0000000040226768                lmacInit
                0x0000000040226818                lmacSetRetryLimit
 .irom0.text    0x0000000040226834     0x1b31 /home/wall/projects/IoT/mcu/platforms/espressif/esp8266_sdk/2.2.1/ESP8266_NONOS_SDK_2.2.1/lib/libpp.a(pm.o)
                                       0x2121 (size before relaxing)
                0x0000000040226838                pm_set_gpio_wakeup_pin
                0x0000000040226870                pm_clear_gpio_wakeup_pin
                0x0000000040226880                pm_is_gpio_int_trig
                0x0000000040226898                pm_rtc_clock_cali_proc
                0x00000000402268d0                pm_get_ck170_period
                0x00000000402268f4                pm_set_sleep_time
                0x0000000040226bc4                pm_rf_is_closed
                0x0000000040226bf4                pm_set_sleep_type_from_upper
                0x0000000040226ce4                pm_get_sleep_type
                0x0000000040226e9c                uart_tx_flush
                0x0000000040226ea0                pm_suspend
                0x00000000402270bc                pm_shutdown
                0x00000000402271a0                pm_reset_idle_sleep
                0x00000000402271e0                pm_idle_sleep
                0x00000000402271f8                pm_open
                0x0000000040227334                pm_onBcnRx
                0x00000000402276c4                StopLightSleepSetFunc
                0x00000000402276cc                LightSleepWakedCbSetFunc
                0x0000000040227c9c                pm_incr_active_cnt
                0x0000000040227cb0                pm_disable_active_timer
                0x0000000040227cc8                pm_enable_active_timer
                0x0000000040227ce4                pm_keep_active_disable
                0x0000000040227d04                pm_keep_active_enable
                0x0000000040227d7c                pm_enable_gpio_wakeup
                0x0000000040227db8                pm_attach
                0x0000000040227eb8                pm_send_nullfunc
                0x000000004022806c                pm_is_waked
                0x0000000040228084                pm_is_open
                0x000000004022809c                pm_scan_lock
                0x00000000402280c4                pm_try_scan_unlock
                0x00000000402280dc                pm_force_scan_unlock
                0x000000004022818c                pm_scan_unlocked
                0x00000000402281a0                pm_allow_tx
                0x00000000402281bc                pm_assoc_parse
                0x00000000402281d4                pm_set_addr
                0x00000000402281f4                pm_sleep_for
                0x0000000040228224                pm_post
                0x0000000040228324                pm_get_idle_wait_time
 *fill*         0x0000000040228365        0x3 
 .irom0.text    0x0000000040228368      0xb40 /home/wall/projects/IoT/mcu/platforms/espressif/esp8266_sdk/2.2.1/ESP8266_NONOS_SDK_2.2.1/lib/libpp.a(pm_for_bcn_only_mode.o)
                                        0xeec (size before relaxing)
                0x000000004022837c                wifi_fpm_set_sleep_type
                0x000000004022837c                fpm_set_type_from_upper
                0x0000000040228438                wifi_fpm_get_sleep_type
                0x0000000040228438                fpm_get_slp_type
                0x0000000040228440                fpm_rf_is_closed
                0x0000000040228454                fpm_is_open
                0x0000000040228460                fpm_allow_tx
                0x0000000040228488                wifi_fpm_close
                0x0000000040228488                fpm_close
                0x0000000040228518                wifi_fpm_open
                0x0000000040228518                fpm_open
                0x000000004022859c                fpm_attach
                0x0000000040228750                wifi_fpm_set_wakeup_cb
                0x0000000040228750                fpm_set_wakeup_cb
                0x000000004022888c                wifi_fpm_do_wakeup
                0x000000004022888c                fpm_do_wakeup
                0x0000000040228dc0                fpm_do_sleep
                0x0000000040228dc0                wifi_fpm_do_sleep
                0x0000000040228e60                fpm_auto_sleep_set_in_null_mode
                0x0000000040228e60                wifi_fpm_auto_sleep_set_in_null_mode
                0x0000000040228ea0                get_fpm_auto_sleep_flag
 .irom0.text    0x0000000040228ea8     0x19d2 /home/wall/projects/IoT/mcu/platforms/espressif/esp8266_sdk/2.2.1/ESP8266_NONOS_SDK_2.2.1/lib/libpp.a(pp.o)
                                       0x1e76 (size before relaxing)
                0x0000000040228eb4                PPWdtReset
                0x0000000040228ee8                pp_soft_wdt_init
                0x0000000040228f08                system_soft_wdt_feed
                0x0000000040228f08                pp_soft_wdt_feed
                0x0000000040228f24                pp_soft_wdt_stop
                0x0000000040228f24                system_soft_wdt_stop
                0x0000000040228f50                pp_soft_wdt_restart
                0x0000000040228f50                system_soft_wdt_restart
                0x0000000040228f88                RxNodeNum
                0x0000000040228fa0                TxNodeNum
                0x0000000040228fc4                pp_disable_noise_timer
                0x0000000040228fe4                pp_enable_noise_timer
                0x00000000402290f4                pp_noise_test
                0x0000000040229104                reset_noise_timer
                0x000000004022913c                pp_disable_idle_timer
                0x0000000040229160                pp_enable_idle_timer
                0x0000000040229188                pp_try_enable_idle_timer
                0x00000000402291c4                ppPeocessRxPktHdr
                0x00000000402294fc                HdlAllBuffedEb
                0x00000000402295d4                ppTxPkt
                0x000000004022974c                ppProcessWaitQ
                0x000000004022975c                ppRegisterTxCallback
                0x0000000040229784                ppUnregisterTxCallback
                0x00000000402297b8                ppRecycleRxPkt
                0x0000000040229818                ppCheckTxIdle
                0x0000000040229aac                pp_tx_idle_timeout
                0x0000000040229c6c                freq_change_sta_scan_force_enable
                0x0000000040229c74                freq_changle_sta_scan_do_cb
                0x0000000040229d1c                freq_change_check_scan_start
                0x0000000040229d3c                freq_change_check_scan_done
                0x0000000040229ee0                freq_change_check_scan_work
                0x0000000040229f1c                DefFreqCalTimerCB
                0x000000004022a388                ppGetTxQFirstAvail_Locked
                0x000000004022a468                pp_attach
 *fill*         0x000000004022a87a        0x2 
 .irom0.text    0x000000004022a87c      0x296 /home/wall/projects/IoT/mcu/platforms/espressif/esp8266_sdk/2.2.1/ESP8266_NONOS_SDK_2.2.1/lib/libpp.a(rate_control.o)
                                        0x2a2 (size before relaxing)
                0x000000004022aac8                RC_SetBasicRate
 *fill*         0x000000004022ab12        0x2 
 .irom0.text    0x000000004022ab14      0x5e9 /home/wall/projects/IoT/mcu/platforms/espressif/esp8266_sdk/2.2.1/ESP8266_NONOS_SDK_2.2.1/lib/libpp.a(trc.o)
                                        0x64d (size before relaxing)
                0x000000004022ab14                phytype2mode
                0x000000004022ab30                rc_set_rate_limit_id
                0x000000004022ac4c                rcUpdatePhyMode
                0x000000004022ae18                rcAttach
                0x000000004022ae64                rcGetTrc
                0x000000004022ae6c                trc_onDisconnect
                0x000000004022ae70                trc_onScanStart
                0x000000004022ae84                trc_onScanDone
                0x000000004022aea0                rc_enable_trc
                0x000000004022af78                rc_get_mask
                0x000000004022af8c                rc_disable_trc
                0x000000004022afe0                rc_disable_trc_by_interface
                0x000000004022affc                rc_get_sta_trc
                0x000000004022b040                rc_get_trc
                0x000000004022b0b0                rc_get_trc_by_index
                0x000000004022b0d0                rc_only_sta_trc
 *fill*         0x000000004022b0fd        0x3 
 .irom0.text    0x000000004022b100      0xc4f /home/wall/projects/IoT/mcu/platforms/espressif/esp8266_sdk/2.2.1/ESP8266_NONOS_SDK_2.2.1/lib/libpp.a(wdev.o)
                                        0xdaf (size before relaxing)
                0x000000004022b110                wDev_Option_Init
                0x000000004022b204                wDev_Enable_Beacon_Tsf
                0x000000004022b220                wDev_Disable_Beacon_Tsf
                0x000000004022b23c                wDev_Set_Beacon_Int
                0x000000004022b244                wDev_Reset_TBTT
                0x000000004022b274                wDev_Get_Next_TBTT
                0x000000004022b4f4                wDev_Initialize
                0x000000004022b564                wDevForceAck6M
                0x000000004022b580                wDev_SetMacAddress
                0x000000004022b61c                wDev_SetRxPolicy
                0x000000004022b670                wDev_EnableUcRx
                0x000000004022b69c                wDev_DisableUcRx
                0x000000004022b6c8                wDev_SetBssid
                0x000000004022b7a0                wDev_ClearBssid
                0x000000004022b7d4                wDev_Is_Mac_Key_Exist
                0x000000004022b860                wDev_Insert_KeyEntry
                0x000000004022b990                wDev_remove_KeyEntry
                0x000000004022b9f8                wDev_remove_KeyEntry_all_cnx
                0x000000004022ba44                wDev_Crypto_Conf
                0x000000004022bae4                wDev_Crypto_Disable
                0x000000004022bb1c                wDevEnableRx
                0x000000004022bb48                wdev_go_sniffer
                0x000000004022bc24                wdev_set_sniffer_addr
                0x000000004022bc80                wdev_exit_sniffer
 *fill*         0x000000004022bd4f        0x1 
 .irom0.text    0x000000004022bd50      0x3ed /home/wall/projects/IoT/mcu/platforms/espressif/esp8266_sdk/2.2.1/ESP8266_NONOS_SDK_2.2.1/lib/libpp.a(esf_buf.o)
                                        0x4c1 (size before relaxing)
                0x000000004022bd58                esf_buf_alloc
                0x000000004022bf40                esf_buf_recycle
                0x000000004022c080                esf_buf_setup
 *fill*         0x000000004022c13d        0x3 
 .irom0.text    0x000000004022c140       0xfa /home/wall/projects/IoT/mcu/platforms/espressif/esp8266_sdk/2.2.1/ESP8266_NONOS_SDK_2.2.1/lib/libphy.a(phy.o)
                                        0x11e (size before relaxing)
                0x000000004022c144                rf_init
                0x000000004022c160                bb_init
                0x000000004022c178                phy_init
                0x000000004022c1a8                RFChannelSel
                0x000000004022c1c4                phy_delete_channel
                0x000000004022c1dc                phy_enable_agc
                0x000000004022c1f4                phy_disable_agc
                0x000000004022c20c                phy_initialize_bb
                0x000000004022c224                phy_set_sense
 *fill*         0x000000004022c23a        0x2 
 .irom0.text    0x000000004022c23c     0x177b /home/wall/projects/IoT/mcu/platforms/espressif/esp8266_sdk/2.2.1/ESP8266_NONOS_SDK_2.2.1/lib/libphy.a(phy_chip_v6_ana.o)
                                       0x19b7 (size before relaxing)
                0x000000004022c23c                ram_pbus_set_rxgain
                0x000000004022c30c                ram_pbus_debugmode
                0x000000004022c3c0                ram_pbus_xpd_tx_on
                0x000000004022c42c                set_rf_freq_offset
                0x000000004022c49c                chip_v6_rxmax_ext_ana
                0x000000004022c5f0                ram_chip_v6_rx_init
                0x000000004022c620                tsen_meas
                0x000000004022c6cc                readvdd33
                0x000000004022c894                txpwr_offset
                0x000000004022c950                set_txcap_reg
                0x000000004022c9d0                ram_ana_inf_gating_en
                0x000000004022cb30                ram_restart_cal
                0x000000004022cb9c                wait_rfpll_cal_end
                0x000000004022cc34                ram_rfpll_set_freq
                0x000000004022cd30                ram_set_channel_freq
                0x000000004022d034                chip_60_set_channel
                0x000000004022d1fc                chip_v6_set_chan_offset
                0x000000004022d258                chip_v6_set_chan
                0x000000004022d308                chip_v6_set_chan_wakeup
                0x000000004022d384                chip_v6_rf_init
                0x000000004022d5e8                low_power_set
                0x000000004022d638                test_tout
                0x000000004022d7b0                check_data_flag
                0x000000004022d7d0                phy_get_check_flag
                0x000000004022d904                phy_get_vdd33
 *fill*         0x000000004022d9b7        0x1 
 .irom0.text    0x000000004022d9b8     0x3df0 /home/wall/projects/IoT/mcu/platforms/espressif/esp8266_sdk/2.2.1/ESP8266_NONOS_SDK_2.2.1/lib/libphy.a(phy_chip_v6.o)
                                       0x44d0 (size before relaxing)
                0x000000004022d9b8                ram_tx_mac_enable
                0x000000004022d9bc                ram_tx_mac_disable
                0x000000004022d9c0                rtc_mem_backup
                0x000000004022d9f0                rtc_mem_recovery
                0x000000004022da20                set_cal_rxdc
                0x000000004022dad4                set_rx_gain_cal_iq
                0x000000004022de2c                gen_rx_gain_table
                0x000000004022df84                pbus_set_rxbbgain
                0x000000004022e000                set_rx_gain_testchip_50
                0x000000004022e334                ram_get_corr_power
                0x000000004022e424                check_data_func
                0x000000004022e444                do_noisefloor_lsleep_v50
                0x000000004022e478                do_noisefloor
                0x000000004022e4e8                start_dig_rx
                0x000000004022e52c                stop_dig_rx
                0x000000004022e558                chip_v6_set_chanfreq
                0x000000004022e584                tx_cap_init
                0x000000004022e7ac                target_power_add_backoff
                0x000000004022e7d4                tx_pwctrl_init_cal
                0x000000004022e974                tx_atten_set_interp
                0x000000004022ebd4                check_tx_pwr_cal
                0x000000004022ed18                tx_pwctrl_init
                0x000000004022ee3c                ram_get_noisefloor
                0x000000004022ee58                get_noisefloor_sat
                0x000000004022ee88                ram_set_noise_floor
                0x000000004022eee0                ram_start_noisefloor
                0x000000004022ef28                read_hw_noisefloor
                0x000000004022ef50                noise_check_loop
                0x000000004022f0a8                noise_init
                0x000000004022f2a8                target_power_backoff
                0x000000004022f2fc                sdt_on_noise_start
                0x000000004022f37c                chip_v6_set_chan_rx_cmp
                0x000000004022f508                chip_v6_set_chan_misc
                0x000000004022f598                phy_dig_spur_set
                0x000000004022f8f0                phy_dig_spur_prot
                0x000000004022fb28                chip_v6_rxmax_ext_dig
                0x000000004022fb74                chip_v6_rxmax_ext
                0x000000004022fc18                phy_bb_rx_cfg
                0x0000000040230030                uart_wait_idle
                0x0000000040230064                phy_pbus_soc_cfg
                0x000000004023011c                phy_gpio_cfg
                0x0000000040230330                tx_cont_en
                0x00000000402303d8                tx_cont_dis
                0x000000004023042c                tx_cont_cfg
                0x000000004023044c                chip_v6_initialize_bb
                0x00000000402305b0                periodic_cal
                0x00000000402305e8                bbpll_cal
                0x0000000040230690                periodic_cal_top
                0x00000000402306f4                register_chipv6_phy_init_param
                0x000000004023099c                change_bbpll160_sleep
                0x0000000040230b4c                change_bbpll160
                0x0000000040230b84                set_crystal_uart
                0x0000000040230c14                ant_switch_init
                0x0000000040230cc4                reduce_current_init
                0x0000000040230db0                rtc_mem_check
                0x0000000040230dec                phy_afterwake_set_rfoption
                0x0000000040230e08                deep_sleep_set_option
                0x0000000040230e34                write_data_to_rtc
                0x0000000040230e6c                get_data_from_rtc
                0x0000000040230ef0                register_chipv6_phy
                0x0000000040231360                set_dpd_bypass
                0x0000000040231388                set_rf_gain_stage10
                0x00000000402313b8                get_vdd33_offset
                0x000000004023142c                get_phy_target_power
                0x00000000402314dc                set_most_pwr_reg
                0x00000000402315b0                phy_set_most_tpw
                0x00000000402315d0                phy_vdd33_set_tpw
                0x00000000402315e8                get_adc_rand
                0x0000000040231618                phy_get_rand
                0x0000000040231630                phy_tx_pwctrl_cali
                0x0000000040231658                phy_check_data_table
                0x0000000040231694                phy_after_init_enrx
                0x00000000402316f8                phy_set_rx11b_reg
                0x000000004023172c                phy_set_powerup_option
                0x000000004023173c                phy_get_txpwr_param
                0x0000000040231788                phy_get_rxnf_param
                0x0000000040231794                phy_get_freq_param
 .irom0.text    0x00000000402317a8     0x2198 /home/wall/projects/IoT/mcu/platforms/espressif/esp8266_sdk/2.2.1/ESP8266_NONOS_SDK_2.2.1/lib/libphy.a(phy_chip_v6_cal.o)
                                       0x23d4 (size before relaxing)
                0x00000000402317a8                txbbgain2dcoindex
                0x00000000402317c8                dcoindex2txbbgain
                0x00000000402317ec                init_cal_dcoffset
                0x00000000402318b0                set_rfanagain_dc_reg
                0x000000004023194c                set_txdc_pbus
                0x00000000402319b8                get_rf_gain_qdb
                0x00000000402319e0                correct_rf_ana_gain
                0x0000000040231ae8                get_sar_dout
                0x0000000040231b78                cal_rf_ana_gain
                0x0000000040231c90                meas_tone_pwr_db
                0x0000000040231d00                tx_pwr_backoff
                0x0000000040231eb4                get_fcc_1m2m_pwr_offset
                0x0000000040231ef0                ram_set_txbb_atten
                0x0000000040231f84                txiq_get_mis_pwr
                0x0000000040232028                txiq_cover
                0x0000000040232240                ram_rfcal_txiq
                0x00000000402324ac                rc_cal
                0x000000004023266c                get_target_power_offset
                0x0000000040232774                get_pwctrl_correct
                0x00000000402327cc                tx_pwctrl_cal
                0x0000000040232ac8                tx_pwctrl_bg_init
                0x0000000040232b40                tx_pwctrl_background
                0x0000000040232bf8                read_sar_dout
                0x0000000040232c5c                ram_get_fm_sar_dout
                0x0000000040232d00                ram_cal_tos_v60
                0x0000000040232ed0                ram_get_bb_atten
                0x0000000040232f00                ram_rfcal_txcap
                0x00000000402330c4                ram_rfcal_pwrctrl
                0x0000000040233300                ram_rxiq_get_mis
                0x00000000402334cc                ram_rxiq_cover_mg_mp
                0x0000000040233670                ram_rfcal_rxiq
                0x000000004023387c                dpd_scale_set
                0x00000000402338c4                dpd_mem_write
 .irom0.text    0x0000000040233940      0xcda /home/wall/projects/IoT/mcu/platforms/espressif/esp8266_sdk/2.2.1/ESP8266_NONOS_SDK_2.2.1/lib/libphy.a(phy_sleep.o)
                                        0xefe (size before relaxing)
                0x0000000040233940                pm_usec2rtc
                0x0000000040233978                pm_usec2rtc_64
                0x00000000402339cc                pm_rtc2usec
                0x00000000402339d8                pm_set_sleep_cycles
                0x0000000040233a00                pm_sleep_opt
                0x0000000040233b54                pm_wakeup_opt
                0x0000000040233b8c                get_chip_version
                0x0000000040233bcc                pm_sleep_opt_bb_off
                0x0000000040233c18                pm_sleep_opt_bb_on
                0x0000000040233c6c                pm_set_pll_xtal_wait_time
                0x0000000040233c98                pm_prepare_to_sleep
                0x0000000040233ca0                pm_sdio_nidle
                0x0000000040233d14                chg_lslp_mem_opt_8266
                0x0000000040233d34                pm_wait4wakeup
                0x0000000040233d70                pm_open_rf
                0x0000000040233dac                pm_sleep_set_mac
                0x0000000040233e30                pm_set_wakeup_mac
                0x0000000040233ec8                pm_check_mac_idle
                0x0000000040233f20                pm_set_sleep_btco
                0x0000000040233fc0                pm_set_wakeup_btco
                0x00000000402340d8                pm_set_sleep_mode
                0x00000000402341f8                pm_unmask_bt
                0x0000000040234264                pm_wakeup_init
                0x00000000402344c0                sleep_opt_8266
                0x00000000402344e0                sleep_opt_bb_on_8266
                0x0000000040234518                sleep_reset_analog_rtcreg_8266
 *fill*         0x000000004023461a        0x2 
 .irom0.text    0x000000004023461c     0x1494 /home/wall/projects/IoT/mcu/platforms/espressif/esp8266_sdk/2.2.1/ESP8266_NONOS_SDK_2.2.1/lib/liblwip.a(dhcp.o)
                                       0x1680 (size before relaxing)
                0x000000004023543c                dhcp_set_struct
                0x0000000040235464                dhcp_cleanup
                0x0000000040235488                dhcp_inform
                0x0000000040235534                dhcp_network_changed
                0x0000000040235580                dhcp_arp_reply
                0x000000004023562c                dhcp_renew
                0x000000004023576c                dhcp_coarse_tmr
                0x00000000402357f8                dhcp_release
                0x00000000402358c4                dhcp_fine_tmr
                0x00000000402359c0                dhcp_stop
                0x00000000402359fc                dhcp_start
 .irom0.text    0x0000000040235ab0      0xcf4 /home/wall/projects/IoT/mcu/platforms/espressif/esp8266_sdk/2.2.1/ESP8266_NONOS_SDK_2.2.1/lib/liblwip.a(dhcpserver.o)
                                        0xeb0 (size before relaxing)
                0x0000000040235cb4                node_insert_to_list
                0x0000000040235cf0                node_remove_from_list
                0x0000000040235d28                dhcps_start
                0x0000000040235eac                dhcps_stop
                0x0000000040235f28                wifi_softap_set_dhcps_lease
                0x0000000040236014                wifi_softap_get_dhcps_lease
                0x000000004023605c                dhcps_coarse_tmr
                0x0000000040236108                wifi_softap_set_dhcps_offer_option
                0x0000000040236148                wifi_softap_set_dhcps_lease_time
                0x0000000040236178                wifi_softap_reset_dhcps_lease_time
                0x00000000402361a4                wifi_softap_get_dhcps_lease_time
                0x00000000402361ac                wifi_softap_dhcps_client_leave
                0x0000000040236258                wifi_softap_dhcps_client_update
 .irom0.text    0x00000000402367a4      0x5b9 /home/wall/projects/IoT/mcu/platforms/espressif/esp8266_sdk/2.2.1/ESP8266_NONOS_SDK_2.2.1/lib/liblwip.a(dns.o)
                                        0x66d (size before relaxing)
                0x0000000040236ba0                dns_setserver
                0x0000000040236bc8                dns_init
                0x0000000040236c0c                dns_getserver
                0x0000000040236c24                dns_tmr
                0x0000000040236c54                dns_gethostbyname
 *fill*         0x0000000040236d5d        0x3 
 .irom0.text    0x0000000040236d60     0x1194 /home/wall/projects/IoT/mcu/platforms/espressif/esp8266_sdk/2.2.1/ESP8266_NONOS_SDK_2.2.1/lib/liblwip.a(espconn_tcp.o)
                                       0x14e0 (size before relaxing)
                0x000000004023731c                espconn_kill_oldest_pcb
                0x0000000040237444                espconn_kill_pcb
                0x00000000402374ac                espconn_find_current_pcb
                0x0000000040237560                espconn_tcp_memp_free
                0x00000000402377ac                espconn_tcp_sent
                0x000000004023788c                espconn_tcp_disconnect
                0x00000000402378bc                espconn_recv_hold
                0x000000004023790c                espconn_recv_unhold
                0x0000000040237970                espconn_lock_recv
                0x0000000040237b7c                espconn_unlock_recv
                0x0000000040237ba8                espconn_tcp_write
                0x0000000040237cc8                espconn_tcp_client
                0x0000000040237db0                espconn_tcp_server
                0x0000000040237e4c                espconn_tcp_delete
                0x0000000040237ed8                espconn_init
 .irom0.text    0x0000000040237ef4      0x8bf /home/wall/projects/IoT/mcu/platforms/espressif/esp8266_sdk/2.2.1/ESP8266_NONOS_SDK_2.2.1/lib/liblwip.a(etharp.o)
                                        0x9b3 (size before relaxing)
                0x000000004023812c                etharp_tmr
                0x0000000040238184                etharp_cleanup_netif
                0x00000000402381c0                etharp_find_addr
                0x0000000040238210                etharp_request
                0x0000000040238350                etharp_query
                0x00000000402384cc                etharp_output
                0x00000000402385bc                ethernet_input
 *fill*         0x00000000402387b3        0x1 
 .irom0.text    0x00000000402387b4       0x45 /home/wall/projects/IoT/mcu/platforms/espressif/esp8266_sdk/2.2.1/ESP8266_NONOS_SDK_2.2.1/lib/liblwip.a(init.o)
                                         0x71 (size before relaxing)
                0x00000000402387b8                lwip_init
 *fill*         0x00000000402387f9        0x3 
 .irom0.text    0x00000000402387fc      0x5c1 /home/wall/projects/IoT/mcu/platforms/espressif/esp8266_sdk/2.2.1/ESP8266_NONOS_SDK_2.2.1/lib/liblwip.a(ip.o)
                                        0x651 (size before relaxing)
                0x00000000402387fc                ip_route
                0x0000000040238878                ip_router
                0x00000000402388e4                ip_input
                0x0000000040238b48                ip_output_if_opt
                0x0000000040238d50                ip_output_if
                0x0000000040238d74                ip_output
 *fill*         0x0000000040238dbd        0x3 
 .irom0.text    0x0000000040238dc0      0x380 /home/wall/projects/IoT/mcu/platforms/espressif/esp8266_sdk/2.2.1/ESP8266_NONOS_SDK_2.2.1/lib/liblwip.a(ip_addr.o)
                                        0x3a4 (size before relaxing)
                0x0000000040238dc0                ip4_addr_isbroadcast
                0x0000000040238df8                ip4_addr_netmask_valid
                0x0000000040238e4c                ipaddr_aton
                0x0000000040239034                ipaddr_addr
                0x0000000040239050                ipaddr_ntoa_r
                0x000000004023912c                ipaddr_ntoa
 .irom0.text    0x0000000040239140      0x290 /home/wall/projects/IoT/mcu/platforms/espressif/esp8266_sdk/2.2.1/ESP8266_NONOS_SDK_2.2.1/lib/liblwip.a(netif.o)
                                        0x2dc (size before relaxing)
                0x0000000040239140                netif_init
                0x0000000040239144                netif_find
                0x0000000040239178                netif_set_ipaddr
                0x00000000402391e4                netif_set_addr
                0x0000000040239218                netif_add
                0x0000000040239288                netif_set_gw
                0x0000000040239290                netif_set_netmask
                0x0000000040239298                netif_set_default
                0x00000000402392a0                netif_set_up
                0x00000000402392e0                netif_set_down
                0x0000000040239308                netif_remove
                0x0000000040239370                netif_set_link_up
                0x00000000402393c0                netif_set_link_down
 .irom0.text    0x00000000402393d0      0x714 /home/wall/projects/IoT/mcu/platforms/espressif/esp8266_sdk/2.2.1/ESP8266_NONOS_SDK_2.2.1/lib/liblwip.a(pbuf.o)
                                        0x758 (size before relaxing)
                0x00000000402393d0                pbuf_free_ooseq_new
                0x000000004023942c                pbuf_header
                0x00000000402394b8                pbuf_free
                0x0000000040239538                pbuf_alloc
                0x00000000402396a0                pbuf_realloc
                0x00000000402396ec                pbuf_clen
                0x0000000040239700                pbuf_ref
                0x000000004023970c                pbuf_cat
                0x0000000040239740                pbuf_chain
                0x000000004023975c                pbuf_dechain
                0x0000000040239794                pbuf_copy
                0x0000000040239854                pbuf_copy_partial
                0x00000000402398e8                pbuf_take
                0x0000000040239958                pbuf_coalesce
                0x0000000040239998                pbuf_get_at
                0x00000000402399bc                pbuf_memcmp
                0x0000000040239a38                pbuf_memfind
                0x0000000040239a9c                pbuf_strstr
 .irom0.text    0x0000000040239ae4      0x1db /home/wall/projects/IoT/mcu/platforms/espressif/esp8266_sdk/2.2.1/ESP8266_NONOS_SDK_2.2.1/lib/liblwip.a(raw.o)
                                        0x21f (size before relaxing)
                0x0000000040239ae8                raw_input
                0x0000000040239b70                raw_bind
                0x0000000040239b7c                raw_connect
                0x0000000040239b88                raw_recv
                0x0000000040239b90                raw_sendto
                0x0000000040239c30                raw_send
                0x0000000040239c44                raw_remove
                0x0000000040239c78                raw_new
 *fill*         0x0000000040239cbf        0x1 
 .irom0.text    0x0000000040239cc0      0xab1 /home/wall/projects/IoT/mcu/platforms/espressif/esp8266_sdk/2.2.1/ESP8266_NONOS_SDK_2.2.1/lib/liblwip.a(tcp.o)
                                        0xbed (size before relaxing)
                0x0000000040239cc0                tcp_bind
                0x0000000040239d44                tcp_listen_with_backlog
                0x0000000040239df8                tcp_update_rcv_ann_wnd
                0x0000000040239e44                tcp_recved
                0x0000000040239e9c                tcp_seg_free
                0x0000000040239ec4                tcp_segs_free
                0x0000000040239ee4                tcp_setprio
                0x0000000040239eec                tcp_seg_copy
                0x0000000040239f28                tcp_arg
                0x0000000040239f2c                tcp_recv
                0x0000000040239f34                tcp_sent
                0x0000000040239f3c                tcp_err
                0x0000000040239f44                tcp_accept
                0x0000000040239f48                tcp_poll
                0x0000000040239f50                tcp_pcb_purge
                0x0000000040239fac                tcp_slowtmr
                0x000000004023a250                tcp_pcb_remove
                0x000000004023a2bc                tcp_close
                0x000000004023a2e0                tcp_recv_null
                0x000000004023a314                tcp_fasttmr
                0x000000004023a3a0                tcp_tmr
                0x000000004023a3c4                tcp_shutdown
                0x000000004023a424                tcp_abandon
                0x000000004023a4bc                tcp_abort
                0x000000004023a4d4                tcp_next_iss
                0x000000004023a4f4                tcp_alloc
                0x000000004023a624                tcp_new
                0x000000004023a638                tcp_eff_send_mss
                0x000000004023a66c                tcp_connect
 *fill*         0x000000004023a771        0x3 
 .irom0.text    0x000000004023a774     0x1357 /home/wall/projects/IoT/mcu/platforms/espressif/esp8266_sdk/2.2.1/ESP8266_NONOS_SDK_2.2.1/lib/liblwip.a(tcp_in.o)
                                       0x1513 (size before relaxing)
                0x000000004023b18c                tcp_input
 *fill*         0x000000004023bacb        0x1 
 .irom0.text    0x000000004023bacc      0xe47 /home/wall/projects/IoT/mcu/platforms/espressif/esp8266_sdk/2.2.1/ESP8266_NONOS_SDK_2.2.1/lib/liblwip.a(tcp_out.o)
                                        0xf43 (size before relaxing)
                0x000000004023bcb8                tcp_write
                0x000000004023bee4                tcp_enqueue_flags
                0x000000004023bfa0                tcp_send_fin
                0x000000004023bfe8                tcp_send_empty_ack
                0x000000004023c07c                tcp_output
                0x000000004023c4a4                tcp_rst
                0x000000004023c5e8                tcp_rexmit_rto
                0x000000004023c66c                tcp_rexmit
                0x000000004023c720                tcp_rexmit_fast
                0x000000004023c784                tcp_keepalive
                0x000000004023c804                tcp_zero_window_probe
 *fill*         0x000000004023c913        0x1 
 .irom0.text    0x000000004023c914      0x26b /home/wall/projects/IoT/mcu/platforms/espressif/esp8266_sdk/2.2.1/ESP8266_NONOS_SDK_2.2.1/lib/liblwip.a(timers.o)
                                        0x2ef (size before relaxing)
                0x000000004023c918                sys_timeout
                0x000000004023c9a0                tcp_timer_needed
                0x000000004023ca10                sys_timeouts_init
                0x000000004023ca9c                sys_untimeout
                0x000000004023caec                sys_check_timeouts
                0x000000004023cb70                sys_restart_timeouts
 *fill*         0x000000004023cb7f        0x1 
 .irom0.text    0x000000004023cb80      0x4f9 /home/wall/projects/IoT/mcu/platforms/espressif/esp8266_sdk/2.2.1/ESP8266_NONOS_SDK_2.2.1/lib/liblwip.a(udp.o)
                                        0x581 (size before relaxing)
                0x000000004023cb84                udp_input
                0x000000004023cd74                udp_bind
                0x000000004023cdf0                udp_sendto_if
                0x000000004023cf2c                udp_sendto
                0x000000004023cf7c                udp_send
                0x000000004023cf94                udp_connect
                0x000000004023cff8                udp_disconnect
                0x000000004023d00c                udp_recv
                0x000000004023d014                udp_remove
                0x000000004023d048                udp_new
 *fill*         0x000000004023d079        0x3 
 .irom0.text    0x000000004023d07c      0xc99 /home/wall/projects/IoT/mcu/platforms/espressif/esp8266_sdk/2.2.1/ESP8266_NONOS_SDK_2.2.1/lib/liblwip.a(espconn.o)
                                        0xdcd (size before relaxing)
                0x000000004023d07c                espconn_copy_partial
                0x000000004023d130                espconn_list_creat
                0x000000004023d150                espconn_list_delete
                0x000000004023d174                espconn_pbuf_create
                0x000000004023d190                espconn_pbuf_delete
                0x000000004023d1b0                espconn_find_connection
                0x000000004023d250                espconn_connect
                0x000000004023d35c                espconn_create
                0x000000004023d3a8                espconn_sent
                0x000000004023d3a8                espconn_send
                0x000000004023d490                espconn_recv
                0x000000004023d524                espconn_sendto
                0x000000004023d580                espconn_tcp_get_wnd
                0x000000004023d5a0                espconn_tcp_set_wnd
                0x000000004023d5c8                espconn_tcp_get_mss
                0x000000004023d5d0                espconn_tcp_get_max_con
                0x000000004023d5e0                espconn_tcp_set_max_con
                0x000000004023d600                espconn_tcp_get_max_retran
                0x000000004023d610                espconn_tcp_set_max_retran
                0x000000004023d630                espconn_tcp_get_max_syn
                0x000000004023d640                espconn_tcp_set_max_syn
                0x000000004023d660                espconn_tcp_get_max_con_allow
                0x000000004023d688                espconn_tcp_set_max_con_allow
                0x000000004023d6bc                espconn_tcp_set_buf_count
                0x000000004023d6ec                espconn_regist_sentcb
                0x000000004023d6fc                espconn_regist_write_finish
                0x000000004023d714                espconn_regist_connectcb
                0x000000004023d728                espconn_regist_recvcb
                0x000000004023d738                espconn_regist_reconcb
                0x000000004023d748                espconn_regist_disconcb
                0x000000004023d760                espconn_get_connection_info
                0x000000004023d824                espconn_accept
                0x000000004023d870                espconn_regist_time
                0x000000004023d8d8                espconn_disconnect
                0x000000004023d928                espconn_abort
                0x000000004023d974                espconn_get_packet_info
                0x000000004023da24                espconn_set_opt
                0x000000004023da88                espconn_clear_opt
                0x000000004023daf4                espconn_set_keepalive
                0x000000004023db8c                espconn_get_keepalive
                0x000000004023dc1c                espconn_delete
                0x000000004023dc64                espconn_port
                0x000000004023dc9c                espconn_gethostbyname
                0x000000004023dcb8                espconn_dns_setserver
                0x000000004023dd00                espconn_dns_getserver
 *fill*         0x000000004023dd15        0x3 
 .irom0.text    0x000000004023dd18      0x427 /home/wall/projects/IoT/mcu/platforms/espressif/esp8266_sdk/2.2.1/ESP8266_NONOS_SDK_2.2.1/lib/liblwip.a(espconn_buf.o)
                                        0x467 (size before relaxing)
                0x000000004023dd64                ringbuf_new
                0x000000004023ddb4                ringbuf_buffer_size
                0x000000004023ddb8                ringbuf_reset
                0x000000004023ddc8                ringbuf_free
                0x000000004023de08                ringbuf_capacity
                0x000000004023de10                ringbuf_bytes_free
                0x000000004023de28                ringbuf_bytes_used
                0x000000004023de44                ringbuf_is_full
                0x000000004023de5c                ringbuf_is_empty
                0x000000004023de80                ringbuf_tail
                0x000000004023de84                ringbuf_head
                0x000000004023de94                ringbuf_findchr
                0x000000004023df34                ringbuf_memset
                0x000000004023dfec                ringbuf_memcpy_into
                0x000000004023e09c                ringbuf_memcpy_from
 *fill*         0x000000004023e13f        0x1 
 .irom0.text    0x000000004023e140      0x520 /home/wall/projects/IoT/mcu/platforms/espressif/esp8266_sdk/2.2.1/ESP8266_NONOS_SDK_2.2.1/lib/liblwip.a(espconn_udp.o)
                                        0x690 (size before relaxing)
                0x000000004023e210                espconn_udp_sendto
                0x000000004023e3ec                espconn_udp_sent
                0x000000004023e580                espconn_udp_disconnect
                0x000000004023e5bc                espconn_udp_server
                0x000000004023e628                espconn_igmp_leave
                0x000000004023e644                espconn_igmp_join
 .irom0.text    0x000000004023e660      0x248 /home/wall/projects/IoT/mcu/platforms/espressif/esp8266_sdk/2.2.1/ESP8266_NONOS_SDK_2.2.1/lib/liblwip.a(icmp.o)
                                        0x2cc (size before relaxing)
                0x000000004023e660                icmp_input
                0x000000004023e800                icmp_dest_unreach
 .irom0.text    0x000000004023e8a8      0x5a6 /home/wall/projects/IoT/mcu/platforms/espressif/esp8266_sdk/2.2.1/ESP8266_NONOS_SDK_2.2.1/lib/liblwip.a(igmp.o)
                                        0x626 (size before relaxing)
                0x000000004023ea34                igmp_init
                0x000000004023ea48                igmp_stop
                0x000000004023eaac                igmp_report_groups
                0x000000004023eadc                igmp_lookfor_group
                0x000000004023eaf8                igmp_start
                0x000000004023eb54                igmp_input
                0x000000004023ec78                igmp_joingroup
                0x000000004023ed44                igmp_leavegroup
                0x000000004023ee14                igmp_tmr
 *fill*         0x000000004023ee4e        0x2 
 .irom0.literal
                0x000000004023ee50        0x0 /home/wall/projects/IoT/mcu/platforms/espressif/esp8266_sdk/2.2.1/ESP8266_NONOS_SDK_2.2.1/lib/libmain.a(app_main.o)
 *fill*         0x000000004023ee50        0x0 
 .irom.text     0x000000004023ee50      0x530 /home/wall/projects/IoT/mcu/platforms/espressif/esp8266_sdk/2.2.1/ESP8266_NONOS_SDK_2.2.1/lib/libmain.a(app_main.o)
 .irom0.literal
                0x000000004023f380        0x0 /home/wall/projects/IoT/mcu/platforms/espressif/esp8266_sdk/2.2.1/ESP8266_NONOS_SDK_2.2.1/lib/libmain.a(ets_timer.o)
 *fill*         0x000000004023f380        0x0 
 .irom.text     0x000000004023f380      0x14c /home/wall/projects/IoT/mcu/platforms/espressif/esp8266_sdk/2.2.1/ESP8266_NONOS_SDK_2.2.1/lib/libmain.a(ets_timer.o)
 .irom0.literal
                0x000000004023f4cc        0x0 /home/wall/projects/IoT/mcu/platforms/espressif/esp8266_sdk/2.2.1/ESP8266_NONOS_SDK_2.2.1/lib/libmain.a(mem_manager.o)
 *fill*         0x000000004023f4cc        0x4 
 .irom.text     0x000000004023f4d0       0x11 /home/wall/projects/IoT/mcu/platforms/espressif/esp8266_sdk/2.2.1/ESP8266_NONOS_SDK_2.2.1/lib/libmain.a(mem_manager.o)
 *fill*         0x000000004023f4e1        0x3 
 .irom0.literal
                0x000000004023f4e4        0x0 /home/wall/projects/IoT/mcu/platforms/espressif/esp8266_sdk/2.2.1/ESP8266_NONOS_SDK_2.2.1/lib/libmain.a(user_interface.o)
 *fill*         0x000000004023f4e4        0xc 
 .irom.text     0x000000004023f4f0      0x435 /home/wall/projects/IoT/mcu/platforms/espressif/esp8266_sdk/2.2.1/ESP8266_NONOS_SDK_2.2.1/lib/libmain.a(user_interface.o)
                0x000000004023f510                default_ssid
 *fill*         0x000000004023f925        0x3 
 .irom0.literal
                0x000000004023f928        0x0 /home/wall/projects/IoT/mcu/platforms/espressif/esp8266_sdk/2.2.1/ESP8266_NONOS_SDK_2.2.1/lib/libmain.a(spi_flash.o)
 *fill*         0x000000004023f928        0x8 
 .irom.text     0x000000004023f930      0x12f /home/wall/projects/IoT/mcu/platforms/espressif/esp8266_sdk/2.2.1/ESP8266_NONOS_SDK_2.2.1/lib/libmain.a(spi_flash.o)
 *fill*         0x000000004023fa5f        0x1 
 .irom0.literal
                0x000000004023fa60        0x0 /home/wall/projects/IoT/mcu/platforms/espressif/esp8266_sdk/2.2.1/ESP8266_NONOS_SDK_2.2.1/lib/libmain.a(eagle_lib.o)
 .irom0.literal
                0x000000004023fa60        0x0 /home/wall/projects/IoT/mcu/platforms/espressif/esp8266_sdk/2.2.1/ESP8266_NONOS_SDK_2.2.1/lib/libmain.a(eagle_lwip_if.o)
 *fill*         0x000000004023fa60        0x0 
 .irom.text     0x000000004023fa60       0x63 /home/wall/projects/IoT/mcu/platforms/espressif/esp8266_sdk/2.2.1/ESP8266_NONOS_SDK_2.2.1/lib/libmain.a(eagle_lwip_if.o)
 *fill*         0x000000004023fac3        0x1 
 .irom0.literal
                0x000000004023fac4        0x0 /home/wall/projects/IoT/mcu/platforms/espressif/esp8266_sdk/2.2.1/ESP8266_NONOS_SDK_2.2.1/lib/libpp.a(if_hwctrl.o)
 *fill*         0x000000004023fac4        0xc 
 .irom.text     0x000000004023fad0       0x50 /home/wall/projects/IoT/mcu/platforms/espressif/esp8266_sdk/2.2.1/ESP8266_NONOS_SDK_2.2.1/lib/libpp.a(if_hwctrl.o)
 .irom0.literal
                0x000000004023fb20        0x0 /home/wall/projects/IoT/mcu/platforms/espressif/esp8266_sdk/2.2.1/ESP8266_NONOS_SDK_2.2.1/lib/libpp.a(lmac.o)
 *fill*         0x000000004023fb20        0x0 
 .irom.text     0x000000004023fb20       0x2f /home/wall/projects/IoT/mcu/platforms/espressif/esp8266_sdk/2.2.1/ESP8266_NONOS_SDK_2.2.1/lib/libpp.a(lmac.o)
 *fill*         0x000000004023fb4f        0x1 
 .irom0.literal
                0x000000004023fb50        0x0 /home/wall/projects/IoT/mcu/platforms/espressif/esp8266_sdk/2.2.1/ESP8266_NONOS_SDK_2.2.1/lib/libpp.a(pm.o)
 *fill*         0x000000004023fb50        0x0 
 .irom.text     0x000000004023fb50      0x14d /home/wall/projects/IoT/mcu/platforms/espressif/esp8266_sdk/2.2.1/ESP8266_NONOS_SDK_2.2.1/lib/libpp.a(pm.o)
 *fill*         0x000000004023fc9d        0x3 
 .irom0.literal
                0x000000004023fca0        0x0 /home/wall/projects/IoT/mcu/platforms/espressif/esp8266_sdk/2.2.1/ESP8266_NONOS_SDK_2.2.1/lib/libpp.a(pm_for_bcn_only_mode.o)
 *fill*         0x000000004023fca0        0x0 
 .irom.text     0x000000004023fca0      0x118 /home/wall/projects/IoT/mcu/platforms/espressif/esp8266_sdk/2.2.1/ESP8266_NONOS_SDK_2.2.1/lib/libpp.a(pm_for_bcn_only_mode.o)
 .irom0.literal
                0x000000004023fdb8        0x0 /home/wall/projects/IoT/mcu/platforms/espressif/esp8266_sdk/2.2.1/ESP8266_NONOS_SDK_2.2.1/lib/libpp.a(pp.o)
 *fill*         0x000000004023fdb8        0x8 
 .irom.text     0x000000004023fdc0       0x6e /home/wall/projects/IoT/mcu/platforms/espressif/esp8266_sdk/2.2.1/ESP8266_NONOS_SDK_2.2.1/lib/libpp.a(pp.o)
 *fill*         0x000000004023fe2e        0x2 
 .irom0.literal
                0x000000004023fe30        0x0 /home/wall/projects/IoT/mcu/platforms/espressif/esp8266_sdk/2.2.1/ESP8266_NONOS_SDK_2.2.1/lib/libpp.a(rate_control.o)
 *fill*         0x000000004023fe30        0x0 
 .irom0.literal
                0x000000004023fe30        0x0 /home/wall/projects/IoT/mcu/platforms/espressif/esp8266_sdk/2.2.1/ESP8266_NONOS_SDK_2.2.1/lib/libpp.a(trc.o)
 *fill*         0x000000004023fe30        0x0 
 .irom.text     0x000000004023fe30       0x38 /home/wall/projects/IoT/mcu/platforms/espressif/esp8266_sdk/2.2.1/ESP8266_NONOS_SDK_2.2.1/lib/libpp.a(trc.o)
 .irom0.literal
                0x000000004023fe68        0x0 /home/wall/projects/IoT/mcu/platforms/espressif/esp8266_sdk/2.2.1/ESP8266_NONOS_SDK_2.2.1/lib/libpp.a(wdev.o)
 *fill*         0x000000004023fe68        0x0 
 .irom.text     0x000000004023fe68        0x7 /home/wall/projects/IoT/mcu/platforms/espressif/esp8266_sdk/2.2.1/ESP8266_NONOS_SDK_2.2.1/lib/libpp.a(wdev.o)
 *fill*         0x000000004023fe6f        0x1 
 .irom0.literal
                0x000000004023fe70        0x0 /home/wall/projects/IoT/mcu/platforms/espressif/esp8266_sdk/2.2.1/ESP8266_NONOS_SDK_2.2.1/lib/libpp.a(esf_buf.o)
 *fill*         0x000000004023fe70        0x0 
 .irom.text     0x000000004023fe70        0xa /home/wall/projects/IoT/mcu/platforms/espressif/esp8266_sdk/2.2.1/ESP8266_NONOS_SDK_2.2.1/lib/libpp.a(esf_buf.o)
 *fill*         0x000000004023fe7a        0x2 
 .irom0.literal
                0x000000004023fe7c        0x0 /home/wall/projects/IoT/mcu/platforms/espressif/esp8266_sdk/2.2.1/ESP8266_NONOS_SDK_2.2.1/lib/libphy.a(phy.o)
 *fill*         0x000000004023fe7c        0x0 
 .irom0.literal
                0x000000004023fe7c        0x0 /home/wall/projects/IoT/mcu/platforms/espressif/esp8266_sdk/2.2.1/ESP8266_NONOS_SDK_2.2.1/lib/libphy.a(phy_chip_v6_ana.o)
 *fill*         0x000000004023fe7c        0x4 
 .irom.text     0x000000004023fe80       0x65 /home/wall/projects/IoT/mcu/platforms/espressif/esp8266_sdk/2.2.1/ESP8266_NONOS_SDK_2.2.1/lib/libphy.a(phy_chip_v6_ana.o)
 *fill*         0x000000004023fee5        0x3 
 .irom0.literal
                0x000000004023fee8        0x0 /home/wall/projects/IoT/mcu/platforms/espressif/esp8266_sdk/2.2.1/ESP8266_NONOS_SDK_2.2.1/lib/libphy.a(phy_chip_v6.o)
 *fill*         0x000000004023fee8        0x8 
 .irom.text     0x000000004023fef0      0x14c /home/wall/projects/IoT/mcu/platforms/espressif/esp8266_sdk/2.2.1/ESP8266_NONOS_SDK_2.2.1/lib/libphy.a(phy_chip_v6.o)
 .irom0.literal
                0x000000004024003c        0x0 /home/wall/projects/IoT/mcu/platforms/espressif/esp8266_sdk/2.2.1/ESP8266_NONOS_SDK_2.2.1/lib/libphy.a(phy_chip_v6_cal.o)
 *fill*         0x000000004024003c        0x4 
 .irom.text     0x0000000040240040      0x1f4 /home/wall/projects/IoT/mcu/platforms/espressif/esp8266_sdk/2.2.1/ESP8266_NONOS_SDK_2.2.1/lib/libphy.a(phy_chip_v6_cal.o)
 .irom0.literal
                0x0000000040240234        0x0 /home/wall/projects/IoT/mcu/platforms/espressif/esp8266_sdk/2.2.1/ESP8266_NONOS_SDK_2.2.1/lib/libphy.a(phy_chip_v6_unused.o)
 .irom0.text    0x0000000040240234        0xc /home/wall/projects/IoT/mcu/platforms/espressif/esp8266_sdk/2.2.1/ESP8266_NONOS_SDK_2.2.1/lib/libphy.a(phy_chip_v6_unused.o)
                0x0000000040240234                chip_v6_set_sense
                0x0000000040240238                chip_v6_get_sense
                0x000000004024023c                chip_v6_unset_chanfreq
 .irom0.literal
                0x0000000040240240        0x0 /home/wall/projects/IoT/mcu/platforms/espressif/esp8266_sdk/2.2.1/ESP8266_NONOS_SDK_2.2.1/lib/libphy.a(phy_sleep.o)
 *fill*         0x0000000040240240        0x0 
 .irom.text     0x0000000040240240       0x82 /home/wall/projects/IoT/mcu/platforms/espressif/esp8266_sdk/2.2.1/ESP8266_NONOS_SDK_2.2.1/lib/libnet80211.a(ieee80211.o)
                0x0000000040240250                ieee80211_opcap
 *fill*         0x00000000402402c2        0xe 
 .irom.text     0x00000000402402d0       0x4d /home/wall/projects/IoT/mcu/platforms/espressif/esp8266_sdk/2.2.1/ESP8266_NONOS_SDK_2.2.1/lib/libnet80211.a(ieee80211_hostap.o)
 *fill*         0x000000004024031d        0x3 
 .irom.text     0x0000000040240320       0x19 /home/wall/projects/IoT/mcu/platforms/espressif/esp8266_sdk/2.2.1/ESP8266_NONOS_SDK_2.2.1/lib/libnet80211.a(ieee80211_ht.o)
 *fill*         0x0000000040240339        0x7 
 .irom.text     0x0000000040240340       0x12 /home/wall/projects/IoT/mcu/platforms/espressif/esp8266_sdk/2.2.1/ESP8266_NONOS_SDK_2.2.1/lib/libnet80211.a(ieee80211_input.o)
 *fill*         0x0000000040240352        0xe 
 .irom.text     0x0000000040240360       0x43 /home/wall/projects/IoT/mcu/platforms/espressif/esp8266_sdk/2.2.1/ESP8266_NONOS_SDK_2.2.1/lib/libnet80211.a(ieee80211_mesh_quick.o)
 *fill*         0x00000000402403a3        0xd 
 .irom.text     0x00000000402403b0       0x3d /home/wall/projects/IoT/mcu/platforms/espressif/esp8266_sdk/2.2.1/ESP8266_NONOS_SDK_2.2.1/lib/libnet80211.a(ieee80211_output.o)
 *fill*         0x00000000402403ed        0x3 
 .irom.text     0x00000000402403f0      0x1b8 /home/wall/projects/IoT/mcu/platforms/espressif/esp8266_sdk/2.2.1/ESP8266_NONOS_SDK_2.2.1/lib/libnet80211.a(ieee80211_phy.o)
 *fill*         0x00000000402405a8        0x8 
 .irom.text     0x00000000402405b0       0x1c /home/wall/projects/IoT/mcu/platforms/espressif/esp8266_sdk/2.2.1/ESP8266_NONOS_SDK_2.2.1/lib/libnet80211.a(ieee80211_proto.o)
 *fill*         0x00000000402405cc        0x4 
 .irom.text     0x00000000402405d0       0x16 /home/wall/projects/IoT/mcu/platforms/espressif/esp8266_sdk/2.2.1/ESP8266_NONOS_SDK_2.2.1/lib/libnet80211.a(ieee80211_regdomain.o)
 *fill*         0x00000000402405e6        0xa 
 .irom.text     0x00000000402405f0       0x89 /home/wall/projects/IoT/mcu/platforms/espressif/esp8266_sdk/2.2.1/ESP8266_NONOS_SDK_2.2.1/lib/libnet80211.a(ieee80211_scan.o)
 *fill*         0x0000000040240679        0x7 
 .irom.text     0x0000000040240680       0x26 /home/wall/projects/IoT/mcu/platforms/espressif/esp8266_sdk/2.2.1/ESP8266_NONOS_SDK_2.2.1/lib/libnet80211.a(ieee80211_sta.o)
 *fill*         0x00000000402406a6        0xa 
 .irom.text     0x00000000402406b0      0x1c7 /home/wall/projects/IoT/mcu/platforms/espressif/esp8266_sdk/2.2.1/ESP8266_NONOS_SDK_2.2.1/lib/libnet80211.a(wl_cnx.o)
 *fill*         0x0000000040240877        0x9 
 .irom.text     0x0000000040240880       0xe3 /home/wall/projects/IoT/mcu/platforms/espressif/esp8266_sdk/2.2.1/ESP8266_NONOS_SDK_2.2.1/lib/libnet80211.a(ieee80211_action_vendor.o)
 *fill*         0x0000000040240963        0x1 
 .irom.text     0x0000000040240964       0x18 /home/wall/projects/IoT/mcu/platforms/espressif/esp8266_sdk/2.2.1/ESP8266_NONOS_SDK_2.2.1/lib/libnet80211.a(ieee80211_crypto_ccmp.o)
                0x0000000040240964                ccmp
 .irom0.literal
                0x000000004024097c        0x0 /home/wall/projects/IoT/mcu/platforms/espressif/esp8266_sdk/2.2.1/ESP8266_NONOS_SDK_2.2.1/lib/liblwip.a(dhcp.o)
 .irom.text     0x000000004024097c        0xe /home/wall/projects/IoT/mcu/platforms/espressif/esp8266_sdk/2.2.1/ESP8266_NONOS_SDK_2.2.1/lib/liblwip.a(dhcp.o)
 *fill*         0x000000004024098a        0x2 
 .irom0.literal
                0x000000004024098c        0x0 /home/wall/projects/IoT/mcu/platforms/espressif/esp8266_sdk/2.2.1/ESP8266_NONOS_SDK_2.2.1/lib/liblwip.a(dhcpserver.o)
 .irom.text     0x000000004024098c       0x2c /home/wall/projects/IoT/mcu/platforms/espressif/esp8266_sdk/2.2.1/ESP8266_NONOS_SDK_2.2.1/lib/liblwip.a(dhcpserver.o)
 .irom0.literal
                0x00000000402409b8        0x0 /home/wall/projects/IoT/mcu/platforms/espressif/esp8266_sdk/2.2.1/ESP8266_NONOS_SDK_2.2.1/lib/liblwip.a(dns.o)
 *fill*         0x00000000402409b8        0x0 
 .irom0.literal
                0x00000000402409b8        0x0 /home/wall/projects/IoT/mcu/platforms/espressif/esp8266_sdk/2.2.1/ESP8266_NONOS_SDK_2.2.1/lib/liblwip.a(espconn_tcp.o)
 .irom.text     0x00000000402409b8       0x8e /home/wall/projects/IoT/mcu/platforms/espressif/esp8266_sdk/2.2.1/ESP8266_NONOS_SDK_2.2.1/lib/liblwip.a(espconn_tcp.o)
 *fill*         0x0000000040240a46        0x2 
 .irom0.literal
                0x0000000040240a48        0x0 /home/wall/projects/IoT/mcu/platforms/espressif/esp8266_sdk/2.2.1/ESP8266_NONOS_SDK_2.2.1/lib/liblwip.a(etharp.o)
 *fill*         0x0000000040240a48        0x0 
 .irom0.literal
                0x0000000040240a48        0x0 /home/wall/projects/IoT/mcu/platforms/espressif/esp8266_sdk/2.2.1/ESP8266_NONOS_SDK_2.2.1/lib/liblwip.a(init.o)
 *fill*         0x0000000040240a48        0x0 
 .irom0.literal
                0x0000000040240a48        0x0 /home/wall/projects/IoT/mcu/platforms/espressif/esp8266_sdk/2.2.1/ESP8266_NONOS_SDK_2.2.1/lib/liblwip.a(ip.o)
 *fill*         0x0000000040240a48        0x0 
 .irom.text     0x0000000040240a48       0x11 /home/wall/projects/IoT/mcu/platforms/espressif/esp8266_sdk/2.2.1/ESP8266_NONOS_SDK_2.2.1/lib/liblwip.a(ip.o)
 *fill*         0x0000000040240a59        0x3 
 .irom0.literal
                0x0000000040240a5c        0x0 /home/wall/projects/IoT/mcu/platforms/espressif/esp8266_sdk/2.2.1/ESP8266_NONOS_SDK_2.2.1/lib/liblwip.a(ip_addr.o)
 .irom.text     0x0000000040240a5c        0x8 /home/wall/projects/IoT/mcu/platforms/espressif/esp8266_sdk/2.2.1/ESP8266_NONOS_SDK_2.2.1/lib/liblwip.a(ip_addr.o)
                0x0000000040240a5c                ip_addr_broadcast
                0x0000000040240a60                ip_addr_any
 .irom.text     0x0000000040240a64       0x28 /home/wall/projects/IoT/mcu/platforms/espressif/esp8266_sdk/2.2.1/ESP8266_NONOS_SDK_2.2.1/lib/liblwip.a(memp.o)
                0x0000000040240a64                memp_sizes
 .irom0.literal
                0x0000000040240a8c        0x0 /home/wall/projects/IoT/mcu/platforms/espressif/esp8266_sdk/2.2.1/ESP8266_NONOS_SDK_2.2.1/lib/liblwip.a(netif.o)
 .irom0.literal
                0x0000000040240a8c        0x0 /home/wall/projects/IoT/mcu/platforms/espressif/esp8266_sdk/2.2.1/ESP8266_NONOS_SDK_2.2.1/lib/liblwip.a(pbuf.o)
 .irom0.literal
                0x0000000040240a8c        0x0 /home/wall/projects/IoT/mcu/platforms/espressif/esp8266_sdk/2.2.1/ESP8266_NONOS_SDK_2.2.1/lib/liblwip.a(raw.o)
 *fill*         0x0000000040240a8c        0x0 
 .irom0.literal
                0x0000000040240a8c        0x0 /home/wall/projects/IoT/mcu/platforms/espressif/esp8266_sdk/2.2.1/ESP8266_NONOS_SDK_2.2.1/lib/liblwip.a(tcp.o)
 *fill*         0x0000000040240a8c        0x0 
 .irom.text     0x0000000040240a8c       0x24 /home/wall/projects/IoT/mcu/platforms/espressif/esp8266_sdk/2.2.1/ESP8266_NONOS_SDK_2.2.1/lib/liblwip.a(tcp.o)
                0x0000000040240a8c                tcp_pcb_lists
                0x0000000040240a9c                tcp_persist_backoff
                0x0000000040240aa3                tcp_backoff
 .irom0.literal
                0x0000000040240ab0        0x0 /home/wall/projects/IoT/mcu/platforms/espressif/esp8266_sdk/2.2.1/ESP8266_NONOS_SDK_2.2.1/lib/liblwip.a(tcp_in.o)
 *fill*         0x0000000040240ab0        0x0 
 .irom0.literal
                0x0000000040240ab0        0x0 /home/wall/projects/IoT/mcu/platforms/espressif/esp8266_sdk/2.2.1/ESP8266_NONOS_SDK_2.2.1/lib/liblwip.a(tcp_out.o)
 *fill*         0x0000000040240ab0        0x0 
 .irom0.literal
                0x0000000040240ab0        0x0 /home/wall/projects/IoT/mcu/platforms/espressif/esp8266_sdk/2.2.1/ESP8266_NONOS_SDK_2.2.1/lib/liblwip.a(timers.o)
 *fill*         0x0000000040240ab0        0x0 
 .irom0.literal
                0x0000000040240ab0        0x0 /home/wall/projects/IoT/mcu/platforms/espressif/esp8266_sdk/2.2.1/ESP8266_NONOS_SDK_2.2.1/lib/liblwip.a(udp.o)
 *fill*         0x0000000040240ab0        0x0 
 .irom0.literal
                0x0000000040240ab0        0x0 /home/wall/projects/IoT/mcu/platforms/espressif/esp8266_sdk/2.2.1/ESP8266_NONOS_SDK_2.2.1/lib/liblwip.a(espconn.o)
 *fill*         0x0000000040240ab0        0x0 
 .irom0.literal
                0x0000000040240ab0        0x0 /home/wall/projects/IoT/mcu/platforms/espressif/esp8266_sdk/2.2.1/ESP8266_NONOS_SDK_2.2.1/lib/liblwip.a(espconn_buf.o)
 *fill*         0x0000000040240ab0        0x0 
 .irom.text     0x0000000040240ab0       0x47 /home/wall/projects/IoT/mcu/platforms/espressif/esp8266_sdk/2.2.1/ESP8266_NONOS_SDK_2.2.1/lib/liblwip.a(espconn_buf.o)
 *fill*         0x0000000040240af7        0x1 
 .irom0.literal
                0x0000000040240af8        0x0 /home/wall/projects/IoT/mcu/platforms/espressif/esp8266_sdk/2.2.1/ESP8266_NONOS_SDK_2.2.1/lib/liblwip.a(espconn_udp.o)
 .irom0.literal
                0x0000000040240af8        0x0 /home/wall/projects/IoT/mcu/platforms/espressif/esp8266_sdk/2.2.1/ESP8266_NONOS_SDK_2.2.1/lib/liblwip.a(icmp.o)
 .irom0.literal
                0x0000000040240af8        0x0 /home/wall/projects/IoT/mcu/platforms/espressif/esp8266_sdk/2.2.1/ESP8266_NONOS_SDK_2.2.1/lib/liblwip.a(igmp.o)
 *fill*         0x0000000040240af8        0x0 
 .irom0.literal
                0x0000000040240af8        0x0 /home/wall/projects/IoT/mcu/platforms/espressif/esp8266_sdk/2.2.1/ESP8266_NONOS_SDK_2.2.1/lib/liblwip.a(inet_chksum.o)
 .irom0.text    0x0000000040240af8      0x28c /home/wall/projects/IoT/mcu/platforms/espressif/esp8266_sdk/2.2.1/ESP8266_NONOS_SDK_2.2.1/lib/liblwip.a(inet_chksum.o)
                0x0000000040240b60                inet_chksum_pseudo
                0x0000000040240c20                inet_chksum_pseudo_partial
                0x0000000040240cfc                inet_chksum
                0x0000000040240d18                inet_chksum_pbuf
 *fill*         0x0000000040240d84        0xc 
 .irom.text     0x0000000040240d90        0xc /home/wall/projects/IoT/mcu/platforms/espressif/esp8266_sdk/2.2.1/ESP8266_NONOS_SDK_2.2.1/lib/libwpa.a(ap_config.o)
 *fill*         0x0000000040240d9c        0x4 
 .irom.text     0x0000000040240da0        0x9 /home/wall/projects/IoT/mcu/platforms/espressif/esp8266_sdk/2.2.1/ESP8266_NONOS_SDK_2.2.1/lib/libwpa.a(common.o)
 *fill*         0x0000000040240da9        0x7 
 .irom.text     0x0000000040240db0        0xc /home/wall/projects/IoT/mcu/platforms/espressif/esp8266_sdk/2.2.1/ESP8266_NONOS_SDK_2.2.1/lib/libwpa.a(os_xtensa.o)
 *fill*         0x0000000040240dbc        0x4 
 .irom.text     0x0000000040240dc0       0x74 /home/wall/projects/IoT/mcu/platforms/espressif/esp8266_sdk/2.2.1/ESP8266_NONOS_SDK_2.2.1/lib/libwpa.a(wpa_auth.o)
 *fill*         0x0000000040240e34        0xc 
 .irom.text     0x0000000040240e40        0xe /home/wall/projects/IoT/mcu/platforms/espressif/esp8266_sdk/2.2.1/ESP8266_NONOS_SDK_2.2.1/lib/libwpa.a(wpa_auth_ie.o)
 *fill*         0x0000000040240e4e        0x2 
 .irom.text     0x0000000040240e50       0x17 /home/wall/projects/IoT/mcu/platforms/espressif/esp8266_sdk/2.2.1/ESP8266_NONOS_SDK_2.2.1/lib/libwpa.a(wpa.o)
 *fill*         0x0000000040240e67        0x9 
 .irom.text     0x0000000040240e70       0x1c /home/wall/projects/IoT/mcu/platforms/espressif/esp8266_sdk/2.2.1/ESP8266_NONOS_SDK_2.2.1/lib/libwpa.a(wpa_common.o)
 *fill*         0x0000000040240e8c        0x4 
 .irom.text     0x0000000040240e90       0x67 /home/wall/projects/IoT/mcu/platforms/espressif/esp8266_sdk/2.2.1/ESP8266_NONOS_SDK_2.2.1/lib/libwpa.a(wpa_main.o)
 *fill*         0x0000000040240ef7        0x9 
 .irom.text     0x0000000040240f00       0x13 /home/wall/projects/IoT/mcu/platforms/espressif/esp8266_sdk/2.2.1/ESP8266_NONOS_SDK_2.2.1/lib/libcrypto.a(aes-internal-enc.o)
 *fill*         0x0000000040240f13        0x1 
 .irom.text     0x0000000040240f14       0x18 /home/wall/projects/IoT/mcu/platforms/espressif/esp8266_sdk/2.2.1/ESP8266_NONOS_SDK_2.2.1/lib/libnet80211.a(ieee80211_crypto_tkip.o)
                0x0000000040240f14                tkip
 .irom.text     0x0000000040240f2c       0x18 /home/wall/projects/IoT/mcu/platforms/espressif/esp8266_sdk/2.2.1/ESP8266_NONOS_SDK_2.2.1/lib/libnet80211.a(ieee80211_crypto_wep.o)
                0x0000000040240f2c                wep
                0x0000000040240f44                _irom0_text_end = ABSOLUTE (.)

.text           0x0000000040100000     0x63e8
                0x0000000040100000                _stext = .
                0x0000000040100000                _text_start = ABSOLUTE (.)
 *(.UserEnter.text)
 .UserEnter.text
                0x0000000040100000        0xd /home/wall/projects/IoT/mcu/platforms/espressif/esp8266_sdk/2.2.1/ESP8266_NONOS_SDK_2.2.1/lib/libmain.a(vector.o)
                                         0x14 (size before relaxing)
                0x0000000040100004                call_user_start
                0x0000000040100010                . = ALIGN (0x10)
 *fill*         0x000000004010000d        0x3 
 *(.DebugExceptionVector.text)
 .DebugExceptionVector.text
                0x0000000040100010        0x6 /home/wall/projects/IoT/mcu/platforms/espressif/esp8266_sdk/2.2.1/ESP8266_NONOS_SDK_2.2.1/lib/libmain.a(debug-vector.o)
                0x0000000040100010                _DebugExceptionVector
                0x0000000040100020                . = ALIGN (0x10)
 *fill*         0x0000000040100016        0xa 
 *(.NMIExceptionVector.text)
 .NMIExceptionVector.text
                0x0000000040100020        0x6 /home/wall/projects/IoT/mcu/platforms/espressif/esp8266_sdk/2.2.1/ESP8266_NONOS_SDK_2.2.1/lib/libmain.a(nmi-vector.o)
                                          0xd (size before relaxing)
                0x0000000040100020                _NMIExceptionVector
                0x0000000040100030                . = ALIGN (0x10)
 *fill*         0x0000000040100026        0xa 
 *(.KernelExceptionVector.text)
 .KernelExceptionVector.text
                0x0000000040100030        0x6 /home/wall/projects/IoT/mcu/platforms/espressif/esp8266_sdk/2.2.1/ESP8266_NONOS_SDK_2.2.1/lib/libmain.a(kernel-vector.o)
                0x0000000040100030                _KernelExceptionVector
                0x0000000040100036        0x4 LONG 0x0
                0x000000004010003a        0x4 LONG 0x0
                0x000000004010003e        0x4 LONG 0x0
                0x0000000040100042        0x4 LONG 0x0
                0x0000000040100050                . = ALIGN (0x10)
 *fill*         0x0000000040100046        0xa 
 *(.UserExceptionVector.text)
 .UserExceptionVector.text
                0x0000000040100050        0x6 /home/wall/projects/IoT/mcu/platforms/espressif/esp8266_sdk/2.2.1/ESP8266_NONOS_SDK_2.2.1/lib/libmain.a(user-vector.o)
                                          0xd (size before relaxing)
                0x0000000040100050                _UserExceptionVector
                0x0000000040100056        0x4 LONG 0x0
                0x000000004010005a        0x4 LONG 0x0
                0x000000004010005e        0x4 LONG 0x0
                0x0000000040100062        0x4 LONG 0x0
                0x0000000040100070                . = ALIGN (0x10)
 *fill*         0x0000000040100066        0xa 
 *(.DoubleExceptionVector.text)
 .DoubleExceptionVector.text
                0x0000000040100070        0x6 /home/wall/projects/IoT/mcu/platforms/espressif/esp8266_sdk/2.2.1/ESP8266_NONOS_SDK_2.2.1/lib/libmain.a(double-vector.o)
                0x0000000040100070                _DoubleExceptionVector
                0x0000000040100076        0x4 LONG 0x0
                0x000000004010007a        0x4 LONG 0x0
                0x000000004010007e        0x4 LONG 0x0
                0x0000000040100082        0x4 LONG 0x0
                0x0000000040100090                . = ALIGN (0x10)
 *fill*         0x0000000040100086        0xa 
 *(.entry.text)
 *(.init.literal)
 *(.init)
 *(.literal .text .literal.* .text.* .stub .gnu.warning .gnu.linkonce.literal.* .gnu.linkonce.t.*.literal .gnu.linkonce.t.*)
 .text          0x0000000040100090       0xc7 /home/wall/projects/IoT/mcu/platforms/espressif/esp8266_sdk/2.2.1/ESP8266_NONOS_SDK_2.2.1/lib/libmain.a(nmi-vector.o)
                                         0xcb (size before relaxing)
                0x000000004010009c                _NMILevelVector
 *fill*         0x0000000040100157        0x1 
 .text          0x0000000040100158       0x1e /home/wall/projects/IoT/mcu/platforms/espressif/esp8266_sdk/2.2.1/ESP8266_NONOS_SDK_2.2.1/lib/libmain.a(user-vector.o)
                0x000000004010015c                _UserExceptionVector_1
 *fill*         0x0000000040100176        0x2 
 .text          0x0000000040100178      0x67f /home/wall/projects/IoT/mcu/platforms/espressif/esp8266_sdk/2.2.1/ESP8266_NONOS_SDK_2.2.1/lib/libmain.a(app_main.o)
                                        0x6ef (size before relaxing)
                0x00000000401001b0                Cache_Read_Enable_New
                0x00000000401001ec                NmiTimSetFunc
                0x0000000040100210                NMI_Handler
                0x0000000040100268                call_user_start_local
                0x0000000040100280                esp_crc8
                0x0000000040100428                wdt_feed
 *fill*         0x00000000401007f7        0x1 
 .text          0x00000000401007f8      0x3cc /home/wall/projects/IoT/mcu/platforms/espressif/esp8266_sdk/2.2.1/ESP8266_NONOS_SDK_2.2.1/lib/libmain.a(ets_timer.o)
                                        0x450 (size before relaxing)
                0x00000000401008cc                ets_timer_setfn
                0x00000000401009a8                ets_timer_disarm
                0x0000000040100a58                ets_timer_arm_new
 .text          0x0000000040100bc4      0x30f /home/wall/projects/IoT/mcu/platforms/espressif/esp8266_sdk/2.2.1/ESP8266_NONOS_SDK_2.2.1/lib/libmain.a(mem_manager.o)
                                        0x367 (size before relaxing)
                0x0000000040100bc8                prvInsertBlockIntoUsedList
                0x0000000040100bf8                system_show_malloc
                0x0000000040100bf8                pvShowMalloc
                0x0000000040100c84                prvRemoveBlockFromUsedList
                0x0000000040100cb0                xPortWantedSizeAlign
                0x0000000040100cd8                pvPortMalloc
                0x0000000040100da0                vPortFree
                0x0000000040100df8                pvPortCalloc
                0x0000000040100e28                pvPortZalloc
                0x0000000040100e44                pvPortRealloc
 *fill*         0x0000000040100ed3        0x1 
 .text          0x0000000040100ed4      0x33a /home/wall/projects/IoT/mcu/platforms/espressif/esp8266_sdk/2.2.1/ESP8266_NONOS_SDK_2.2.1/lib/libmain.a(user_interface.o)
                                        0x39e (size before relaxing)
                0x0000000040100ef0                os_printf_plus
                0x0000000040101020                system_restart_core
                0x0000000040101060                system_deep_sleep_local_2
                0x0000000040101114                system_get_time
                0x000000004010112c                system_os_post
                0x0000000040101160                system_rtc_mem_write
                0x00000000401011b8                system_rtc_mem_read
 *fill*         0x000000004010120e        0x2 
 .text.Cache_Read_Disable_2
                0x0000000040101210       0x3f /home/wall/projects/IoT/mcu/platforms/espressif/esp8266_sdk/2.2.1/ESP8266_NONOS_SDK_2.2.1/lib/libmain.a(spi_flash.o)
                                         0x47 (size before relaxing)
                0x0000000040101214                Cache_Read_Disable_2
 *fill*         0x000000004010124f        0x1 
 .text.Cache_Read_Enable_2
                0x0000000040101250       0x2e /home/wall/projects/IoT/mcu/platforms/espressif/esp8266_sdk/2.2.1/ESP8266_NONOS_SDK_2.2.1/lib/libmain.a(spi_flash.o)
                                         0x36 (size before relaxing)
                0x0000000040101254                Cache_Read_Enable_2
 *fill*         0x000000004010127e        0x2 
 .text.spi_flash_get_unique_id
                0x0000000040101280      0x18a /home/wall/projects/IoT/mcu/platforms/espressif/esp8266_sdk/2.2.1/ESP8266_NONOS_SDK_2.2.1/lib/libmain.a(spi_flash.o)
                                        0x1ae (size before relaxing)
                0x00000000401012a4                spi_flash_get_unique_id
 *fill*         0x000000004010140a        0x2 
 .text.spi_flash_get_id
                0x000000004010140c       0x59 /home/wall/projects/IoT/mcu/platforms/espressif/esp8266_sdk/2.2.1/ESP8266_NONOS_SDK_2.2.1/lib/libmain.a(spi_flash.o)
                                         0x71 (size before relaxing)
                0x0000000040101410                spi_flash_get_id
 *fill*         0x0000000040101465        0x3 
 .text.spi_flash_read_status
                0x0000000040101468       0x2b /home/wall/projects/IoT/mcu/platforms/espressif/esp8266_sdk/2.2.1/ESP8266_NONOS_SDK_2.2.1/lib/libmain.a(spi_flash.o)
                                         0x3b (size before relaxing)
                0x000000004010146c                spi_flash_read_status
 *fill*         0x0000000040101493        0x1 
 .text.spi_flash_write_status
                0x0000000040101494       0x66 /home/wall/projects/IoT/mcu/platforms/espressif/esp8266_sdk/2.2.1/ESP8266_NONOS_SDK_2.2.1/lib/libmain.a(spi_flash.o)
                                         0x86 (size before relaxing)
                0x00000000401014a0                spi_flash_write_status
 *fill*         0x00000000401014fa        0x2 
 .text.flash_gd25q32c_read_status
                0x00000000401014fc      0x199 /home/wall/projects/IoT/mcu/platforms/espressif/esp8266_sdk/2.2.1/ESP8266_NONOS_SDK_2.2.1/lib/libmain.a(spi_flash.o)
                                        0x1e1 (size before relaxing)
                0x0000000040101510                flash_gd25q32c_read_status
 *fill*         0x0000000040101695        0x3 
 .text.flash_gd25q32c_write_status
                0x0000000040101698      0x198 /home/wall/projects/IoT/mcu/platforms/espressif/esp8266_sdk/2.2.1/ESP8266_NONOS_SDK_2.2.1/lib/libmain.a(spi_flash.o)
                                        0x1e4 (size before relaxing)
                0x00000000401016a8                flash_gd25q32c_write_status
 .text.spi_flash_check_wr_protect
                0x0000000040101830       0xa2 /home/wall/projects/IoT/mcu/platforms/espressif/esp8266_sdk/2.2.1/ESP8266_NONOS_SDK_2.2.1/lib/libmain.a(spi_flash.o)
                                         0xd6 (size before relaxing)
                0x0000000040101840                spi_flash_check_wr_protect
 *fill*         0x00000000401018d2        0x2 
 .text.spi_flash_erase_sector
                0x00000000401018d4       0x50 /home/wall/projects/IoT/mcu/platforms/espressif/esp8266_sdk/2.2.1/ESP8266_NONOS_SDK_2.2.1/lib/libmain.a(spi_flash.o)
                                         0x68 (size before relaxing)
                0x00000000401018e0                spi_flash_erase_sector
 .text.spi_flash_enable_qmode
                0x0000000040101924       0x32 /home/wall/projects/IoT/mcu/platforms/espressif/esp8266_sdk/2.2.1/ESP8266_NONOS_SDK_2.2.1/lib/libmain.a(spi_flash.o)
                                         0x4a (size before relaxing)
                0x0000000040101928                spi_flash_enable_qmode
 *fill*         0x0000000040101956        0x2 
 .text.spi_flash_write
                0x0000000040101958       0x56 /home/wall/projects/IoT/mcu/platforms/espressif/esp8266_sdk/2.2.1/ESP8266_NONOS_SDK_2.2.1/lib/libmain.a(spi_flash.o)
                                         0x6a (size before relaxing)
                0x000000004010195c                spi_flash_write
 *fill*         0x00000000401019ae        0x2 
 .text.spi_flash_read
                0x00000000401019b0       0x5b /home/wall/projects/IoT/mcu/platforms/espressif/esp8266_sdk/2.2.1/ESP8266_NONOS_SDK_2.2.1/lib/libmain.a(spi_flash.o)
                                         0x6f (size before relaxing)
                0x00000000401019b4                spi_flash_read
 *fill*         0x0000000040101a0b        0x1 
 .text.spi_flash_issi_enable_QIO_mode
                0x0000000040101a0c      0x1a1 /home/wall/projects/IoT/mcu/platforms/espressif/esp8266_sdk/2.2.1/ESP8266_NONOS_SDK_2.2.1/lib/libmain.a(spi_flash.o)
                                        0x214 (size before relaxing)
                0x0000000040101a20                spi_flash_issi_enable_QIO_mode
 *fill*         0x0000000040101bad        0x3 
 .text.flash_gd25q32c_enable_QIO_mode
                0x0000000040101bb0       0x5c /home/wall/projects/IoT/mcu/platforms/espressif/esp8266_sdk/2.2.1/ESP8266_NONOS_SDK_2.2.1/lib/libmain.a(spi_flash.o)
                                         0x88 (size before relaxing)
                0x0000000040101bc0                flash_gd25q32c_enable_QIO_mode
 .text.user_spi_flash_dio_to_qio_pre_init
                0x0000000040101c0c       0x7b /home/wall/projects/IoT/mcu/platforms/espressif/esp8266_sdk/2.2.1/ESP8266_NONOS_SDK_2.2.1/lib/libmain.a(spi_flash.o)
                                         0xa2 (size before relaxing)
                0x0000000040101c14                user_spi_flash_dio_to_qio_pre_init
 *fill*         0x0000000040101c87        0x1 
 .text          0x0000000040101c88       0x6d /home/wall/projects/IoT/mcu/platforms/espressif/esp8266_sdk/2.2.1/ESP8266_NONOS_SDK_2.2.1/lib/libmain.a(eagle_lwip_if.o)
                                         0x71 (size before relaxing)
 *fill*         0x0000000040101cf5        0x3 
 .text.user_rf_pre_init
                0x0000000040101cf8       0x24 /home/wall/projects/templates/Makefile/Makefile_generic/esp/esp8266/build/user/blinky/blinky.a(rf_init.o)
 .text.user_rf_cal_sector_set
                0x0000000040101d1c       0x2b /home/wall/projects/templates/Makefile/Makefile_generic/esp/esp8266/build/user/blinky/blinky.a(rf_init.o)
                0x0000000040101d24                user_rf_cal_sector_set
 *fill*         0x0000000040101d47        0x1 
 .text.led_service_cb
                0x0000000040101d48       0x3c /home/wall/projects/templates/Makefile/Makefile_generic/esp/esp8266/build/user/blinky/blinky.a(main.o)
                                         0x47 (size before relaxing)
                0x0000000040101d50                led_service_cb
 *fill*         0x0000000040101d84        0x0 
 .text.app_init
                0x0000000040101d84       0xa7 /home/wall/projects/templates/Makefile/Makefile_generic/esp/esp8266/build/user/blinky/blinky.a(main.o)
                                         0xbb (size before relaxing)
                0x0000000040101da8                app_init
 *fill*         0x0000000040101e2b        0x1 
 .text.user_init
                0x0000000040101e2c       0x1d /home/wall/projects/templates/Makefile/Makefile_generic/esp/esp8266/build/user/blinky/blinky.a(main.o)
                0x0000000040101e34                user_init
 *fill*         0x0000000040101e49        0x3 
 .text          0x0000000040101e4c     0x161e /home/wall/projects/IoT/mcu/platforms/espressif/esp8266_sdk/2.2.1/ESP8266_NONOS_SDK_2.2.1/lib/libpp.a(lmac.o)
                                       0x1982 (size before relaxing)
                0x0000000040101e50                lmacIsActive
                0x0000000040101e64                lmacIsIdle
                0x00000000401022e0                lmacSetAcParam
                0x0000000040102334                lmacProcessTXStartData
                0x00000000401024e0                lmacProcessTxSuccess
                0x0000000040102624                GetAccess
                0x0000000040102630                lmacDiscardAgedMSDU
                0x0000000040102644                lmacRecycleMPDU
                0x0000000040102c10                lmacProcessTxTimeout
                0x0000000040102c78                lmacProcessAllTxTimeout
                0x0000000040102c8c                lmacProcessCollisions
                0x0000000040102cec                lmacProcessCollision
                0x0000000040102d5c                lmacMSDUAged
                0x00000000401030ec                lmacProcessCtsTimeout
                0x0000000040103124                lmacProcessAckTimeout
                0x000000004010317c                lmacProcessRtsStart
                0x0000000040103188                lmacProcessTxRtsError
                0x0000000040103228                lmacProcessTxError
                0x00000000401032b8                lmacTxFrame
                0x0000000040103454                lmacRxDone
 *fill*         0x000000004010346a        0x2 
 .text          0x000000004010346c      0x8e1 /home/wall/projects/IoT/mcu/platforms/espressif/esp8266_sdk/2.2.1/ESP8266_NONOS_SDK_2.2.1/lib/libpp.a(pp.o)
                                        0x9fd (size before relaxing)
                0x00000000401034a0                pp_soft_wdt_feed_local
                0x0000000040103534                ppProcessTxQ
                0x00000000401035a8                ppFetchTxQFirstAvail
                0x00000000401035e8                ppDequeueTxQ
                0x0000000040103610                ppRollBackTxQ
                0x0000000040103634                ppRecordBarRRC
                0x0000000040103644                ppTxqUpdateBitmap
                0x000000004010366c                ppEnqueueTxDone
                0x00000000401036a0                ppEnqueueRxq
                0x0000000040103b88                ppDiscardMPDU
                0x0000000040103bac                pp_post
                0x0000000040103c38                pp_post2
                0x0000000040103c60                ppCalTxop
                0x0000000040103ce0                ppCalFrameTimes
 *fill*         0x0000000040103d4d        0x3 
 .text          0x0000000040103d50       0xf5 /home/wall/projects/IoT/mcu/platforms/espressif/esp8266_sdk/2.2.1/ESP8266_NONOS_SDK_2.2.1/lib/libpp.a(rate_control.o)
                                        0x109 (size before relaxing)
                0x0000000040103d70                RC_GetAckRate
                0x0000000040103d7c                RC_GetRtsRate
                0x0000000040103d8c                RC_GetAckTime
                0x0000000040103da0                RC_GetCtsTime
                0x0000000040103dd8                RC_GetBlockAckTime
 *fill*         0x0000000040103e45        0x3 
 .text          0x0000000040103e48      0x9a5 /home/wall/projects/IoT/mcu/platforms/espressif/esp8266_sdk/2.2.1/ESP8266_NONOS_SDK_2.2.1/lib/libpp.a(trc.o)
                                        0xa09 (size before relaxing)
                0x000000004010401c                rcUpdateTxDone
                0x00000000401040b0                rcUpdateRxDone
                0x000000004010410c                rcUpdateDataRxDone
                0x0000000040104128                rcGetSched
                0x0000000040104210                rcGetRate
                0x0000000040104720                rcReachRetryLimit
                0x0000000040104738                trc_NeedRTS
 *fill*         0x00000000401047ed        0x3 
 .text          0x00000000401047f0     0x1164 /home/wall/projects/IoT/mcu/platforms/espressif/esp8266_sdk/2.2.1/ESP8266_NONOS_SDK_2.2.1/lib/libpp.a(wdev.o)
                                       0x1460 (size before relaxing)
                0x0000000040104be4                wDev_MacTim1SetFunc
                0x0000000040104c04                wDev_MacTim1Arm
                0x0000000040104c98                wDev_ProcessFiq
                0x0000000040104fdc                wDev_EnableTransmit
                0x0000000040105014                wDev_DisableTransmit
                0x0000000040105034                Tx_Copy2Queue
                0x0000000040105078                wDev_ProcessCollision
                0x000000004010509c                wDev_GetTxqCollisions
                0x00000000401050ac                wDev_ClearTxqCollisions
                0x00000000401050c8                wDev_SetWaitingQueue
                0x0000000040105110                wDev_ClearWaitingQueue
                0x0000000040105134                wDev_SetFrameAckType
                0x0000000040105194                wDev_AppendRxBlocks
                0x00000000401052d8                wDev_AppendRxAmpduLensBlocks
                0x00000000401053b4                wDev_Get_KeyEntry
                0x0000000040105424                wDev_GetBAInfo
                0x0000000040105458                wDevDisableRx
 .text          0x0000000040105954       0x4c /home/wall/projects/IoT/mcu/platforms/espressif/esp8266_sdk/2.2.1/ESP8266_NONOS_SDK_2.2.1/lib/libpp.a(esf_buf.o)
                                         0x5c (size before relaxing)
                0x0000000040105958                esf_rx_buf_alloc
 .text          0x00000000401059a0       0x53 /home/wall/projects/IoT/mcu/platforms/espressif/esp8266_sdk/2.2.1/ESP8266_NONOS_SDK_2.2.1/lib/libphy.a(phy.o)
                                         0x5f (size before relaxing)
                0x00000000401059a8                register_phy_ops
                0x00000000401059c8                register_get_phy_addr
                0x00000000401059d0                phy_change_channel
                0x00000000401059e8                phy_get_mactime
 *fill*         0x00000000401059f3        0x1 
 .text          0x00000000401059f4      0x26a /home/wall/projects/IoT/mcu/platforms/espressif/esp8266_sdk/2.2.1/ESP8266_NONOS_SDK_2.2.1/lib/libphy.a(phy_chip_v6_ana.o)
                                        0x27a (size before relaxing)
                0x0000000040105a18                phy_adc_read_fast
 *fill*         0x0000000040105c5e        0x2 
 .text          0x0000000040105c60       0xb1 /home/wall/projects/IoT/mcu/platforms/espressif/esp8266_sdk/2.2.1/ESP8266_NONOS_SDK_2.2.1/lib/libphy.a(phy_chip_v6.o)
                                         0xbd (size before relaxing)
                0x0000000040105c6c                set_cca
                0x0000000040105cd4                phy_debug_print
 *fill*         0x0000000040105d11        0x3 
 .text          0x0000000040105d14      0x263 /home/wall/projects/IoT/mcu/platforms/espressif/esp8266_sdk/2.2.1/ESP8266_NONOS_SDK_2.2.1/lib/libphy.a(phy_chip_v6_cal.o)
                                        0x283 (size before relaxing)
                0x0000000040105d20                tx_pwr_backoff_old
                0x0000000040105e74                unsign_to_sign
                0x0000000040105ea8                phy_get_bb_freqoffset
                0x0000000040105f18                phy_get_bb_evm
 *fill*         0x0000000040105f77        0x1 
 .text          0x0000000040105f78      0x24b /home/wall/projects/IoT/mcu/platforms/espressif/esp8266_sdk/2.2.1/ESP8266_NONOS_SDK_2.2.1/lib/libphy.a(phy_sleep.o)
                                        0x287 (size before relaxing)
                0x0000000040105f78                pm_rtc_clock_cali
                0x0000000040106048                pm_goto_sleep
                0x0000000040106198                clockgate_watchdog
 *fill*         0x00000000401061c3        0x1 
 .text          0x00000000401061c4        0xc /home/wall/projects/IoT/mcu/platforms/espressif/esp8266_sdk/2.2.1/ESP8266_NONOS_SDK_2.2.1/lib/libnet80211.a(wl_chm.o)
                0x00000000401061c8                chm_get_current_channel
 .literal       0x00000000401061d0        0x4 /home/wall/projects/IoT/mcu/platforms/espressif/esp8266_sdk/2.2.1/ESP8266_NONOS_SDK_2.2.1/lib/libc.a(lib_a-isxdigit.o)
 .literal       0x00000000401061d4        0x4 /home/wall/projects/IoT/mcu/platforms/espressif/esp8266_sdk/2.2.1/ESP8266_NONOS_SDK_2.2.1/lib/libgcc.a(_divsf3.o)
                                         0x10 (size before relaxing)
 .literal       0x00000000401061d8        0x0 /home/wall/projects/IoT/mcu/platforms/espressif/esp8266_sdk/2.2.1/ESP8266_NONOS_SDK_2.2.1/lib/libgcc.a(_fixsfsi.o)
                                          0x4 (size before relaxing)
 .text          0x00000000401061d8       0x11 /home/wall/projects/IoT/mcu/platforms/espressif/esp8266_sdk/2.2.1/ESP8266_NONOS_SDK_2.2.1/lib/libc.a(lib_a-isxdigit.o)
                0x00000000401061d8                isxdigit
 *fill*         0x00000000401061e9        0x3 
 .text          0x00000000401061ec      0x135 /home/wall/projects/IoT/mcu/platforms/espressif/esp8266_sdk/2.2.1/ESP8266_NONOS_SDK_2.2.1/lib/libgcc.a(_divsf3.o)
                0x0000000040106268                __divsf3
 *fill*         0x0000000040106321        0x3 
 .text          0x0000000040106324       0x40 /home/wall/projects/IoT/mcu/platforms/espressif/esp8266_sdk/2.2.1/ESP8266_NONOS_SDK_2.2.1/lib/libgcc.a(_fixsfsi.o)
                0x0000000040106324                __fixsfsi
 .text          0x0000000040106364        0x0 /home/wall/projects/IoT/mcu/platforms/espressif/esp8266_sdk/2.2.1/ESP8266_NONOS_SDK_2.2.1/lib/libmain.a(debug-vector.o)
 .text          0x0000000040106364        0x0 /home/wall/projects/IoT/mcu/platforms/espressif/esp8266_sdk/2.2.1/ESP8266_NONOS_SDK_2.2.1/lib/libmain.a(double-vector.o)
 .text          0x0000000040106364        0x0 /home/wall/projects/IoT/mcu/platforms/espressif/esp8266_sdk/2.2.1/ESP8266_NONOS_SDK_2.2.1/lib/libmain.a(kernel-vector.o)
 .literal       0x0000000040106364        0x0 /home/wall/projects/IoT/mcu/platforms/espressif/esp8266_sdk/2.2.1/ESP8266_NONOS_SDK_2.2.1/lib/libmain.a(nmi-vector.o)
 *fill*         0x0000000040106364        0x0 
 .literal       0x0000000040106364        0x0 /home/wall/projects/IoT/mcu/platforms/espressif/esp8266_sdk/2.2.1/ESP8266_NONOS_SDK_2.2.1/lib/libmain.a(user-vector.o)
 .text          0x0000000040106364        0x0 /home/wall/projects/IoT/mcu/platforms/espressif/esp8266_sdk/2.2.1/ESP8266_NONOS_SDK_2.2.1/lib/libmain.a(vector.o)
 *fill*         0x0000000040106364        0x0 
 .literal       0x0000000040106364        0x0 /home/wall/projects/IoT/mcu/platforms/espressif/esp8266_sdk/2.2.1/ESP8266_NONOS_SDK_2.2.1/lib/libmain.a(app_main.o)
 *fill*         0x0000000040106364        0x0 
 .literal       0x0000000040106364        0x0 /home/wall/projects/IoT/mcu/platforms/espressif/esp8266_sdk/2.2.1/ESP8266_NONOS_SDK_2.2.1/lib/libmain.a(ets_timer.o)
 .literal       0x0000000040106364        0x0 /home/wall/projects/IoT/mcu/platforms/espressif/esp8266_sdk/2.2.1/ESP8266_NONOS_SDK_2.2.1/lib/libmain.a(mem_manager.o)
 *fill*         0x0000000040106364        0x0 
 .literal       0x0000000040106364        0x0 /home/wall/projects/IoT/mcu/platforms/espressif/esp8266_sdk/2.2.1/ESP8266_NONOS_SDK_2.2.1/lib/libmain.a(user_interface.o)
 *fill*         0x0000000040106364        0x0 
 .literal.Cache_Read_Disable_2
                0x0000000040106364        0x0 /home/wall/projects/IoT/mcu/platforms/espressif/esp8266_sdk/2.2.1/ESP8266_NONOS_SDK_2.2.1/lib/libmain.a(spi_flash.o)
 .literal.Cache_Read_Enable_2
                0x0000000040106364        0x0 /home/wall/projects/IoT/mcu/platforms/espressif/esp8266_sdk/2.2.1/ESP8266_NONOS_SDK_2.2.1/lib/libmain.a(spi_flash.o)
 .literal.spi_flash_get_unique_id
                0x0000000040106364        0x0 /home/wall/projects/IoT/mcu/platforms/espressif/esp8266_sdk/2.2.1/ESP8266_NONOS_SDK_2.2.1/lib/libmain.a(spi_flash.o)
 .literal.spi_flash_get_id
                0x0000000040106364        0x0 /home/wall/projects/IoT/mcu/platforms/espressif/esp8266_sdk/2.2.1/ESP8266_NONOS_SDK_2.2.1/lib/libmain.a(spi_flash.o)
 .literal.spi_flash_read_status
                0x0000000040106364        0x0 /home/wall/projects/IoT/mcu/platforms/espressif/esp8266_sdk/2.2.1/ESP8266_NONOS_SDK_2.2.1/lib/libmain.a(spi_flash.o)
 .literal.spi_flash_write_status
                0x0000000040106364        0x0 /home/wall/projects/IoT/mcu/platforms/espressif/esp8266_sdk/2.2.1/ESP8266_NONOS_SDK_2.2.1/lib/libmain.a(spi_flash.o)
 .literal.flash_gd25q32c_read_status
                0x0000000040106364        0x0 /home/wall/projects/IoT/mcu/platforms/espressif/esp8266_sdk/2.2.1/ESP8266_NONOS_SDK_2.2.1/lib/libmain.a(spi_flash.o)
 .literal.flash_gd25q32c_write_status
                0x0000000040106364        0x0 /home/wall/projects/IoT/mcu/platforms/espressif/esp8266_sdk/2.2.1/ESP8266_NONOS_SDK_2.2.1/lib/libmain.a(spi_flash.o)
 .literal.spi_flash_check_wr_protect
                0x0000000040106364        0x0 /home/wall/projects/IoT/mcu/platforms/espressif/esp8266_sdk/2.2.1/ESP8266_NONOS_SDK_2.2.1/lib/libmain.a(spi_flash.o)
 .literal.spi_flash_erase_sector
                0x0000000040106364        0x0 /home/wall/projects/IoT/mcu/platforms/espressif/esp8266_sdk/2.2.1/ESP8266_NONOS_SDK_2.2.1/lib/libmain.a(spi_flash.o)
 .literal.spi_flash_enable_qmode
                0x0000000040106364        0x0 /home/wall/projects/IoT/mcu/platforms/espressif/esp8266_sdk/2.2.1/ESP8266_NONOS_SDK_2.2.1/lib/libmain.a(spi_flash.o)
 .literal.spi_flash_write
                0x0000000040106364        0x0 /home/wall/projects/IoT/mcu/platforms/espressif/esp8266_sdk/2.2.1/ESP8266_NONOS_SDK_2.2.1/lib/libmain.a(spi_flash.o)
 .literal.spi_flash_read
                0x0000000040106364        0x0 /home/wall/projects/IoT/mcu/platforms/espressif/esp8266_sdk/2.2.1/ESP8266_NONOS_SDK_2.2.1/lib/libmain.a(spi_flash.o)
 .literal.spi_flash_issi_enable_QIO_mode
                0x0000000040106364        0x0 /home/wall/projects/IoT/mcu/platforms/espressif/esp8266_sdk/2.2.1/ESP8266_NONOS_SDK_2.2.1/lib/libmain.a(spi_flash.o)
 .literal.flash_gd25q32c_enable_QIO_mode
                0x0000000040106364        0x0 /home/wall/projects/IoT/mcu/platforms/espressif/esp8266_sdk/2.2.1/ESP8266_NONOS_SDK_2.2.1/lib/libmain.a(spi_flash.o)
 .literal.user_spi_flash_dio_to_qio_pre_init
                0x0000000040106364        0x0 /home/wall/projects/IoT/mcu/platforms/espressif/esp8266_sdk/2.2.1/ESP8266_NONOS_SDK_2.2.1/lib/libmain.a(spi_flash.o)
 .text          0x0000000040106364        0x0 /home/wall/projects/IoT/mcu/platforms/espressif/esp8266_sdk/2.2.1/ESP8266_NONOS_SDK_2.2.1/lib/libmain.a(spi_flash.o)
 *fill*         0x0000000040106364        0x0 
 *fill*         0x0000000040106364        0x0 
 *fill*         0x0000000040106364        0x0 
 *fill*         0x0000000040106364        0x0 
 *fill*         0x0000000040106364        0x0 
 *fill*         0x0000000040106364        0x0 
 *fill*         0x0000000040106364        0x0 
 *fill*         0x0000000040106364        0x0 
 *fill*         0x0000000040106364        0x0 
 *fill*         0x0000000040106364        0x0 
 *fill*         0x0000000040106364        0x0 
 .text          0x0000000040106364        0x0 /home/wall/projects/IoT/mcu/platforms/espressif/esp8266_sdk/2.2.1/ESP8266_NONOS_SDK_2.2.1/lib/libmain.a(eagle_lib.o)
 *fill*         0x0000000040106364        0x0 
 .literal       0x0000000040106364        0x0 /home/wall/projects/IoT/mcu/platforms/espressif/esp8266_sdk/2.2.1/ESP8266_NONOS_SDK_2.2.1/lib/libmain.a(eagle_lwip_if.o)
 *fill*         0x0000000040106364        0x0 
 .literal.user_rf_pre_init
                0x0000000040106364        0x0 /home/wall/projects/templates/Makefile/Makefile_generic/esp/esp8266/build/user/blinky/blinky.a(rf_init.o)
 .literal.user_rf_cal_sector_set
                0x0000000040106364        0x0 /home/wall/projects/templates/Makefile/Makefile_generic/esp/esp8266/build/user/blinky/blinky.a(rf_init.o)
 .text          0x0000000040106364        0x0 /home/wall/projects/templates/Makefile/Makefile_generic/esp/esp8266/build/user/blinky/blinky.a(rf_init.o)
 *fill*         0x0000000040106364        0x0 
 .literal.led_service_cb
                0x0000000040106364        0x0 /home/wall/projects/templates/Makefile/Makefile_generic/esp/esp8266/build/user/blinky/blinky.a(main.o)
 .literal.app_init
                0x0000000040106364        0x0 /home/wall/projects/templates/Makefile/Makefile_generic/esp/esp8266/build/user/blinky/blinky.a(main.o)
 .literal.user_init
                0x0000000040106364        0x0 /home/wall/projects/templates/Makefile/Makefile_generic/esp/esp8266/build/user/blinky/blinky.a(main.o)
 .text          0x0000000040106364        0x0 /home/wall/projects/templates/Makefile/Makefile_generic/esp/esp8266/build/user/blinky/blinky.a(main.o)
 *fill*         0x0000000040106364        0x0 
 *fill*         0x0000000040106364        0x0 
 *fill*         0x0000000040106364        0x0 
 .text          0x0000000040106364        0x5 /home/wall/projects/IoT/mcu/platforms/espressif/esp8266_sdk/2.2.1/xtensa-lx106-elf/bin/../xtensa-lx106-elf/sysroot/usr/lib/libhal.a(int_asm--set_intclear.o)
                0x0000000040106364                xthal_set_intclear
 .text          0x0000000040106369        0x0 /home/wall/projects/IoT/mcu/platforms/espressif/esp8266_sdk/2.2.1/ESP8266_NONOS_SDK_2.2.1/lib/libpp.a(if_hwctrl.o)
 *fill*         0x0000000040106369        0x3 
 .literal       0x000000004010636c        0x0 /home/wall/projects/IoT/mcu/platforms/espressif/esp8266_sdk/2.2.1/ESP8266_NONOS_SDK_2.2.1/lib/libpp.a(lmac.o)
 .text          0x000000004010636c        0x0 /home/wall/projects/IoT/mcu/platforms/espressif/esp8266_sdk/2.2.1/ESP8266_NONOS_SDK_2.2.1/lib/libpp.a(pm.o)
 .text          0x000000004010636c        0x0 /home/wall/projects/IoT/mcu/platforms/espressif/esp8266_sdk/2.2.1/ESP8266_NONOS_SDK_2.2.1/lib/libpp.a(pm_for_bcn_only_mode.o)
 *fill*         0x000000004010636c        0x0 
 .literal       0x000000004010636c        0x0 /home/wall/projects/IoT/mcu/platforms/espressif/esp8266_sdk/2.2.1/ESP8266_NONOS_SDK_2.2.1/lib/libpp.a(pp.o)
 *fill*         0x000000004010636c        0x0 
 .literal       0x000000004010636c        0x0 /home/wall/projects/IoT/mcu/platforms/espressif/esp8266_sdk/2.2.1/ESP8266_NONOS_SDK_2.2.1/lib/libpp.a(rate_control.o)
 *fill*         0x000000004010636c        0x0 
 .literal       0x000000004010636c        0x0 /home/wall/projects/IoT/mcu/platforms/espressif/esp8266_sdk/2.2.1/ESP8266_NONOS_SDK_2.2.1/lib/libpp.a(trc.o)
 *fill*         0x000000004010636c        0x0 
 .literal       0x000000004010636c        0x0 /home/wall/projects/IoT/mcu/platforms/espressif/esp8266_sdk/2.2.1/ESP8266_NONOS_SDK_2.2.1/lib/libpp.a(wdev.o)
 .literal       0x000000004010636c        0x0 /home/wall/projects/IoT/mcu/platforms/espressif/esp8266_sdk/2.2.1/ESP8266_NONOS_SDK_2.2.1/lib/libpp.a(esf_buf.o)
 .literal       0x000000004010636c        0x0 /home/wall/projects/IoT/mcu/platforms/espressif/esp8266_sdk/2.2.1/ESP8266_NONOS_SDK_2.2.1/lib/libphy.a(phy.o)
 *fill*         0x000000004010636c        0x0 
 .literal       0x000000004010636c        0x0 /home/wall/projects/IoT/mcu/platforms/espressif/esp8266_sdk/2.2.1/ESP8266_NONOS_SDK_2.2.1/lib/libphy.a(phy_chip_v6_ana.o)
 *fill*         0x000000004010636c        0x0 
 .literal       0x000000004010636c        0x0 /home/wall/projects/IoT/mcu/platforms/espressif/esp8266_sdk/2.2.1/ESP8266_NONOS_SDK_2.2.1/lib/libphy.a(phy_chip_v6.o)
 *fill*         0x000000004010636c        0x0 
 .literal       0x000000004010636c        0x0 /home/wall/projects/IoT/mcu/platforms/espressif/esp8266_sdk/2.2.1/ESP8266_NONOS_SDK_2.2.1/lib/libphy.a(phy_chip_v6_cal.o)
 .text          0x000000004010636c        0x0 /home/wall/projects/IoT/mcu/platforms/espressif/esp8266_sdk/2.2.1/ESP8266_NONOS_SDK_2.2.1/lib/libphy.a(phy_chip_v6_unused.o)
 *fill*         0x000000004010636c        0x0 
 .literal       0x000000004010636c        0x0 /home/wall/projects/IoT/mcu/platforms/espressif/esp8266_sdk/2.2.1/ESP8266_NONOS_SDK_2.2.1/lib/libphy.a(phy_sleep.o)
 .text          0x000000004010636c        0x0 /home/wall/projects/IoT/mcu/platforms/espressif/esp8266_sdk/2.2.1/ESP8266_NONOS_SDK_2.2.1/lib/libnet80211.a(ieee80211.o)
 .text          0x000000004010636c        0x0 /home/wall/projects/IoT/mcu/platforms/espressif/esp8266_sdk/2.2.1/ESP8266_NONOS_SDK_2.2.1/lib/libnet80211.a(ieee80211_crypto.o)
 .text          0x000000004010636c        0x0 /home/wall/projects/IoT/mcu/platforms/espressif/esp8266_sdk/2.2.1/ESP8266_NONOS_SDK_2.2.1/lib/libnet80211.a(ieee80211_ets.o)
 .text          0x000000004010636c        0x0 /home/wall/projects/IoT/mcu/platforms/espressif/esp8266_sdk/2.2.1/ESP8266_NONOS_SDK_2.2.1/lib/libnet80211.a(ieee80211_hostap.o)
 .text          0x000000004010636c        0x0 /home/wall/projects/IoT/mcu/platforms/espressif/esp8266_sdk/2.2.1/ESP8266_NONOS_SDK_2.2.1/lib/libnet80211.a(ieee80211_ht.o)
 .text          0x000000004010636c        0x0 /home/wall/projects/IoT/mcu/platforms/espressif/esp8266_sdk/2.2.1/ESP8266_NONOS_SDK_2.2.1/lib/libnet80211.a(ieee80211_input.o)
 .text          0x000000004010636c        0x0 /home/wall/projects/IoT/mcu/platforms/espressif/esp8266_sdk/2.2.1/ESP8266_NONOS_SDK_2.2.1/lib/libnet80211.a(ieee80211_mesh_quick.o)
 .text          0x000000004010636c        0x0 /home/wall/projects/IoT/mcu/platforms/espressif/esp8266_sdk/2.2.1/ESP8266_NONOS_SDK_2.2.1/lib/libnet80211.a(ieee80211_output.o)
 .text          0x000000004010636c        0x0 /home/wall/projects/IoT/mcu/platforms/espressif/esp8266_sdk/2.2.1/ESP8266_NONOS_SDK_2.2.1/lib/libnet80211.a(ieee80211_phy.o)
 .text          0x000000004010636c        0x0 /home/wall/projects/IoT/mcu/platforms/espressif/esp8266_sdk/2.2.1/ESP8266_NONOS_SDK_2.2.1/lib/libnet80211.a(ieee80211_power.o)
 .text          0x000000004010636c        0x0 /home/wall/projects/IoT/mcu/platforms/espressif/esp8266_sdk/2.2.1/ESP8266_NONOS_SDK_2.2.1/lib/libnet80211.a(ieee80211_proto.o)
 .text          0x000000004010636c        0x0 /home/wall/projects/IoT/mcu/platforms/espressif/esp8266_sdk/2.2.1/ESP8266_NONOS_SDK_2.2.1/lib/libnet80211.a(ieee80211_regdomain.o)
 .text          0x000000004010636c        0x0 /home/wall/projects/IoT/mcu/platforms/espressif/esp8266_sdk/2.2.1/ESP8266_NONOS_SDK_2.2.1/lib/libnet80211.a(ieee80211_rfid.o)
 .text          0x000000004010636c        0x0 /home/wall/projects/IoT/mcu/platforms/espressif/esp8266_sdk/2.2.1/ESP8266_NONOS_SDK_2.2.1/lib/libnet80211.a(ieee80211_scan.o)
 .text          0x000000004010636c        0x0 /home/wall/projects/IoT/mcu/platforms/espressif/esp8266_sdk/2.2.1/ESP8266_NONOS_SDK_2.2.1/lib/libnet80211.a(ieee80211_sta.o)
 *fill*         0x000000004010636c        0x0 
 .literal       0x000000004010636c        0x0 /home/wall/projects/IoT/mcu/platforms/espressif/esp8266_sdk/2.2.1/ESP8266_NONOS_SDK_2.2.1/lib/libnet80211.a(wl_chm.o)
 .text          0x000000004010636c        0x0 /home/wall/projects/IoT/mcu/platforms/espressif/esp8266_sdk/2.2.1/ESP8266_NONOS_SDK_2.2.1/lib/libnet80211.a(wl_cnx.o)
 .text          0x000000004010636c        0x0 /home/wall/projects/IoT/mcu/platforms/espressif/esp8266_sdk/2.2.1/ESP8266_NONOS_SDK_2.2.1/lib/libnet80211.a(ieee80211_action.o)
 .text          0x000000004010636c        0x0 /home/wall/projects/IoT/mcu/platforms/espressif/esp8266_sdk/2.2.1/ESP8266_NONOS_SDK_2.2.1/lib/libnet80211.a(ieee80211_action_vendor.o)
 .text          0x000000004010636c        0x0 /home/wall/projects/IoT/mcu/platforms/espressif/esp8266_sdk/2.2.1/ESP8266_NONOS_SDK_2.2.1/lib/libnet80211.a(ieee80211_crypto_ccmp.o)
 .text          0x000000004010636c        0x0 /home/wall/projects/IoT/mcu/platforms/espressif/esp8266_sdk/2.2.1/ESP8266_NONOS_SDK_2.2.1/lib/libnet80211.a(ieee80211_ie_vendor.o)
 .text          0x000000004010636c        0x0 /home/wall/projects/IoT/mcu/platforms/espressif/esp8266_sdk/2.2.1/ESP8266_NONOS_SDK_2.2.1/lib/liblwip.a(dhcp.o)
 .text          0x000000004010636c        0x0 /home/wall/projects/IoT/mcu/platforms/espressif/esp8266_sdk/2.2.1/ESP8266_NONOS_SDK_2.2.1/lib/liblwip.a(dhcpserver.o)
 .text          0x000000004010636c        0x0 /home/wall/projects/IoT/mcu/platforms/espressif/esp8266_sdk/2.2.1/ESP8266_NONOS_SDK_2.2.1/lib/liblwip.a(dns.o)
 .text          0x000000004010636c        0x0 /home/wall/projects/IoT/mcu/platforms/espressif/esp8266_sdk/2.2.1/ESP8266_NONOS_SDK_2.2.1/lib/liblwip.a(espconn_tcp.o)
 .text          0x000000004010636c        0x0 /home/wall/projects/IoT/mcu/platforms/espressif/esp8266_sdk/2.2.1/ESP8266_NONOS_SDK_2.2.1/lib/liblwip.a(etharp.o)
 .text          0x000000004010636c        0x0 /home/wall/projects/IoT/mcu/platforms/espressif/esp8266_sdk/2.2.1/ESP8266_NONOS_SDK_2.2.1/lib/liblwip.a(init.o)
 .text          0x000000004010636c        0x0 /home/wall/projects/IoT/mcu/platforms/espressif/esp8266_sdk/2.2.1/ESP8266_NONOS_SDK_2.2.1/lib/liblwip.a(ip.o)
 .text          0x000000004010636c        0x0 /home/wall/projects/IoT/mcu/platforms/espressif/esp8266_sdk/2.2.1/ESP8266_NONOS_SDK_2.2.1/lib/liblwip.a(ip_addr.o)
 .text          0x000000004010636c        0x0 /home/wall/projects/IoT/mcu/platforms/espressif/esp8266_sdk/2.2.1/ESP8266_NONOS_SDK_2.2.1/lib/liblwip.a(memp.o)
 .text          0x000000004010636c        0x0 /home/wall/projects/IoT/mcu/platforms/espressif/esp8266_sdk/2.2.1/ESP8266_NONOS_SDK_2.2.1/lib/liblwip.a(netif.o)
 .text          0x000000004010636c        0x0 /home/wall/projects/IoT/mcu/platforms/espressif/esp8266_sdk/2.2.1/ESP8266_NONOS_SDK_2.2.1/lib/liblwip.a(pbuf.o)
 .text          0x000000004010636c        0x0 /home/wall/projects/IoT/mcu/platforms/espressif/esp8266_sdk/2.2.1/ESP8266_NONOS_SDK_2.2.1/lib/liblwip.a(raw.o)
 .text          0x000000004010636c        0x0 /home/wall/projects/IoT/mcu/platforms/espressif/esp8266_sdk/2.2.1/ESP8266_NONOS_SDK_2.2.1/lib/liblwip.a(tcp.o)
 .text          0x000000004010636c        0x0 /home/wall/projects/IoT/mcu/platforms/espressif/esp8266_sdk/2.2.1/ESP8266_NONOS_SDK_2.2.1/lib/liblwip.a(tcp_in.o)
 .text          0x000000004010636c        0x0 /home/wall/projects/IoT/mcu/platforms/espressif/esp8266_sdk/2.2.1/ESP8266_NONOS_SDK_2.2.1/lib/liblwip.a(tcp_out.o)
 .text          0x000000004010636c        0x0 /home/wall/projects/IoT/mcu/platforms/espressif/esp8266_sdk/2.2.1/ESP8266_NONOS_SDK_2.2.1/lib/liblwip.a(timers.o)
 .text          0x000000004010636c        0x0 /home/wall/projects/IoT/mcu/platforms/espressif/esp8266_sdk/2.2.1/ESP8266_NONOS_SDK_2.2.1/lib/liblwip.a(udp.o)
 .text          0x000000004010636c        0x0 /home/wall/projects/IoT/mcu/platforms/espressif/esp8266_sdk/2.2.1/ESP8266_NONOS_SDK_2.2.1/lib/liblwip.a(espconn.o)
 .text          0x000000004010636c        0x0 /home/wall/projects/IoT/mcu/platforms/espressif/esp8266_sdk/2.2.1/ESP8266_NONOS_SDK_2.2.1/lib/liblwip.a(espconn_buf.o)
 .text          0x000000004010636c        0x0 /home/wall/projects/IoT/mcu/platforms/espressif/esp8266_sdk/2.2.1/ESP8266_NONOS_SDK_2.2.1/lib/liblwip.a(espconn_udp.o)
 .text          0x000000004010636c        0x0 /home/wall/projects/IoT/mcu/platforms/espressif/esp8266_sdk/2.2.1/ESP8266_NONOS_SDK_2.2.1/lib/liblwip.a(icmp.o)
 .text          0x000000004010636c        0x0 /home/wall/projects/IoT/mcu/platforms/espressif/esp8266_sdk/2.2.1/ESP8266_NONOS_SDK_2.2.1/lib/liblwip.a(igmp.o)
 .text          0x000000004010636c        0x0 /home/wall/projects/IoT/mcu/platforms/espressif/esp8266_sdk/2.2.1/ESP8266_NONOS_SDK_2.2.1/lib/liblwip.a(inet_chksum.o)
 .text          0x000000004010636c        0x0 /home/wall/projects/IoT/mcu/platforms/espressif/esp8266_sdk/2.2.1/ESP8266_NONOS_SDK_2.2.1/lib/libwpa.a(ap_config.o)
 .text          0x000000004010636c        0x0 /home/wall/projects/IoT/mcu/platforms/espressif/esp8266_sdk/2.2.1/ESP8266_NONOS_SDK_2.2.1/lib/libwpa.a(common.o)
 .text          0x000000004010636c        0x0 /home/wall/projects/IoT/mcu/platforms/espressif/esp8266_sdk/2.2.1/ESP8266_NONOS_SDK_2.2.1/lib/libwpa.a(os_xtensa.o)
 .text          0x000000004010636c        0x0 /home/wall/projects/IoT/mcu/platforms/espressif/esp8266_sdk/2.2.1/ESP8266_NONOS_SDK_2.2.1/lib/libwpa.a(wpa_auth.o)
 .text          0x000000004010636c        0x0 /home/wall/projects/IoT/mcu/platforms/espressif/esp8266_sdk/2.2.1/ESP8266_NONOS_SDK_2.2.1/lib/libwpa.a(wpa_auth_ie.o)
 .text          0x000000004010636c        0x0 /home/wall/projects/IoT/mcu/platforms/espressif/esp8266_sdk/2.2.1/ESP8266_NONOS_SDK_2.2.1/lib/libwpa.a(wpa.o)
 .text          0x000000004010636c        0x0 /home/wall/projects/IoT/mcu/platforms/espressif/esp8266_sdk/2.2.1/ESP8266_NONOS_SDK_2.2.1/lib/libwpa.a(wpa_common.o)
 .text          0x000000004010636c        0x0 /home/wall/projects/IoT/mcu/platforms/espressif/esp8266_sdk/2.2.1/ESP8266_NONOS_SDK_2.2.1/lib/libwpa.a(wpa_debug.o)
 .text          0x000000004010636c        0x0 /home/wall/projects/IoT/mcu/platforms/espressif/esp8266_sdk/2.2.1/ESP8266_NONOS_SDK_2.2.1/lib/libwpa.a(wpa_ie.o)
 .text          0x000000004010636c        0x0 /home/wall/projects/IoT/mcu/platforms/espressif/esp8266_sdk/2.2.1/ESP8266_NONOS_SDK_2.2.1/lib/libwpa.a(wpa_main.o)
 .text          0x000000004010636c        0x0 /home/wall/projects/IoT/mcu/platforms/espressif/esp8266_sdk/2.2.1/ESP8266_NONOS_SDK_2.2.1/lib/libwpa.a(wpas_glue.o)
 .text          0x000000004010636c        0x0 /home/wall/projects/IoT/mcu/platforms/espressif/esp8266_sdk/2.2.1/ESP8266_NONOS_SDK_2.2.1/lib/libcrypto.a(aes-wrap.o)
 .text          0x000000004010636c        0x0 /home/wall/projects/IoT/mcu/platforms/espressif/esp8266_sdk/2.2.1/ESP8266_NONOS_SDK_2.2.1/lib/libcrypto.a(aes-internal-enc.o)
 .text          0x000000004010636c        0x0 /home/wall/projects/IoT/mcu/platforms/espressif/esp8266_sdk/2.2.1/ESP8266_NONOS_SDK_2.2.1/lib/libcrypto.a(aes-internal.o)
 *fill*         0x000000004010636c        0x0 
 .text          0x000000004010636c       0x17 /home/wall/projects/IoT/mcu/platforms/espressif/esp8266_sdk/2.2.1/ESP8266_NONOS_SDK_2.2.1/lib/libc.a(lib_a-memchr.o)
                0x000000004010636c                memchr
 .text          0x0000000040106383        0x0 /home/wall/projects/IoT/mcu/platforms/espressif/esp8266_sdk/2.2.1/ESP8266_NONOS_SDK_2.2.1/lib/libc.a(lib_a-ctype_.o)
 *fill*         0x0000000040106383        0x1 
 .text          0x0000000040106384       0x49 /home/wall/projects/IoT/mcu/platforms/espressif/esp8266_sdk/2.2.1/ESP8266_NONOS_SDK_2.2.1/lib/libgcc.a(_modsi3.o)
                0x0000000040106384                __modsi3
 *fill*         0x00000000401063cd        0x3 
 .text          0x00000000401063d0       0x18 /home/wall/projects/IoT/mcu/platforms/espressif/esp8266_sdk/2.2.1/ESP8266_NONOS_SDK_2.2.1/lib/libgcc.a(_ashrdi3.o)
                0x00000000401063d0                __ashrdi3
 *fill*         0x00000000401063e8        0x0 
 .text          0x00000000401063e8        0x0 /home/wall/projects/IoT/mcu/platforms/espressif/esp8266_sdk/2.2.1/ESP8266_NONOS_SDK_2.2.1/lib/libnet80211.a(ieee80211_crypto_tkip.o)
 .text          0x00000000401063e8        0x0 /home/wall/projects/IoT/mcu/platforms/espressif/esp8266_sdk/2.2.1/ESP8266_NONOS_SDK_2.2.1/lib/libnet80211.a(ieee80211_crypto_wep.o)
 *(.fini.literal)
 *(.fini)
 *(.gnu.version)
                0x00000000401063e8                _text_end = ABSOLUTE (.)
                0x00000000401063e8                _etext = .

.NMIExceptionVector.literal
                0x00000000401063e8        0x0
 .NMIExceptionVector.literal
                0x00000000401063e8        0x0 /home/wall/projects/IoT/mcu/platforms/espressif/esp8266_sdk/2.2.1/ESP8266_NONOS_SDK_2.2.1/lib/libmain.a(nmi-vector.o)

.UserExceptionVector.literal
                0x00000000401063e8        0x0
 .UserExceptionVector.literal
                0x00000000401063e8        0x0 /home/wall/projects/IoT/mcu/platforms/espressif/esp8266_sdk/2.2.1/ESP8266_NONOS_SDK_2.2.1/lib/libmain.a(user-vector.o)

.UserEnter.literal
                0x00000000401063e8        0x0
 .UserEnter.literal
                0x00000000401063e8        0x0 /home/wall/projects/IoT/mcu/platforms/espressif/esp8266_sdk/2.2.1/ESP8266_NONOS_SDK_2.2.1/lib/libmain.a(vector.o)

.lit4           0x00000000401063e8        0x0
                0x00000000401063e8                _lit4_start = ABSOLUTE (.)
 *(*.lit4)
 *(.lit4.*)
 *(.gnu.linkonce.lit4.*)
                0x00000000401063e8                _lit4_end = ABSOLUTE (.)
                0x00000000400047f0                PROVIDE (Cache_Read_Disable, 0x400047f0)
                0x0000000040004678                PROVIDE (Cache_Read_Enable, 0x40004678)
                [!provide]                        PROVIDE (FilePacketSendReqMsgProc, 0x400035a0)
                [!provide]                        PROVIDE (FlashDwnLdParamCfgMsgProc, 0x4000368c)
                [!provide]                        PROVIDE (FlashDwnLdStartMsgProc, 0x40003538)
                [!provide]                        PROVIDE (FlashDwnLdStopReqMsgProc, 0x40003658)
                [!provide]                        PROVIDE (GetUartDevice, 0x40003f4c)
                [!provide]                        PROVIDE (MD5Final, 0x40009900)
                [!provide]                        PROVIDE (MD5Init, 0x40009818)
                [!provide]                        PROVIDE (MD5Update, 0x40009834)
                [!provide]                        PROVIDE (MemDwnLdStartMsgProc, 0x400036c4)
                [!provide]                        PROVIDE (MemDwnLdStopReqMsgProc, 0x4000377c)
                [!provide]                        PROVIDE (MemPacketSendReqMsgProc, 0x400036f0)
                [!provide]                        PROVIDE (RcvMsg, 0x40003eac)
                [!provide]                        PROVIDE (SHA1Final, 0x4000b648)
                [!provide]                        PROVIDE (SHA1Init, 0x4000b584)
                [!provide]                        PROVIDE (SHA1Transform, 0x4000a364)
                [!provide]                        PROVIDE (SHA1Update, 0x4000b5a8)
                0x00000000400043c8                PROVIDE (SPI_read_status, 0x400043c8)
                0x0000000040004400                PROVIDE (SPI_write_status, 0x40004400)
                0x000000004000443c                PROVIDE (SPI_write_enable, 0x4000443c)
                0x000000004000448c                PROVIDE (Wait_SPI_Idle, 0x4000448c)
                0x00000000400044c0                PROVIDE (Enable_QMode, 0x400044c0)
                [!provide]                        PROVIDE (SPIEraseArea, 0x40004b44)
                [!provide]                        PROVIDE (SPIEraseBlock, 0x400049b4)
                [!provide]                        PROVIDE (SPIEraseChip, 0x40004984)
                0x0000000040004a00                PROVIDE (SPIEraseSector, 0x40004a00)
                [!provide]                        PROVIDE (SPILock, 0x400048a8)
                [!provide]                        PROVIDE (SPIParamCfg, 0x40004c2c)
                0x0000000040004b1c                PROVIDE (SPIRead, 0x40004b1c)
                [!provide]                        PROVIDE (SPIReadModeCnfig, 0x400048ec)
                [!provide]                        PROVIDE (SPIUnlock, 0x40004878)
                0x0000000040004a4c                PROVIDE (SPIWrite, 0x40004a4c)
                [!provide]                        PROVIDE (SelectSpiFunction, 0x40003f58)
                [!provide]                        PROVIDE (SendMsg, 0x40003cf4)
                [!provide]                        PROVIDE (UartConnCheck, 0x40003230)
                [!provide]                        PROVIDE (UartConnectProc, 0x400037a0)
                [!provide]                        PROVIDE (UartDwnLdProc, 0x40003368)
                [!provide]                        PROVIDE (UartGetCmdLn, 0x40003ef4)
                [!provide]                        PROVIDE (UartRegReadProc, 0x4000381c)
                [!provide]                        PROVIDE (UartRegWriteProc, 0x400037ac)
                [!provide]                        PROVIDE (UartRxString, 0x40003c30)
                0x0000000040003a14                PROVIDE (Uart_Init, 0x40003a14)
                [!provide]                        PROVIDE (_DebugExceptionVector, 0x40000010)
                [!provide]                        PROVIDE (_DoubleExceptionVector, 0x40000070)
                [!provide]                        PROVIDE (_KernelExceptionVector, 0x40000030)
                [!provide]                        PROVIDE (_NMIExceptionVector, 0x40000020)
                [!provide]                        PROVIDE (_ResetHandler, 0x400000a4)
                [!provide]                        PROVIDE (_ResetVector, 0x40000080)
                [!provide]                        PROVIDE (_UserExceptionVector, 0x40000050)
                [!provide]                        PROVIDE (__adddf3, 0x4000c538)
                0x000000004000c180                PROVIDE (__addsf3, 0x4000c180)
                0x000000004000cb94                PROVIDE (__divdf3, 0x4000cb94)
                0x000000004000ce60                PROVIDE (__divdi3, 0x4000ce60)
                0x000000004000dc88                PROVIDE (__divsi3, 0x4000dc88)
                [!provide]                        PROVIDE (__extendsfdf2, 0x4000cdfc)
                0x000000004000ccb8                PROVIDE (__fixdfsi, 0x4000ccb8)
                [!provide]                        PROVIDE (__fixunsdfsi, 0x4000cd00)
                0x000000004000c4c4                PROVIDE (__fixunssfsi, 0x4000c4c4)
                0x000000004000e2f0                PROVIDE (__floatsidf, 0x4000e2f0)
                0x000000004000e2ac                PROVIDE (__floatsisf, 0x4000e2ac)
                0x000000004000e2e8                PROVIDE (__floatunsidf, 0x4000e2e8)
                0x000000004000e2a4                PROVIDE (__floatunsisf, 0x4000e2a4)
                0x000000004000c8f0                PROVIDE (__muldf3, 0x4000c8f0)
                0x0000000040000650                PROVIDE (__muldi3, 0x40000650)
                0x000000004000c3dc                PROVIDE (__mulsf3, 0x4000c3dc)
                [!provide]                        PROVIDE (__subdf3, 0x4000c688)
                0x000000004000c268                PROVIDE (__subsf3, 0x4000c268)
                0x000000004000cd5c                PROVIDE (__truncdfsf2, 0x4000cd5c)
                0x000000004000d310                PROVIDE (__udivdi3, 0x4000d310)
                0x000000004000e21c                PROVIDE (__udivsi3, 0x4000e21c)
                0x000000004000d770                PROVIDE (__umoddi3, 0x4000d770)
                0x000000004000e268                PROVIDE (__umodsi3, 0x4000e268)
                [!provide]                        PROVIDE (__umulsidi3, 0x4000dcf0)
                [!provide]                        PROVIDE (_rom_store, 0x4000e388)
                [!provide]                        PROVIDE (_rom_store_table, 0x4000e328)
                [!provide]                        PROVIDE (_start, 0x4000042c)
                [!provide]                        PROVIDE (_xtos_alloca_handler, 0x4000dbe0)
                [!provide]                        PROVIDE (_xtos_c_wrapper_handler, 0x40000598)
                [!provide]                        PROVIDE (_xtos_cause3_handler, 0x40000590)
                [!provide]                        PROVIDE (_xtos_ints_off, 0x4000bda4)
                [!provide]                        PROVIDE (_xtos_ints_on, 0x4000bd84)
                [!provide]                        PROVIDE (_xtos_l1int_handler, 0x4000048c)
                [!provide]                        PROVIDE (_xtos_p_none, 0x4000dbf8)
                [!provide]                        PROVIDE (_xtos_restore_intlevel, 0x4000056c)
                [!provide]                        PROVIDE (_xtos_return_from_exc, 0x4000dc54)
                0x0000000040000454                PROVIDE (_xtos_set_exception_handler, 0x40000454)
                [!provide]                        PROVIDE (_xtos_set_interrupt_handler, 0x4000bd70)
                [!provide]                        PROVIDE (_xtos_set_interrupt_handler_arg, 0x4000bd28)
                [!provide]                        PROVIDE (_xtos_set_intlevel, 0x4000dbfc)
                [!provide]                        PROVIDE (_xtos_set_min_intlevel, 0x4000dc18)
                [!provide]                        PROVIDE (_xtos_set_vpri, 0x40000574)
                [!provide]                        PROVIDE (_xtos_syscall_handler, 0x4000dbe4)
                [!provide]                        PROVIDE (_xtos_unhandled_exception, 0x4000dc44)
                [!provide]                        PROVIDE (_xtos_unhandled_interrupt, 0x4000dc3c)
                [!provide]                        PROVIDE (aes_decrypt, 0x400092d4)
                [!provide]                        PROVIDE (aes_decrypt_deinit, 0x400092e4)
                [!provide]                        PROVIDE (aes_decrypt_init, 0x40008ea4)
                0x0000000040009410                PROVIDE (aes_unwrap, 0x40009410)
                [!provide]                        PROVIDE (base64_decode, 0x40009648)
                [!provide]                        PROVIDE (base64_encode, 0x400094fc)
                [!provide]                        PROVIDE (bzero, 0x4000de84)
                [!provide]                        PROVIDE (cmd_parse, 0x40000814)
                [!provide]                        PROVIDE (conv_str_decimal, 0x40000b24)
                [!provide]                        PROVIDE (conv_str_hex, 0x40000cb8)
                [!provide]                        PROVIDE (convert_para_str, 0x40000a60)
                [!provide]                        PROVIDE (dtm_get_intr_mask, 0x400026d0)
                [!provide]                        PROVIDE (dtm_params_init, 0x4000269c)
                [!provide]                        PROVIDE (dtm_set_intr_mask, 0x400026c8)
                [!provide]                        PROVIDE (dtm_set_params, 0x400026dc)
                [!provide]                        PROVIDE (eprintf, 0x40001d14)
                [!provide]                        PROVIDE (eprintf_init_buf, 0x40001cb8)
                [!provide]                        PROVIDE (eprintf_to_host, 0x40001d48)
                [!provide]                        PROVIDE (est_get_printf_buf_remain_len, 0x40002494)
                [!provide]                        PROVIDE (est_reset_printf_buf_len, 0x4000249c)
                0x0000000040002ae8                PROVIDE (ets_bzero, 0x40002ae8)
                [!provide]                        PROVIDE (ets_char2xdigit, 0x40002b74)
                0x0000000040002ecc                PROVIDE (ets_delay_us, 0x40002ecc)
                [!provide]                        PROVIDE (ets_enter_sleep, 0x400027b8)
                [!provide]                        PROVIDE (ets_external_printf, 0x40002578)
                0x0000000040002f0c                PROVIDE (ets_get_cpu_frequency, 0x40002f0c)
                [!provide]                        PROVIDE (ets_getc, 0x40002bcc)
                [!provide]                        PROVIDE (ets_install_external_printf, 0x40002450)
                0x000000004000242c                PROVIDE (ets_install_putc1, 0x4000242c)
                [!provide]                        PROVIDE (ets_install_putc2, 0x4000248c)
                [!provide]                        PROVIDE (ets_install_uart_printf, 0x40002438)
                0x0000000040000f74                PROVIDE (ets_intr_lock, 0x40000f74)
                0x0000000040000f80                PROVIDE (ets_intr_unlock, 0x40000f80)
                0x0000000040000f88                PROVIDE (ets_isr_attach, 0x40000f88)
                0x0000000040000f98                PROVIDE (ets_isr_mask, 0x40000f98)
                0x0000000040000fa8                PROVIDE (ets_isr_unmask, 0x40000fa8)
                0x00000000400018d4                PROVIDE (ets_memcmp, 0x400018d4)
                0x00000000400018b4                PROVIDE (ets_memcpy, 0x400018b4)
                [!provide]                        PROVIDE (ets_memmove, 0x400018c4)
                0x00000000400018a4                PROVIDE (ets_memset, 0x400018a4)
                0x0000000040000e24                PROVIDE (ets_post, 0x40000e24)
                0x00000000400024cc                PROVIDE (ets_printf, 0x400024cc)
                [!provide]                        PROVIDE (ets_putc, 0x40002be8)
                [!provide]                        PROVIDE (ets_rtc_int_register, 0x40002a40)
                0x0000000040000e04                PROVIDE (ets_run, 0x40000e04)
                0x0000000040000dc0                PROVIDE (ets_set_idle_cb, 0x40000dc0)
                [!provide]                        PROVIDE (ets_set_user_start, 0x40000fbc)
                [!provide]                        PROVIDE (ets_str2macaddr, 0x40002af8)
                [!provide]                        PROVIDE (ets_strcmp, 0x40002aa8)
                0x0000000040002a88                PROVIDE (ets_strcpy, 0x40002a88)
                0x0000000040002ac8                PROVIDE (ets_strlen, 0x40002ac8)
                0x0000000040002ab8                PROVIDE (ets_strncmp, 0x40002ab8)
                0x0000000040002a98                PROVIDE (ets_strncpy, 0x40002a98)
                [!provide]                        PROVIDE (ets_strstr, 0x40002ad8)
                0x0000000040000dd0                PROVIDE (ets_task, 0x40000dd0)
                [!provide]                        PROVIDE (ets_timer_arm, 0x40002cc4)
                [!provide]                        PROVIDE (ets_timer_disarm, 0x40002d40)
                [!provide]                        PROVIDE (ets_timer_done, 0x40002d80)
                [!provide]                        PROVIDE (ets_timer_handler_isr, 0x40002da8)
                [!provide]                        PROVIDE (ets_timer_init, 0x40002e68)
                [!provide]                        PROVIDE (ets_timer_setfn, 0x40002c48)
                [!provide]                        PROVIDE (ets_uart_printf, 0x40002544)
                0x0000000040002f04                PROVIDE (ets_update_cpu_frequency, 0x40002f04)
                0x0000000040001f00                PROVIDE (ets_vprintf, 0x40001f00)
                [!provide]                        PROVIDE (ets_wdt_disable, 0x400030f0)
                [!provide]                        PROVIDE (ets_wdt_enable, 0x40002fa0)
                [!provide]                        PROVIDE (ets_wdt_get_mode, 0x40002f34)
                [!provide]                        PROVIDE (ets_wdt_init, 0x40003170)
                [!provide]                        PROVIDE (ets_wdt_restore, 0x40003158)
                0x0000000040001da0                PROVIDE (ets_write_char, 0x40001da0)
                [!provide]                        PROVIDE (get_first_seg, 0x4000091c)
                [!provide]                        PROVIDE (gpio_init, 0x40004c50)
                0x0000000040004cf0                PROVIDE (gpio_input_get, 0x40004cf0)
                [!provide]                        PROVIDE (gpio_intr_ack, 0x40004dcc)
                [!provide]                        PROVIDE (gpio_intr_handler_register, 0x40004e28)
                [!provide]                        PROVIDE (gpio_intr_pending, 0x40004d88)
                [!provide]                        PROVIDE (gpio_intr_test, 0x40004efc)
                0x0000000040004cd0                PROVIDE (gpio_output_set, 0x40004cd0)
                [!provide]                        PROVIDE (gpio_pin_intr_state_set, 0x40004d90)
                0x0000000040004ed4                PROVIDE (gpio_pin_wakeup_disable, 0x40004ed4)
                0x0000000040004e90                PROVIDE (gpio_pin_wakeup_enable, 0x40004e90)
                [!provide]                        PROVIDE (gpio_register_get, 0x40004d5c)
                [!provide]                        PROVIDE (gpio_register_set, 0x40004d04)
                0x000000004000a2cc                PROVIDE (hmac_md5, 0x4000a2cc)
                [!provide]                        PROVIDE (hmac_md5_vector, 0x4000a160)
                0x000000004000ba28                PROVIDE (hmac_sha1, 0x4000ba28)
                0x000000004000b8b4                PROVIDE (hmac_sha1_vector, 0x4000b8b4)
                0x0000000040004f40                PROVIDE (lldesc_build_chain, 0x40004f40)
                0x0000000040005050                PROVIDE (lldesc_num2link, 0x40005050)
                [!provide]                        PROVIDE (lldesc_set_owner, 0x4000507c)
                [!provide]                        PROVIDE (main, 0x40000fec)
                [!provide]                        PROVIDE (md5_vector, 0x400097ac)
                [!provide]                        PROVIDE (mem_calloc, 0x40001c2c)
                [!provide]                        PROVIDE (mem_free, 0x400019e0)
                [!provide]                        PROVIDE (mem_init, 0x40001998)
                [!provide]                        PROVIDE (mem_malloc, 0x40001b40)
                [!provide]                        PROVIDE (mem_realloc, 0x40001c6c)
                [!provide]                        PROVIDE (mem_trim, 0x40001a14)
                [!provide]                        PROVIDE (mem_zalloc, 0x40001c58)
                0x000000004000dea8                PROVIDE (memcmp, 0x4000dea8)
                0x000000004000df48                PROVIDE (memcpy, 0x4000df48)
                [!provide]                        PROVIDE (memmove, 0x4000e04c)
                [!provide]                        PROVIDE (memset, 0x4000e190)
                [!provide]                        PROVIDE (multofup, 0x400031c0)
                0x000000004000b840                PROVIDE (pbkdf2_sha1, 0x4000b840)
                0x0000000040006b08                PROVIDE (phy_get_romfuncs, 0x40006b08)
                [!provide]                        PROVIDE (rand, 0x40000600)
                0x000000004000dd68                PROVIDE (rc4_skip, 0x4000dd68)
                [!provide]                        PROVIDE (recv_packet, 0x40003d08)
                [!provide]                        PROVIDE (remove_head_space, 0x40000a04)
                [!provide]                        PROVIDE (rijndaelKeySetupDec, 0x40008dd0)
                [!provide]                        PROVIDE (rijndaelKeySetupEnc, 0x40009300)
                [!provide]                        PROVIDE (rom_abs_temp, 0x400060c0)
                [!provide]                        PROVIDE (rom_ana_inf_gating_en, 0x40006b10)
                [!provide]                        PROVIDE (rom_cal_tos_v50, 0x40007a28)
                [!provide]                        PROVIDE (rom_chip_50_set_channel, 0x40006f84)
                0x00000000400060d0                PROVIDE (rom_chip_v5_disable_cca, 0x400060d0)
                0x00000000400060ec                PROVIDE (rom_chip_v5_enable_cca, 0x400060ec)
                [!provide]                        PROVIDE (rom_chip_v5_rx_init, 0x4000711c)
                [!provide]                        PROVIDE (rom_chip_v5_sense_backoff, 0x4000610c)
                [!provide]                        PROVIDE (rom_chip_v5_tx_init, 0x4000718c)
                [!provide]                        PROVIDE (rom_dc_iq_est, 0x4000615c)
                [!provide]                        PROVIDE (rom_en_pwdet, 0x400061b8)
                [!provide]                        PROVIDE (rom_get_bb_atten, 0x40006238)
                [!provide]                        PROVIDE (rom_get_corr_power, 0x40006260)
                [!provide]                        PROVIDE (rom_get_fm_sar_dout, 0x400062dc)
                [!provide]                        PROVIDE (rom_get_noisefloor, 0x40006394)
                [!provide]                        PROVIDE (rom_get_power_db, 0x400063b0)
                [!provide]                        PROVIDE (rom_i2c_readReg, 0x40007268)
                [!provide]                        PROVIDE (rom_i2c_readReg_Mask, 0x4000729c)
                [!provide]                        PROVIDE (rom_i2c_writeReg, 0x400072d8)
                [!provide]                        PROVIDE (rom_i2c_writeReg_Mask, 0x4000730c)
                [!provide]                        PROVIDE (rom_iq_est_disable, 0x40006400)
                [!provide]                        PROVIDE (rom_iq_est_enable, 0x40006430)
                [!provide]                        PROVIDE (rom_linear_to_db, 0x40006484)
                [!provide]                        PROVIDE (rom_mhz2ieee, 0x400065a4)
                [!provide]                        PROVIDE (rom_pbus_dco___SA2, 0x40007bf0)
                [!provide]                        PROVIDE (rom_pbus_debugmode, 0x4000737c)
                [!provide]                        PROVIDE (rom_pbus_enter_debugmode, 0x40007410)
                [!provide]                        PROVIDE (rom_pbus_exit_debugmode, 0x40007448)
                [!provide]                        PROVIDE (rom_pbus_force_test, 0x4000747c)
                [!provide]                        PROVIDE (rom_pbus_rd, 0x400074d8)
                [!provide]                        PROVIDE (rom_pbus_set_rxgain, 0x4000754c)
                [!provide]                        PROVIDE (rom_pbus_set_txgain, 0x40007610)
                [!provide]                        PROVIDE (rom_pbus_workmode, 0x40007648)
                [!provide]                        PROVIDE (rom_pbus_xpd_rx_off, 0x40007688)
                [!provide]                        PROVIDE (rom_pbus_xpd_rx_on, 0x400076cc)
                [!provide]                        PROVIDE (rom_pbus_xpd_tx_off, 0x400076fc)
                [!provide]                        PROVIDE (rom_pbus_xpd_tx_on, 0x40007740)
                [!provide]                        PROVIDE (rom_pbus_xpd_tx_on__low_gain, 0x400077a0)
                [!provide]                        PROVIDE (rom_phy_reset_req, 0x40007804)
                [!provide]                        PROVIDE (rom_restart_cal, 0x4000781c)
                [!provide]                        PROVIDE (rom_rfcal_pwrctrl, 0x40007eb4)
                [!provide]                        PROVIDE (rom_rfcal_rxiq, 0x4000804c)
                [!provide]                        PROVIDE (rom_rfcal_rxiq_set_reg, 0x40008264)
                [!provide]                        PROVIDE (rom_rfcal_txcap, 0x40008388)
                [!provide]                        PROVIDE (rom_rfcal_txiq, 0x40008610)
                [!provide]                        PROVIDE (rom_rfcal_txiq_cover, 0x400088b8)
                [!provide]                        PROVIDE (rom_rfcal_txiq_set_reg, 0x40008a70)
                [!provide]                        PROVIDE (rom_rfpll_reset, 0x40007868)
                [!provide]                        PROVIDE (rom_rfpll_set_freq, 0x40007968)
                [!provide]                        PROVIDE (rom_rxiq_cover_mg_mp, 0x40008b6c)
                [!provide]                        PROVIDE (rom_rxiq_get_mis, 0x40006628)
                [!provide]                        PROVIDE (rom_sar_init, 0x40006738)
                [!provide]                        PROVIDE (rom_set_ana_inf_tx_scale, 0x4000678c)
                [!provide]                        PROVIDE (rom_set_channel_freq, 0x40006c50)
                [!provide]                        PROVIDE (rom_set_loopback_gain, 0x400067c8)
                [!provide]                        PROVIDE (rom_set_noise_floor, 0x40006830)
                [!provide]                        PROVIDE (rom_set_rxclk_en, 0x40006550)
                [!provide]                        PROVIDE (rom_set_txbb_atten, 0x40008c6c)
                [!provide]                        PROVIDE (rom_set_txclk_en, 0x4000650c)
                [!provide]                        PROVIDE (rom_set_txiq_cal, 0x40008d34)
                [!provide]                        PROVIDE (rom_start_noisefloor, 0x40006874)
                [!provide]                        PROVIDE (rom_start_tx_tone, 0x400068b4)
                [!provide]                        PROVIDE (rom_stop_tx_tone, 0x4000698c)
                [!provide]                        PROVIDE (rom_tx_mac_disable, 0x40006a98)
                [!provide]                        PROVIDE (rom_tx_mac_enable, 0x40006ad4)
                [!provide]                        PROVIDE (rom_txtone_linear_pwr, 0x40006a1c)
                [!provide]                        PROVIDE (rom_write_rfpll_sdm, 0x400078dc)
                0x00000000400031b4                PROVIDE (roundup2, 0x400031b4)
                [!provide]                        PROVIDE (rtc_enter_sleep, 0x40002870)
                0x00000000400025e0                PROVIDE (rtc_get_reset_reason, 0x400025e0)
                [!provide]                        PROVIDE (rtc_intr_handler, 0x400029ec)
                [!provide]                        PROVIDE (rtc_set_sleep_mode, 0x40002668)
                [!provide]                        PROVIDE (save_rxbcn_mactime, 0x400027a4)
                [!provide]                        PROVIDE (save_tsf_us, 0x400027ac)
                [!provide]                        PROVIDE (send_packet, 0x40003c80)
                0x000000004000ba48                PROVIDE (sha1_prf, 0x4000ba48)
                [!provide]                        PROVIDE (sha1_vector, 0x4000a2ec)
                [!provide]                        PROVIDE (sip_alloc_to_host_evt, 0x40005180)
                [!provide]                        PROVIDE (sip_get_ptr, 0x400058a8)
                [!provide]                        PROVIDE (sip_get_state, 0x40005668)
                [!provide]                        PROVIDE (sip_init_attach, 0x4000567c)
                [!provide]                        PROVIDE (sip_install_rx_ctrl_cb, 0x4000544c)
                [!provide]                        PROVIDE (sip_install_rx_data_cb, 0x4000545c)
                [!provide]                        PROVIDE (sip_post, 0x400050fc)
                [!provide]                        PROVIDE (sip_post_init, 0x400056c4)
                [!provide]                        PROVIDE (sip_reclaim_from_host_cmd, 0x4000534c)
                [!provide]                        PROVIDE (sip_reclaim_tx_data_pkt, 0x400052c0)
                [!provide]                        PROVIDE (sip_send, 0x40005808)
                [!provide]                        PROVIDE (sip_to_host_chain_append, 0x40005864)
                [!provide]                        PROVIDE (sip_to_host_evt_send_done, 0x40005234)
                [!provide]                        PROVIDE (slc_add_credits, 0x400060ac)
                [!provide]                        PROVIDE (slc_enable, 0x40005d90)
                [!provide]                        PROVIDE (slc_from_host_chain_fetch, 0x40005f24)
                [!provide]                        PROVIDE (slc_from_host_chain_recycle, 0x40005e94)
                [!provide]                        PROVIDE (slc_init_attach, 0x40005c50)
                [!provide]                        PROVIDE (slc_init_credit, 0x4000608c)
                [!provide]                        PROVIDE (slc_pause_from_host, 0x40006014)
                [!provide]                        PROVIDE (slc_reattach, 0x40005c1c)
                [!provide]                        PROVIDE (slc_resume_from_host, 0x4000603c)
                [!provide]                        PROVIDE (slc_select_tohost_gpio, 0x40005dc0)
                [!provide]                        PROVIDE (slc_select_tohost_gpio_mode, 0x40005db8)
                [!provide]                        PROVIDE (slc_send_to_host_chain, 0x40005de4)
                [!provide]                        PROVIDE (slc_set_host_io_max_window, 0x40006068)
                [!provide]                        PROVIDE (slc_to_host_chain_recycle, 0x40005f10)
                [!provide]                        PROVIDE (software_reset, 0x4000264c)
                [!provide]                        PROVIDE (spi_flash_attach, 0x40004644)
                [!provide]                        PROVIDE (srand, 0x400005f0)
                [!provide]                        PROVIDE (strcmp, 0x4000bdc8)
                [!provide]                        PROVIDE (strcpy, 0x4000bec8)
                [!provide]                        PROVIDE (strlen, 0x4000bf4c)
                [!provide]                        PROVIDE (strncmp, 0x4000bfa8)
                [!provide]                        PROVIDE (strncpy, 0x4000c0a0)
                [!provide]                        PROVIDE (strstr, 0x4000e1e0)
                [!provide]                        PROVIDE (timer_insert, 0x40002c64)
                [!provide]                        PROVIDE (uartAttach, 0x4000383c)
                [!provide]                        PROVIDE (uart_baudrate_detect, 0x40003924)
                0x00000000400038a4                PROVIDE (uart_buff_switch, 0x400038a4)
                [!provide]                        PROVIDE (uart_rx_intr_handler, 0x40003bbc)
                [!provide]                        PROVIDE (uart_rx_one_char, 0x40003b8c)
                [!provide]                        PROVIDE (uart_rx_one_char_block, 0x40003b64)
                [!provide]                        PROVIDE (uart_rx_readbuff, 0x40003ec8)
                [!provide]                        PROVIDE (uart_tx_one_char, 0x40003b30)
                [!provide]                        PROVIDE (wepkey_128, 0x4000bc40)
                [!provide]                        PROVIDE (wepkey_64, 0x4000bb3c)
                [!provide]                        PROVIDE (xthal_bcopy, 0x40000688)
                [!provide]                        PROVIDE (xthal_copy123, 0x4000074c)
                [!provide]                        PROVIDE (xthal_get_ccompare, 0x4000dd4c)
                [!provide]                        PROVIDE (xthal_get_ccount, 0x4000dd38)
                [!provide]                        PROVIDE (xthal_get_interrupt, 0x4000dd58)
                [!provide]                        PROVIDE (xthal_get_intread, 0x4000dd58)
                [!provide]                        PROVIDE (xthal_memcpy, 0x400006c4)
                [!provide]                        PROVIDE (xthal_set_ccompare, 0x4000dd40)
                [!provide]                        PROVIDE (xthal_set_intclear, 0x4000dd60)
                [!provide]                        PROVIDE (xthal_spill_registers_into_stack_nw, 0x4000e320)
                [!provide]                        PROVIDE (xthal_window_spill, 0x4000e324)
                [!provide]                        PROVIDE (xthal_window_spill_nw, 0x4000e320)
                0x000000003fffccf0                PROVIDE (Te0, 0x3fffccf0)
                [!provide]                        PROVIDE (Td0, 0x3fffd100)
                [!provide]                        PROVIDE (Td4s, 0x3fffd500)
                0x000000003fffd0f0                PROVIDE (rcons, 0x3fffd0f0)
                [!provide]                        PROVIDE (UartDev, 0x3fffde10)
                0x000000003fffc714                PROVIDE (flashchip, 0x3fffc714)
OUTPUT(/home/wall/projects/templates/Makefile/Makefile_generic/esp/esp8266/build/user/blinky/blinky.out elf32-xtensa-le)

.xtensa.info    0x0000000000000000       0x38
 .xtensa.info   0x0000000000000000       0x38 /home/wall/projects/IoT/mcu/platforms/espressif/esp8266_sdk/2.2.1/ESP8266_NONOS_SDK_2.2.1/lib/libmain.a(debug-vector.o)
 .xtensa.info   0x0000000000000038        0x0 /home/wall/projects/IoT/mcu/platforms/espressif/esp8266_sdk/2.2.1/ESP8266_NONOS_SDK_2.2.1/lib/libmain.a(double-vector.o)
 .xtensa.info   0x0000000000000038        0x0 /home/wall/projects/IoT/mcu/platforms/espressif/esp8266_sdk/2.2.1/ESP8266_NONOS_SDK_2.2.1/lib/libmain.a(kernel-vector.o)
 .xtensa.info   0x0000000000000038        0x0 /home/wall/projects/IoT/mcu/platforms/espressif/esp8266_sdk/2.2.1/ESP8266_NONOS_SDK_2.2.1/lib/libmain.a(nmi-vector.o)
 .xtensa.info   0x0000000000000038        0x0 /home/wall/projects/IoT/mcu/platforms/espressif/esp8266_sdk/2.2.1/ESP8266_NONOS_SDK_2.2.1/lib/libmain.a(user-vector.o)
 .xtensa.info   0x0000000000000038        0x0 /home/wall/projects/IoT/mcu/platforms/espressif/esp8266_sdk/2.2.1/ESP8266_NONOS_SDK_2.2.1/lib/libmain.a(vector.o)
 .xtensa.info   0x0000000000000038        0x0 /home/wall/projects/IoT/mcu/platforms/espressif/esp8266_sdk/2.2.1/ESP8266_NONOS_SDK_2.2.1/lib/libmain.a(app_main.o)
 .xtensa.info   0x0000000000000038        0x0 /home/wall/projects/IoT/mcu/platforms/espressif/esp8266_sdk/2.2.1/ESP8266_NONOS_SDK_2.2.1/lib/libmain.a(ets_timer.o)
 .xtensa.info   0x0000000000000038        0x0 /home/wall/projects/IoT/mcu/platforms/espressif/esp8266_sdk/2.2.1/ESP8266_NONOS_SDK_2.2.1/lib/libmain.a(mem_manager.o)
 .xtensa.info   0x0000000000000038        0x0 /home/wall/projects/IoT/mcu/platforms/espressif/esp8266_sdk/2.2.1/ESP8266_NONOS_SDK_2.2.1/lib/libmain.a(user_interface.o)
 .xtensa.info   0x0000000000000038        0x0 /home/wall/projects/IoT/mcu/platforms/espressif/esp8266_sdk/2.2.1/ESP8266_NONOS_SDK_2.2.1/lib/libmain.a(spi_flash.o)
 .xtensa.info   0x0000000000000038        0x0 /home/wall/projects/IoT/mcu/platforms/espressif/esp8266_sdk/2.2.1/ESP8266_NONOS_SDK_2.2.1/lib/libmain.a(eagle_lib.o)
 .xtensa.info   0x0000000000000038        0x0 /home/wall/projects/IoT/mcu/platforms/espressif/esp8266_sdk/2.2.1/ESP8266_NONOS_SDK_2.2.1/lib/libmain.a(eagle_lwip_if.o)
 .xtensa.info   0x0000000000000038        0x0 /home/wall/projects/templates/Makefile/Makefile_generic/esp/esp8266/build/user/blinky/blinky.a(rf_init.o)
 .xtensa.info   0x0000000000000038        0x0 /home/wall/projects/templates/Makefile/Makefile_generic/esp/esp8266/build/user/blinky/blinky.a(main.o)
 .xtensa.info   0x0000000000000038        0x0 /home/wall/projects/IoT/mcu/platforms/espressif/esp8266_sdk/2.2.1/xtensa-lx106-elf/bin/../xtensa-lx106-elf/sysroot/usr/lib/libhal.a(int_asm--set_intclear.o)
 .xtensa.info   0x0000000000000038        0x0 /home/wall/projects/IoT/mcu/platforms/espressif/esp8266_sdk/2.2.1/ESP8266_NONOS_SDK_2.2.1/lib/libpp.a(if_hwctrl.o)
 .xtensa.info   0x0000000000000038        0x0 /home/wall/projects/IoT/mcu/platforms/espressif/esp8266_sdk/2.2.1/ESP8266_NONOS_SDK_2.2.1/lib/libpp.a(lmac.o)
 .xtensa.info   0x0000000000000038        0x0 /home/wall/projects/IoT/mcu/platforms/espressif/esp8266_sdk/2.2.1/ESP8266_NONOS_SDK_2.2.1/lib/libpp.a(pm.o)
 .xtensa.info   0x0000000000000038        0x0 /home/wall/projects/IoT/mcu/platforms/espressif/esp8266_sdk/2.2.1/ESP8266_NONOS_SDK_2.2.1/lib/libpp.a(pm_for_bcn_only_mode.o)
 .xtensa.info   0x0000000000000038        0x0 /home/wall/projects/IoT/mcu/platforms/espressif/esp8266_sdk/2.2.1/ESP8266_NONOS_SDK_2.2.1/lib/libpp.a(pp.o)
 .xtensa.info   0x0000000000000038        0x0 /home/wall/projects/IoT/mcu/platforms/espressif/esp8266_sdk/2.2.1/ESP8266_NONOS_SDK_2.2.1/lib/libpp.a(rate_control.o)
 .xtensa.info   0x0000000000000038        0x0 /home/wall/projects/IoT/mcu/platforms/espressif/esp8266_sdk/2.2.1/ESP8266_NONOS_SDK_2.2.1/lib/libpp.a(trc.o)
 .xtensa.info   0x0000000000000038        0x0 /home/wall/projects/IoT/mcu/platforms/espressif/esp8266_sdk/2.2.1/ESP8266_NONOS_SDK_2.2.1/lib/libpp.a(wdev.o)
 .xtensa.info   0x0000000000000038        0x0 /home/wall/projects/IoT/mcu/platforms/espressif/esp8266_sdk/2.2.1/ESP8266_NONOS_SDK_2.2.1/lib/libpp.a(esf_buf.o)
 .xtensa.info   0x0000000000000038        0x0 /home/wall/projects/IoT/mcu/platforms/espressif/esp8266_sdk/2.2.1/ESP8266_NONOS_SDK_2.2.1/lib/libphy.a(phy.o)
 .xtensa.info   0x0000000000000038        0x0 /home/wall/projects/IoT/mcu/platforms/espressif/esp8266_sdk/2.2.1/ESP8266_NONOS_SDK_2.2.1/lib/libphy.a(phy_chip_v6_ana.o)
 .xtensa.info   0x0000000000000038        0x0 /home/wall/projects/IoT/mcu/platforms/espressif/esp8266_sdk/2.2.1/ESP8266_NONOS_SDK_2.2.1/lib/libphy.a(phy_chip_v6.o)
 .xtensa.info   0x0000000000000038        0x0 /home/wall/projects/IoT/mcu/platforms/espressif/esp8266_sdk/2.2.1/ESP8266_NONOS_SDK_2.2.1/lib/libphy.a(phy_chip_v6_cal.o)
 .xtensa.info   0x0000000000000038        0x0 /home/wall/projects/IoT/mcu/platforms/espressif/esp8266_sdk/2.2.1/ESP8266_NONOS_SDK_2.2.1/lib/libphy.a(phy_chip_v6_unused.o)
 .xtensa.info   0x0000000000000038        0x0 /home/wall/projects/IoT/mcu/platforms/espressif/esp8266_sdk/2.2.1/ESP8266_NONOS_SDK_2.2.1/lib/libphy.a(phy_sleep.o)
 .xtensa.info   0x0000000000000038        0x0 /home/wall/projects/IoT/mcu/platforms/espressif/esp8266_sdk/2.2.1/ESP8266_NONOS_SDK_2.2.1/lib/libnet80211.a(ieee80211.o)
 .xtensa.info   0x0000000000000038        0x0 /home/wall/projects/IoT/mcu/platforms/espressif/esp8266_sdk/2.2.1/ESP8266_NONOS_SDK_2.2.1/lib/libnet80211.a(ieee80211_crypto.o)
 .xtensa.info   0x0000000000000038        0x0 /home/wall/projects/IoT/mcu/platforms/espressif/esp8266_sdk/2.2.1/ESP8266_NONOS_SDK_2.2.1/lib/libnet80211.a(ieee80211_ets.o)
 .xtensa.info   0x0000000000000038        0x0 /home/wall/projects/IoT/mcu/platforms/espressif/esp8266_sdk/2.2.1/ESP8266_NONOS_SDK_2.2.1/lib/libnet80211.a(ieee80211_hostap.o)
 .xtensa.info   0x0000000000000038        0x0 /home/wall/projects/IoT/mcu/platforms/espressif/esp8266_sdk/2.2.1/ESP8266_NONOS_SDK_2.2.1/lib/libnet80211.a(ieee80211_ht.o)
 .xtensa.info   0x0000000000000038        0x0 /home/wall/projects/IoT/mcu/platforms/espressif/esp8266_sdk/2.2.1/ESP8266_NONOS_SDK_2.2.1/lib/libnet80211.a(ieee80211_input.o)
 .xtensa.info   0x0000000000000038        0x0 /home/wall/projects/IoT/mcu/platforms/espressif/esp8266_sdk/2.2.1/ESP8266_NONOS_SDK_2.2.1/lib/libnet80211.a(ieee80211_mesh_quick.o)
 .xtensa.info   0x0000000000000038        0x0 /home/wall/projects/IoT/mcu/platforms/espressif/esp8266_sdk/2.2.1/ESP8266_NONOS_SDK_2.2.1/lib/libnet80211.a(ieee80211_output.o)
 .xtensa.info   0x0000000000000038        0x0 /home/wall/projects/IoT/mcu/platforms/espressif/esp8266_sdk/2.2.1/ESP8266_NONOS_SDK_2.2.1/lib/libnet80211.a(ieee80211_phy.o)
 .xtensa.info   0x0000000000000038        0x0 /home/wall/projects/IoT/mcu/platforms/espressif/esp8266_sdk/2.2.1/ESP8266_NONOS_SDK_2.2.1/lib/libnet80211.a(ieee80211_power.o)
 .xtensa.info   0x0000000000000038        0x0 /home/wall/projects/IoT/mcu/platforms/espressif/esp8266_sdk/2.2.1/ESP8266_NONOS_SDK_2.2.1/lib/libnet80211.a(ieee80211_proto.o)
 .xtensa.info   0x0000000000000038        0x0 /home/wall/projects/IoT/mcu/platforms/espressif/esp8266_sdk/2.2.1/ESP8266_NONOS_SDK_2.2.1/lib/libnet80211.a(ieee80211_regdomain.o)
 .xtensa.info   0x0000000000000038        0x0 /home/wall/projects/IoT/mcu/platforms/espressif/esp8266_sdk/2.2.1/ESP8266_NONOS_SDK_2.2.1/lib/libnet80211.a(ieee80211_rfid.o)
 .xtensa.info   0x0000000000000038        0x0 /home/wall/projects/IoT/mcu/platforms/espressif/esp8266_sdk/2.2.1/ESP8266_NONOS_SDK_2.2.1/lib/libnet80211.a(ieee80211_scan.o)
 .xtensa.info   0x0000000000000038        0x0 /home/wall/projects/IoT/mcu/platforms/espressif/esp8266_sdk/2.2.1/ESP8266_NONOS_SDK_2.2.1/lib/libnet80211.a(ieee80211_sta.o)
 .xtensa.info   0x0000000000000038        0x0 /home/wall/projects/IoT/mcu/platforms/espressif/esp8266_sdk/2.2.1/ESP8266_NONOS_SDK_2.2.1/lib/libnet80211.a(wl_chm.o)
 .xtensa.info   0x0000000000000038        0x0 /home/wall/projects/IoT/mcu/platforms/espressif/esp8266_sdk/2.2.1/ESP8266_NONOS_SDK_2.2.1/lib/libnet80211.a(wl_cnx.o)
 .xtensa.info   0x0000000000000038        0x0 /home/wall/projects/IoT/mcu/platforms/espressif/esp8266_sdk/2.2.1/ESP8266_NONOS_SDK_2.2.1/lib/libnet80211.a(ieee80211_action.o)
 .xtensa.info   0x0000000000000038        0x0 /home/wall/projects/IoT/mcu/platforms/espressif/esp8266_sdk/2.2.1/ESP8266_NONOS_SDK_2.2.1/lib/libnet80211.a(ieee80211_action_vendor.o)
 .xtensa.info   0x0000000000000038        0x0 /home/wall/projects/IoT/mcu/platforms/espressif/esp8266_sdk/2.2.1/ESP8266_NONOS_SDK_2.2.1/lib/libnet80211.a(ieee80211_crypto_ccmp.o)
 .xtensa.info   0x0000000000000038        0x0 /home/wall/projects/IoT/mcu/platforms/espressif/esp8266_sdk/2.2.1/ESP8266_NONOS_SDK_2.2.1/lib/libnet80211.a(ieee80211_ie_vendor.o)
 .xtensa.info   0x0000000000000038        0x0 /home/wall/projects/IoT/mcu/platforms/espressif/esp8266_sdk/2.2.1/ESP8266_NONOS_SDK_2.2.1/lib/liblwip.a(dhcp.o)
 .xtensa.info   0x0000000000000038        0x0 /home/wall/projects/IoT/mcu/platforms/espressif/esp8266_sdk/2.2.1/ESP8266_NONOS_SDK_2.2.1/lib/liblwip.a(dhcpserver.o)
 .xtensa.info   0x0000000000000038        0x0 /home/wall/projects/IoT/mcu/platforms/espressif/esp8266_sdk/2.2.1/ESP8266_NONOS_SDK_2.2.1/lib/liblwip.a(dns.o)
 .xtensa.info   0x0000000000000038        0x0 /home/wall/projects/IoT/mcu/platforms/espressif/esp8266_sdk/2.2.1/ESP8266_NONOS_SDK_2.2.1/lib/liblwip.a(espconn_tcp.o)
 .xtensa.info   0x0000000000000038        0x0 /home/wall/projects/IoT/mcu/platforms/espressif/esp8266_sdk/2.2.1/ESP8266_NONOS_SDK_2.2.1/lib/liblwip.a(etharp.o)
 .xtensa.info   0x0000000000000038        0x0 /home/wall/projects/IoT/mcu/platforms/espressif/esp8266_sdk/2.2.1/ESP8266_NONOS_SDK_2.2.1/lib/liblwip.a(init.o)
 .xtensa.info   0x0000000000000038        0x0 /home/wall/projects/IoT/mcu/platforms/espressif/esp8266_sdk/2.2.1/ESP8266_NONOS_SDK_2.2.1/lib/liblwip.a(ip.o)
 .xtensa.info   0x0000000000000038        0x0 /home/wall/projects/IoT/mcu/platforms/espressif/esp8266_sdk/2.2.1/ESP8266_NONOS_SDK_2.2.1/lib/liblwip.a(ip_addr.o)
 .xtensa.info   0x0000000000000038        0x0 /home/wall/projects/IoT/mcu/platforms/espressif/esp8266_sdk/2.2.1/ESP8266_NONOS_SDK_2.2.1/lib/liblwip.a(memp.o)
 .xtensa.info   0x0000000000000038        0x0 /home/wall/projects/IoT/mcu/platforms/espressif/esp8266_sdk/2.2.1/ESP8266_NONOS_SDK_2.2.1/lib/liblwip.a(netif.o)
 .xtensa.info   0x0000000000000038        0x0 /home/wall/projects/IoT/mcu/platforms/espressif/esp8266_sdk/2.2.1/ESP8266_NONOS_SDK_2.2.1/lib/liblwip.a(pbuf.o)
 .xtensa.info   0x0000000000000038        0x0 /home/wall/projects/IoT/mcu/platforms/espressif/esp8266_sdk/2.2.1/ESP8266_NONOS_SDK_2.2.1/lib/liblwip.a(raw.o)
 .xtensa.info   0x0000000000000038        0x0 /home/wall/projects/IoT/mcu/platforms/espressif/esp8266_sdk/2.2.1/ESP8266_NONOS_SDK_2.2.1/lib/liblwip.a(tcp.o)
 .xtensa.info   0x0000000000000038        0x0 /home/wall/projects/IoT/mcu/platforms/espressif/esp8266_sdk/2.2.1/ESP8266_NONOS_SDK_2.2.1/lib/liblwip.a(tcp_in.o)
 .xtensa.info   0x0000000000000038        0x0 /home/wall/projects/IoT/mcu/platforms/espressif/esp8266_sdk/2.2.1/ESP8266_NONOS_SDK_2.2.1/lib/liblwip.a(tcp_out.o)
 .xtensa.info   0x0000000000000038        0x0 /home/wall/projects/IoT/mcu/platforms/espressif/esp8266_sdk/2.2.1/ESP8266_NONOS_SDK_2.2.1/lib/liblwip.a(timers.o)
 .xtensa.info   0x0000000000000038        0x0 /home/wall/projects/IoT/mcu/platforms/espressif/esp8266_sdk/2.2.1/ESP8266_NONOS_SDK_2.2.1/lib/liblwip.a(udp.o)
 .xtensa.info   0x0000000000000038        0x0 /home/wall/projects/IoT/mcu/platforms/espressif/esp8266_sdk/2.2.1/ESP8266_NONOS_SDK_2.2.1/lib/liblwip.a(espconn.o)
 .xtensa.info   0x0000000000000038        0x0 /home/wall/projects/IoT/mcu/platforms/espressif/esp8266_sdk/2.2.1/ESP8266_NONOS_SDK_2.2.1/lib/liblwip.a(espconn_buf.o)
 .xtensa.info   0x0000000000000038        0x0 /home/wall/projects/IoT/mcu/platforms/espressif/esp8266_sdk/2.2.1/ESP8266_NONOS_SDK_2.2.1/lib/liblwip.a(espconn_udp.o)
 .xtensa.info   0x0000000000000038        0x0 /home/wall/projects/IoT/mcu/platforms/espressif/esp8266_sdk/2.2.1/ESP8266_NONOS_SDK_2.2.1/lib/liblwip.a(icmp.o)
 .xtensa.info   0x0000000000000038        0x0 /home/wall/projects/IoT/mcu/platforms/espressif/esp8266_sdk/2.2.1/ESP8266_NONOS_SDK_2.2.1/lib/liblwip.a(igmp.o)
 .xtensa.info   0x0000000000000038        0x0 /home/wall/projects/IoT/mcu/platforms/espressif/esp8266_sdk/2.2.1/ESP8266_NONOS_SDK_2.2.1/lib/liblwip.a(inet_chksum.o)
 .xtensa.info   0x0000000000000038        0x0 /home/wall/projects/IoT/mcu/platforms/espressif/esp8266_sdk/2.2.1/ESP8266_NONOS_SDK_2.2.1/lib/libwpa.a(ap_config.o)
 .xtensa.info   0x0000000000000038        0x0 /home/wall/projects/IoT/mcu/platforms/espressif/esp8266_sdk/2.2.1/ESP8266_NONOS_SDK_2.2.1/lib/libwpa.a(common.o)
 .xtensa.info   0x0000000000000038        0x0 /home/wall/projects/IoT/mcu/platforms/espressif/esp8266_sdk/2.2.1/ESP8266_NONOS_SDK_2.2.1/lib/libwpa.a(os_xtensa.o)
 .xtensa.info   0x0000000000000038        0x0 /home/wall/projects/IoT/mcu/platforms/espressif/esp8266_sdk/2.2.1/ESP8266_NONOS_SDK_2.2.1/lib/libwpa.a(wpa_auth.o)
 .xtensa.info   0x0000000000000038        0x0 /home/wall/projects/IoT/mcu/platforms/espressif/esp8266_sdk/2.2.1/ESP8266_NONOS_SDK_2.2.1/lib/libwpa.a(wpa_auth_ie.o)
 .xtensa.info   0x0000000000000038        0x0 /home/wall/projects/IoT/mcu/platforms/espressif/esp8266_sdk/2.2.1/ESP8266_NONOS_SDK_2.2.1/lib/libwpa.a(wpa.o)
 .xtensa.info   0x0000000000000038        0x0 /home/wall/projects/IoT/mcu/platforms/espressif/esp8266_sdk/2.2.1/ESP8266_NONOS_SDK_2.2.1/lib/libwpa.a(wpa_common.o)
 .xtensa.info   0x0000000000000038        0x0 /home/wall/projects/IoT/mcu/platforms/espressif/esp8266_sdk/2.2.1/ESP8266_NONOS_SDK_2.2.1/lib/libwpa.a(wpa_debug.o)
 .xtensa.info   0x0000000000000038        0x0 /home/wall/projects/IoT/mcu/platforms/espressif/esp8266_sdk/2.2.1/ESP8266_NONOS_SDK_2.2.1/lib/libwpa.a(wpa_ie.o)
 .xtensa.info   0x0000000000000038        0x0 /home/wall/projects/IoT/mcu/platforms/espressif/esp8266_sdk/2.2.1/ESP8266_NONOS_SDK_2.2.1/lib/libwpa.a(wpa_main.o)
 .xtensa.info   0x0000000000000038        0x0 /home/wall/projects/IoT/mcu/platforms/espressif/esp8266_sdk/2.2.1/ESP8266_NONOS_SDK_2.2.1/lib/libwpa.a(wpas_glue.o)
 .xtensa.info   0x0000000000000038        0x0 /home/wall/projects/IoT/mcu/platforms/espressif/esp8266_sdk/2.2.1/ESP8266_NONOS_SDK_2.2.1/lib/libcrypto.a(aes-wrap.o)
 .xtensa.info   0x0000000000000038        0x0 /home/wall/projects/IoT/mcu/platforms/espressif/esp8266_sdk/2.2.1/ESP8266_NONOS_SDK_2.2.1/lib/libcrypto.a(aes-internal-enc.o)
 .xtensa.info   0x0000000000000038        0x0 /home/wall/projects/IoT/mcu/platforms/espressif/esp8266_sdk/2.2.1/ESP8266_NONOS_SDK_2.2.1/lib/libcrypto.a(aes-internal.o)
 .xtensa.info   0x0000000000000038        0x0 /home/wall/projects/IoT/mcu/platforms/espressif/esp8266_sdk/2.2.1/ESP8266_NONOS_SDK_2.2.1/lib/libc.a(lib_a-isxdigit.o)
 .xtensa.info   0x0000000000000038        0x0 /home/wall/projects/IoT/mcu/platforms/espressif/esp8266_sdk/2.2.1/ESP8266_NONOS_SDK_2.2.1/lib/libc.a(lib_a-memchr.o)
 .xtensa.info   0x0000000000000038        0x0 /home/wall/projects/IoT/mcu/platforms/espressif/esp8266_sdk/2.2.1/ESP8266_NONOS_SDK_2.2.1/lib/libc.a(lib_a-ctype_.o)
 .xtensa.info   0x0000000000000038        0x0 /home/wall/projects/IoT/mcu/platforms/espressif/esp8266_sdk/2.2.1/ESP8266_NONOS_SDK_2.2.1/lib/libgcc.a(_modsi3.o)
 .xtensa.info   0x0000000000000038        0x0 /home/wall/projects/IoT/mcu/platforms/espressif/esp8266_sdk/2.2.1/ESP8266_NONOS_SDK_2.2.1/lib/libgcc.a(_ashrdi3.o)
 .xtensa.info   0x0000000000000038        0x0 /home/wall/projects/IoT/mcu/platforms/espressif/esp8266_sdk/2.2.1/ESP8266_NONOS_SDK_2.2.1/lib/libgcc.a(_divsf3.o)
 .xtensa.info   0x0000000000000038        0x0 /home/wall/projects/IoT/mcu/platforms/espressif/esp8266_sdk/2.2.1/ESP8266_NONOS_SDK_2.2.1/lib/libgcc.a(_fixsfsi.o)
 .xtensa.info   0x0000000000000038        0x0 /home/wall/projects/IoT/mcu/platforms/espressif/esp8266_sdk/2.2.1/ESP8266_NONOS_SDK_2.2.1/lib/libnet80211.a(ieee80211_crypto_tkip.o)
 .xtensa.info   0x0000000000000038        0x0 /home/wall/projects/IoT/mcu/platforms/espressif/esp8266_sdk/2.2.1/ESP8266_NONOS_SDK_2.2.1/lib/libnet80211.a(ieee80211_crypto_wep.o)

.xt.prop        0x0000000000000000    0x28a1c
 .xt.prop       0x0000000000000000       0x18 /home/wall/projects/IoT/mcu/platforms/espressif/esp8266_sdk/2.2.1/ESP8266_NONOS_SDK_2.2.1/lib/libmain.a(debug-vector.o)
 .xt.prop       0x0000000000000018       0x18 /home/wall/projects/IoT/mcu/platforms/espressif/esp8266_sdk/2.2.1/ESP8266_NONOS_SDK_2.2.1/lib/libmain.a(double-vector.o)
 .xt.prop       0x0000000000000030       0x18 /home/wall/projects/IoT/mcu/platforms/espressif/esp8266_sdk/2.2.1/ESP8266_NONOS_SDK_2.2.1/lib/libmain.a(kernel-vector.o)
 .xt.prop       0x0000000000000048       0x30 /home/wall/projects/IoT/mcu/platforms/espressif/esp8266_sdk/2.2.1/ESP8266_NONOS_SDK_2.2.1/lib/libmain.a(nmi-vector.o)
                                         0x3c (size before relaxing)
 .xt.prop       0x0000000000000078       0x30 /home/wall/projects/IoT/mcu/platforms/espressif/esp8266_sdk/2.2.1/ESP8266_NONOS_SDK_2.2.1/lib/libmain.a(user-vector.o)
                                         0x3c (size before relaxing)
 .xt.prop       0x00000000000000a8       0x18 /home/wall/projects/IoT/mcu/platforms/espressif/esp8266_sdk/2.2.1/ESP8266_NONOS_SDK_2.2.1/lib/libmain.a(vector.o)
 .xt.prop       0x00000000000000c0     0x1134 /home/wall/projects/IoT/mcu/platforms/espressif/esp8266_sdk/2.2.1/ESP8266_NONOS_SDK_2.2.1/lib/libmain.a(app_main.o)
                                       0x11e8 (size before relaxing)
 .xt.prop       0x00000000000011f4      0x5e8 /home/wall/projects/IoT/mcu/platforms/espressif/esp8266_sdk/2.2.1/ESP8266_NONOS_SDK_2.2.1/lib/libmain.a(ets_timer.o)
                                        0x630 (size before relaxing)
 .xt.prop       0x00000000000017dc      0x3e4 /home/wall/projects/IoT/mcu/platforms/espressif/esp8266_sdk/2.2.1/ESP8266_NONOS_SDK_2.2.1/lib/libmain.a(mem_manager.o)
                                        0x474 (size before relaxing)
 .xt.prop       0x0000000000001bc0     0x3e70 /home/wall/projects/IoT/mcu/platforms/espressif/esp8266_sdk/2.2.1/ESP8266_NONOS_SDK_2.2.1/lib/libmain.a(user_interface.o)
                                       0x402c (size before relaxing)
 .xt.prop       0x0000000000005a30      0x648 /home/wall/projects/IoT/mcu/platforms/espressif/esp8266_sdk/2.2.1/ESP8266_NONOS_SDK_2.2.1/lib/libmain.a(spi_flash.o)
                                        0x660 (size before relaxing)
 .xt.prop       0x0000000000006078      0x858 /home/wall/projects/IoT/mcu/platforms/espressif/esp8266_sdk/2.2.1/ESP8266_NONOS_SDK_2.2.1/lib/libmain.a(eagle_lib.o)
 .xt.prop       0x00000000000068d0      0x2c4 /home/wall/projects/IoT/mcu/platforms/espressif/esp8266_sdk/2.2.1/ESP8266_NONOS_SDK_2.2.1/lib/libmain.a(eagle_lwip_if.o)
                                        0x2f4 (size before relaxing)
 .xt.prop       0x0000000000006b94       0x6c /home/wall/projects/templates/Makefile/Makefile_generic/esp/esp8266/build/user/blinky/blinky.a(rf_init.o)
 .xt.prop       0x0000000000006c00       0xb4 /home/wall/projects/templates/Makefile/Makefile_generic/esp/esp8266/build/user/blinky/blinky.a(main.o)
 .xt.prop       0x0000000000006cb4       0x24 /home/wall/projects/IoT/mcu/platforms/espressif/esp8266_sdk/2.2.1/xtensa-lx106-elf/bin/../xtensa-lx106-elf/sysroot/usr/lib/libhal.a(int_asm--set_intclear.o)
 .xt.prop       0x0000000000006cd8      0x54c /home/wall/projects/IoT/mcu/platforms/espressif/esp8266_sdk/2.2.1/ESP8266_NONOS_SDK_2.2.1/lib/libpp.a(if_hwctrl.o)
                                        0x57c (size before relaxing)
 .xt.prop       0x0000000000007224     0x1500 /home/wall/projects/IoT/mcu/platforms/espressif/esp8266_sdk/2.2.1/ESP8266_NONOS_SDK_2.2.1/lib/libpp.a(lmac.o)
                                       0x1554 (size before relaxing)
 .xt.prop       0x0000000000008724     0x17f4 /home/wall/projects/IoT/mcu/platforms/espressif/esp8266_sdk/2.2.1/ESP8266_NONOS_SDK_2.2.1/lib/libpp.a(pm.o)
                                       0x18cc (size before relaxing)
 .xt.prop       0x0000000000009f18      0x9d8 /home/wall/projects/IoT/mcu/platforms/espressif/esp8266_sdk/2.2.1/ESP8266_NONOS_SDK_2.2.1/lib/libpp.a(pm_for_bcn_only_mode.o)
                                        0xa08 (size before relaxing)
 .xt.prop       0x000000000000a8f0     0x1c20 /home/wall/projects/IoT/mcu/platforms/espressif/esp8266_sdk/2.2.1/ESP8266_NONOS_SDK_2.2.1/lib/libpp.a(pp.o)
                                       0x1e3c (size before relaxing)
 .xt.prop       0x000000000000c510      0x1bc /home/wall/projects/IoT/mcu/platforms/espressif/esp8266_sdk/2.2.1/ESP8266_NONOS_SDK_2.2.1/lib/libpp.a(rate_control.o)
                                        0x1d4 (size before relaxing)
 .xt.prop       0x000000000000c6cc     0x1158 /home/wall/projects/IoT/mcu/platforms/espressif/esp8266_sdk/2.2.1/ESP8266_NONOS_SDK_2.2.1/lib/libpp.a(trc.o)
                                       0x11b8 (size before relaxing)
 .xt.prop       0x000000000000d824     0x13d4 /home/wall/projects/IoT/mcu/platforms/espressif/esp8266_sdk/2.2.1/ESP8266_NONOS_SDK_2.2.1/lib/libpp.a(wdev.o)
                                       0x14ac (size before relaxing)
 .xt.prop       0x000000000000ebf8      0x264 /home/wall/projects/IoT/mcu/platforms/espressif/esp8266_sdk/2.2.1/ESP8266_NONOS_SDK_2.2.1/lib/libpp.a(esf_buf.o)
                                        0x2e8 (size before relaxing)
 .xt.prop       0x000000000000ee5c      0x1d4 /home/wall/projects/IoT/mcu/platforms/espressif/esp8266_sdk/2.2.1/ESP8266_NONOS_SDK_2.2.1/lib/libphy.a(phy.o)
                                        0x1e0 (size before relaxing)
 .xt.prop       0x000000000000f030      0xdb0 /home/wall/projects/IoT/mcu/platforms/espressif/esp8266_sdk/2.2.1/ESP8266_NONOS_SDK_2.2.1/lib/libphy.a(phy_chip_v6_ana.o)
                                        0xdc8 (size before relaxing)
 .xt.prop       0x000000000000fde0     0x2124 /home/wall/projects/IoT/mcu/platforms/espressif/esp8266_sdk/2.2.1/ESP8266_NONOS_SDK_2.2.1/lib/libphy.a(phy_chip_v6.o)
                                       0x22e0 (size before relaxing)
 .xt.prop       0x0000000000011f04     0x10b0 /home/wall/projects/IoT/mcu/platforms/espressif/esp8266_sdk/2.2.1/ESP8266_NONOS_SDK_2.2.1/lib/libphy.a(phy_chip_v6_cal.o)
                                       0x1110 (size before relaxing)
 .xt.prop       0x0000000000012fb4       0x60 /home/wall/projects/IoT/mcu/platforms/espressif/esp8266_sdk/2.2.1/ESP8266_NONOS_SDK_2.2.1/lib/libphy.a(phy_chip_v6_unused.o)
                                         0x6c (size before relaxing)
 .xt.prop       0x0000000000013014      0x8f4 /home/wall/projects/IoT/mcu/platforms/espressif/esp8266_sdk/2.2.1/ESP8266_NONOS_SDK_2.2.1/lib/libphy.a(phy_sleep.o)
                                        0x948 (size before relaxing)
 .xt.prop       0x0000000000013908      0x4a4 /home/wall/projects/IoT/mcu/platforms/espressif/esp8266_sdk/2.2.1/ESP8266_NONOS_SDK_2.2.1/lib/libnet80211.a(ieee80211.o)
                                        0x4c8 (size before relaxing)
 .xt.prop       0x0000000000013dac      0x15c /home/wall/projects/IoT/mcu/platforms/espressif/esp8266_sdk/2.2.1/ESP8266_NONOS_SDK_2.2.1/lib/libnet80211.a(ieee80211_crypto.o)
 .xt.prop       0x0000000000013f08       0x48 /home/wall/projects/IoT/mcu/platforms/espressif/esp8266_sdk/2.2.1/ESP8266_NONOS_SDK_2.2.1/lib/libnet80211.a(ieee80211_ets.o)
 .xt.prop       0x0000000000013f50      0xf78 /home/wall/projects/IoT/mcu/platforms/espressif/esp8266_sdk/2.2.1/ESP8266_NONOS_SDK_2.2.1/lib/libnet80211.a(ieee80211_hostap.o)
                                       0x1080 (size before relaxing)
 .xt.prop       0x0000000000014ec8      0x6b4 /home/wall/projects/IoT/mcu/platforms/espressif/esp8266_sdk/2.2.1/ESP8266_NONOS_SDK_2.2.1/lib/libnet80211.a(ieee80211_ht.o)
                                        0x6c0 (size before relaxing)
 .xt.prop       0x000000000001557c      0x900 /home/wall/projects/IoT/mcu/platforms/espressif/esp8266_sdk/2.2.1/ESP8266_NONOS_SDK_2.2.1/lib/libnet80211.a(ieee80211_input.o)
                                        0x90c (size before relaxing)
 .xt.prop       0x0000000000015e7c      0x468 /home/wall/projects/IoT/mcu/platforms/espressif/esp8266_sdk/2.2.1/ESP8266_NONOS_SDK_2.2.1/lib/libnet80211.a(ieee80211_mesh_quick.o)
 .xt.prop       0x00000000000162e4     0x12a8 /home/wall/projects/IoT/mcu/platforms/espressif/esp8266_sdk/2.2.1/ESP8266_NONOS_SDK_2.2.1/lib/libnet80211.a(ieee80211_output.o)
                                       0x12b4 (size before relaxing)
 .xt.prop       0x000000000001758c      0x108 /home/wall/projects/IoT/mcu/platforms/espressif/esp8266_sdk/2.2.1/ESP8266_NONOS_SDK_2.2.1/lib/libnet80211.a(ieee80211_phy.o)
 .xt.prop       0x0000000000017694      0x1c8 /home/wall/projects/IoT/mcu/platforms/espressif/esp8266_sdk/2.2.1/ESP8266_NONOS_SDK_2.2.1/lib/libnet80211.a(ieee80211_power.o)
 .xt.prop       0x000000000001785c      0x12c /home/wall/projects/IoT/mcu/platforms/espressif/esp8266_sdk/2.2.1/ESP8266_NONOS_SDK_2.2.1/lib/libnet80211.a(ieee80211_proto.o)
                                        0x138 (size before relaxing)
 .xt.prop       0x0000000000017988      0x1e0 /home/wall/projects/IoT/mcu/platforms/espressif/esp8266_sdk/2.2.1/ESP8266_NONOS_SDK_2.2.1/lib/libnet80211.a(ieee80211_regdomain.o)
                                        0x1ec (size before relaxing)
 .xt.prop       0x0000000000017b68      0x120 /home/wall/projects/IoT/mcu/platforms/espressif/esp8266_sdk/2.2.1/ESP8266_NONOS_SDK_2.2.1/lib/libnet80211.a(ieee80211_rfid.o)
 .xt.prop       0x0000000000017c88      0xe58 /home/wall/projects/IoT/mcu/platforms/espressif/esp8266_sdk/2.2.1/ESP8266_NONOS_SDK_2.2.1/lib/libnet80211.a(ieee80211_scan.o)
                                        0xf0c (size before relaxing)
 .xt.prop       0x0000000000018ae0      0xab0 /home/wall/projects/IoT/mcu/platforms/espressif/esp8266_sdk/2.2.1/ESP8266_NONOS_SDK_2.2.1/lib/libnet80211.a(ieee80211_sta.o)
                                        0xaec (size before relaxing)
 .xt.prop       0x0000000000019590      0x2f4 /home/wall/projects/IoT/mcu/platforms/espressif/esp8266_sdk/2.2.1/ESP8266_NONOS_SDK_2.2.1/lib/libnet80211.a(wl_chm.o)
                                        0x300 (size before relaxing)
 .xt.prop       0x0000000000019884     0x1350 /home/wall/projects/IoT/mcu/platforms/espressif/esp8266_sdk/2.2.1/ESP8266_NONOS_SDK_2.2.1/lib/libnet80211.a(wl_cnx.o)
                                       0x13c8 (size before relaxing)
 .xt.prop       0x000000000001abd4      0x33c /home/wall/projects/IoT/mcu/platforms/espressif/esp8266_sdk/2.2.1/ESP8266_NONOS_SDK_2.2.1/lib/libnet80211.a(ieee80211_action.o)
 .xt.prop       0x000000000001af10      0x480 /home/wall/projects/IoT/mcu/platforms/espressif/esp8266_sdk/2.2.1/ESP8266_NONOS_SDK_2.2.1/lib/libnet80211.a(ieee80211_action_vendor.o)
                                        0x4c8 (size before relaxing)
 .xt.prop       0x000000000001b390       0xcc /home/wall/projects/IoT/mcu/platforms/espressif/esp8266_sdk/2.2.1/ESP8266_NONOS_SDK_2.2.1/lib/libnet80211.a(ieee80211_crypto_ccmp.o)
                                         0xd8 (size before relaxing)
 .xt.prop       0x000000000001b45c      0x120 /home/wall/projects/IoT/mcu/platforms/espressif/esp8266_sdk/2.2.1/ESP8266_NONOS_SDK_2.2.1/lib/libnet80211.a(ieee80211_ie_vendor.o)
 .xt.prop       0x000000000001b57c      0xc90 /home/wall/projects/IoT/mcu/platforms/espressif/esp8266_sdk/2.2.1/ESP8266_NONOS_SDK_2.2.1/lib/liblwip.a(dhcp.o)
 .xt.prop       0x000000000001c20c      0x90c /home/wall/projects/IoT/mcu/platforms/espressif/esp8266_sdk/2.2.1/ESP8266_NONOS_SDK_2.2.1/lib/liblwip.a(dhcpserver.o)
                                        0x918 (size before relaxing)
 .xt.prop       0x000000000001cb18      0x420 /home/wall/projects/IoT/mcu/platforms/espressif/esp8266_sdk/2.2.1/ESP8266_NONOS_SDK_2.2.1/lib/liblwip.a(dns.o)
 .xt.prop       0x000000000001cf38     0x1098 /home/wall/projects/IoT/mcu/platforms/espressif/esp8266_sdk/2.2.1/ESP8266_NONOS_SDK_2.2.1/lib/liblwip.a(espconn_tcp.o)
                                       0x10bc (size before relaxing)
 .xt.prop       0x000000000001dfd0      0x5ac /home/wall/projects/IoT/mcu/platforms/espressif/esp8266_sdk/2.2.1/ESP8266_NONOS_SDK_2.2.1/lib/liblwip.a(etharp.o)
 .xt.prop       0x000000000001e57c       0x24 /home/wall/projects/IoT/mcu/platforms/espressif/esp8266_sdk/2.2.1/ESP8266_NONOS_SDK_2.2.1/lib/liblwip.a(init.o)
 .xt.prop       0x000000000001e5a0      0x414 /home/wall/projects/IoT/mcu/platforms/espressif/esp8266_sdk/2.2.1/ESP8266_NONOS_SDK_2.2.1/lib/liblwip.a(ip.o)
 .xt.prop       0x000000000001e9b4      0x324 /home/wall/projects/IoT/mcu/platforms/espressif/esp8266_sdk/2.2.1/ESP8266_NONOS_SDK_2.2.1/lib/liblwip.a(ip_addr.o)
                                        0x330 (size before relaxing)
 .xt.prop       0x000000000001ecd8       0x18 /home/wall/projects/IoT/mcu/platforms/espressif/esp8266_sdk/2.2.1/ESP8266_NONOS_SDK_2.2.1/lib/liblwip.a(memp.o)
 .xt.prop       0x000000000001ecf0      0x390 /home/wall/projects/IoT/mcu/platforms/espressif/esp8266_sdk/2.2.1/ESP8266_NONOS_SDK_2.2.1/lib/liblwip.a(netif.o)
 .xt.prop       0x000000000001f080      0x840 /home/wall/projects/IoT/mcu/platforms/espressif/esp8266_sdk/2.2.1/ESP8266_NONOS_SDK_2.2.1/lib/liblwip.a(pbuf.o)
 .xt.prop       0x000000000001f8c0      0x258 /home/wall/projects/IoT/mcu/platforms/espressif/esp8266_sdk/2.2.1/ESP8266_NONOS_SDK_2.2.1/lib/liblwip.a(raw.o)
 .xt.prop       0x000000000001fb18      0xcb4 /home/wall/projects/IoT/mcu/platforms/espressif/esp8266_sdk/2.2.1/ESP8266_NONOS_SDK_2.2.1/lib/liblwip.a(tcp.o)
 .xt.prop       0x00000000000207cc      0xbf4 /home/wall/projects/IoT/mcu/platforms/espressif/esp8266_sdk/2.2.1/ESP8266_NONOS_SDK_2.2.1/lib/liblwip.a(tcp_in.o)
 .xt.prop       0x00000000000213c0      0x78c /home/wall/projects/IoT/mcu/platforms/espressif/esp8266_sdk/2.2.1/ESP8266_NONOS_SDK_2.2.1/lib/liblwip.a(tcp_out.o)
 .xt.prop       0x0000000000021b4c      0x330 /home/wall/projects/IoT/mcu/platforms/espressif/esp8266_sdk/2.2.1/ESP8266_NONOS_SDK_2.2.1/lib/liblwip.a(timers.o)
 .xt.prop       0x0000000000021e7c      0x4e0 /home/wall/projects/IoT/mcu/platforms/espressif/esp8266_sdk/2.2.1/ESP8266_NONOS_SDK_2.2.1/lib/liblwip.a(udp.o)
 .xt.prop       0x000000000002235c     0x1068 /home/wall/projects/IoT/mcu/platforms/espressif/esp8266_sdk/2.2.1/ESP8266_NONOS_SDK_2.2.1/lib/liblwip.a(espconn.o)
 .xt.prop       0x00000000000233c4      0x444 /home/wall/projects/IoT/mcu/platforms/espressif/esp8266_sdk/2.2.1/ESP8266_NONOS_SDK_2.2.1/lib/liblwip.a(espconn_buf.o)
                                        0x450 (size before relaxing)
 .xt.prop       0x0000000000023808      0x300 /home/wall/projects/IoT/mcu/platforms/espressif/esp8266_sdk/2.2.1/ESP8266_NONOS_SDK_2.2.1/lib/liblwip.a(espconn_udp.o)
 .xt.prop       0x0000000000023b08       0xc0 /home/wall/projects/IoT/mcu/platforms/espressif/esp8266_sdk/2.2.1/ESP8266_NONOS_SDK_2.2.1/lib/liblwip.a(icmp.o)
 .xt.prop       0x0000000000023bc8      0x4f8 /home/wall/projects/IoT/mcu/platforms/espressif/esp8266_sdk/2.2.1/ESP8266_NONOS_SDK_2.2.1/lib/liblwip.a(igmp.o)
 .xt.prop       0x00000000000240c0      0x180 /home/wall/projects/IoT/mcu/platforms/espressif/esp8266_sdk/2.2.1/ESP8266_NONOS_SDK_2.2.1/lib/liblwip.a(inet_chksum.o)
 .xt.prop       0x0000000000024240      0x2f4 /home/wall/projects/IoT/mcu/platforms/espressif/esp8266_sdk/2.2.1/ESP8266_NONOS_SDK_2.2.1/lib/libwpa.a(ap_config.o)
                                        0x300 (size before relaxing)
 .xt.prop       0x0000000000024534      0x234 /home/wall/projects/IoT/mcu/platforms/espressif/esp8266_sdk/2.2.1/ESP8266_NONOS_SDK_2.2.1/lib/libwpa.a(common.o)
                                        0x240 (size before relaxing)
 .xt.prop       0x0000000000024768      0x108 /home/wall/projects/IoT/mcu/platforms/espressif/esp8266_sdk/2.2.1/ESP8266_NONOS_SDK_2.2.1/lib/libwpa.a(os_xtensa.o)
                                        0x114 (size before relaxing)
 .xt.prop       0x0000000000024870     0x17d0 /home/wall/projects/IoT/mcu/platforms/espressif/esp8266_sdk/2.2.1/ESP8266_NONOS_SDK_2.2.1/lib/libwpa.a(wpa_auth.o)
                                       0x17f4 (size before relaxing)
 .xt.prop       0x0000000000026040      0x480 /home/wall/projects/IoT/mcu/platforms/espressif/esp8266_sdk/2.2.1/ESP8266_NONOS_SDK_2.2.1/lib/libwpa.a(wpa_auth_ie.o)
                                        0x48c (size before relaxing)
 .xt.prop       0x00000000000264c0      0xe4c /home/wall/projects/IoT/mcu/platforms/espressif/esp8266_sdk/2.2.1/ESP8266_NONOS_SDK_2.2.1/lib/libwpa.a(wpa.o)
                                        0xe7c (size before relaxing)
 .xt.prop       0x000000000002730c      0x7a4 /home/wall/projects/IoT/mcu/platforms/espressif/esp8266_sdk/2.2.1/ESP8266_NONOS_SDK_2.2.1/lib/libwpa.a(wpa_common.o)
 .xt.prop       0x0000000000027ab0       0xd8 /home/wall/projects/IoT/mcu/platforms/espressif/esp8266_sdk/2.2.1/ESP8266_NONOS_SDK_2.2.1/lib/libwpa.a(wpa_debug.o)
 .xt.prop       0x0000000000027b88      0x384 /home/wall/projects/IoT/mcu/platforms/espressif/esp8266_sdk/2.2.1/ESP8266_NONOS_SDK_2.2.1/lib/libwpa.a(wpa_ie.o)
 .xt.prop       0x0000000000027f0c      0x384 /home/wall/projects/IoT/mcu/platforms/espressif/esp8266_sdk/2.2.1/ESP8266_NONOS_SDK_2.2.1/lib/libwpa.a(wpa_main.o)
                                        0x390 (size before relaxing)
 .xt.prop       0x0000000000028290      0x12c /home/wall/projects/IoT/mcu/platforms/espressif/esp8266_sdk/2.2.1/ESP8266_NONOS_SDK_2.2.1/lib/libwpa.a(wpas_glue.o)
 .xt.prop       0x00000000000283bc       0x6c /home/wall/projects/IoT/mcu/platforms/espressif/esp8266_sdk/2.2.1/ESP8266_NONOS_SDK_2.2.1/lib/libcrypto.a(aes-wrap.o)
 .xt.prop       0x0000000000028428       0xe4 /home/wall/projects/IoT/mcu/platforms/espressif/esp8266_sdk/2.2.1/ESP8266_NONOS_SDK_2.2.1/lib/libcrypto.a(aes-internal-enc.o)
                                         0xf0 (size before relaxing)
 .xt.prop       0x000000000002850c       0xb4 /home/wall/projects/IoT/mcu/platforms/espressif/esp8266_sdk/2.2.1/ESP8266_NONOS_SDK_2.2.1/lib/libcrypto.a(aes-internal.o)
 .xt.prop       0x00000000000285c0       0x30 /home/wall/projects/IoT/mcu/platforms/espressif/esp8266_sdk/2.2.1/ESP8266_NONOS_SDK_2.2.1/lib/libc.a(lib_a-isxdigit.o)
 .xt.prop       0x00000000000285f0       0x48 /home/wall/projects/IoT/mcu/platforms/espressif/esp8266_sdk/2.2.1/ESP8266_NONOS_SDK_2.2.1/lib/libc.a(lib_a-memchr.o)
 .xt.prop       0x0000000000028638        0xc /home/wall/projects/IoT/mcu/platforms/espressif/esp8266_sdk/2.2.1/ESP8266_NONOS_SDK_2.2.1/lib/libc.a(lib_a-ctype_.o)
 .xt.prop       0x0000000000028644       0x84 /home/wall/projects/IoT/mcu/platforms/espressif/esp8266_sdk/2.2.1/ESP8266_NONOS_SDK_2.2.1/lib/libgcc.a(_modsi3.o)
 .xt.prop       0x00000000000286c8       0x3c /home/wall/projects/IoT/mcu/platforms/espressif/esp8266_sdk/2.2.1/ESP8266_NONOS_SDK_2.2.1/lib/libgcc.a(_ashrdi3.o)
 .xt.prop       0x0000000000028704      0x168 /home/wall/projects/IoT/mcu/platforms/espressif/esp8266_sdk/2.2.1/ESP8266_NONOS_SDK_2.2.1/lib/libgcc.a(_divsf3.o)
 .xt.prop       0x000000000002886c       0x60 /home/wall/projects/IoT/mcu/platforms/espressif/esp8266_sdk/2.2.1/ESP8266_NONOS_SDK_2.2.1/lib/libgcc.a(_fixsfsi.o)
                                         0x6c (size before relaxing)
 .xt.prop       0x00000000000288cc       0xe4 /home/wall/projects/IoT/mcu/platforms/espressif/esp8266_sdk/2.2.1/ESP8266_NONOS_SDK_2.2.1/lib/libnet80211.a(ieee80211_crypto_tkip.o)
                                         0xfc (size before relaxing)
 .xt.prop       0x00000000000289b0       0x6c /home/wall/projects/IoT/mcu/platforms/espressif/esp8266_sdk/2.2.1/ESP8266_NONOS_SDK_2.2.1/lib/libnet80211.a(ieee80211_crypto_wep.o)
                                         0x78 (size before relaxing)

.xt.lit         0x0000000000000000     0x1348
 .xt.lit        0x0000000000000000        0x8 /home/wall/projects/IoT/mcu/platforms/espressif/esp8266_sdk/2.2.1/ESP8266_NONOS_SDK_2.2.1/lib/libmain.a(nmi-vector.o)
                                         0x10 (size before relaxing)
 .xt.lit        0x0000000000000008        0x8 /home/wall/projects/IoT/mcu/platforms/espressif/esp8266_sdk/2.2.1/ESP8266_NONOS_SDK_2.2.1/lib/libmain.a(user-vector.o)
                                         0x10 (size before relaxing)
 .xt.lit        0x0000000000000010        0x8 /home/wall/projects/IoT/mcu/platforms/espressif/esp8266_sdk/2.2.1/ESP8266_NONOS_SDK_2.2.1/lib/libmain.a(vector.o)
 .xt.lit        0x0000000000000018       0xa8 /home/wall/projects/IoT/mcu/platforms/espressif/esp8266_sdk/2.2.1/ESP8266_NONOS_SDK_2.2.1/lib/libmain.a(app_main.o)
                                         0xb0 (size before relaxing)
 .xt.lit        0x00000000000000c0       0x48 /home/wall/projects/IoT/mcu/platforms/espressif/esp8266_sdk/2.2.1/ESP8266_NONOS_SDK_2.2.1/lib/libmain.a(ets_timer.o)
 .xt.lit        0x0000000000000108       0x40 /home/wall/projects/IoT/mcu/platforms/espressif/esp8266_sdk/2.2.1/ESP8266_NONOS_SDK_2.2.1/lib/libmain.a(mem_manager.o)
                                         0x60 (size before relaxing)
 .xt.lit        0x0000000000000148      0x230 /home/wall/projects/IoT/mcu/platforms/espressif/esp8266_sdk/2.2.1/ESP8266_NONOS_SDK_2.2.1/lib/libmain.a(user_interface.o)
                                        0x508 (size before relaxing)
 .xt.lit        0x0000000000000378       0x88 /home/wall/projects/IoT/mcu/platforms/espressif/esp8266_sdk/2.2.1/ESP8266_NONOS_SDK_2.2.1/lib/libmain.a(spi_flash.o)
 .xt.lit        0x0000000000000400       0x10 /home/wall/projects/IoT/mcu/platforms/espressif/esp8266_sdk/2.2.1/ESP8266_NONOS_SDK_2.2.1/lib/libmain.a(eagle_lib.o)
                                         0x18 (size before relaxing)
 .xt.lit        0x0000000000000410       0x10 /home/wall/projects/IoT/mcu/platforms/espressif/esp8266_sdk/2.2.1/ESP8266_NONOS_SDK_2.2.1/lib/libmain.a(eagle_lwip_if.o)
                                         0x30 (size before relaxing)
 .xt.lit        0x0000000000000420       0x10 /home/wall/projects/templates/Makefile/Makefile_generic/esp/esp8266/build/user/blinky/blinky.a(rf_init.o)
 .xt.lit        0x0000000000000430       0x18 /home/wall/projects/templates/Makefile/Makefile_generic/esp/esp8266/build/user/blinky/blinky.a(main.o)
 .xt.lit        0x0000000000000448       0x38 /home/wall/projects/IoT/mcu/platforms/espressif/esp8266_sdk/2.2.1/ESP8266_NONOS_SDK_2.2.1/lib/libpp.a(if_hwctrl.o)
                                         0xa8 (size before relaxing)
 .xt.lit        0x0000000000000480       0x70 /home/wall/projects/IoT/mcu/platforms/espressif/esp8266_sdk/2.2.1/ESP8266_NONOS_SDK_2.2.1/lib/libpp.a(lmac.o)
                                        0x130 (size before relaxing)
 .xt.lit        0x00000000000004f0       0xe0 /home/wall/projects/IoT/mcu/platforms/espressif/esp8266_sdk/2.2.1/ESP8266_NONOS_SDK_2.2.1/lib/libpp.a(pm.o)
                                        0x1d8 (size before relaxing)
 .xt.lit        0x00000000000005d0       0x48 /home/wall/projects/IoT/mcu/platforms/espressif/esp8266_sdk/2.2.1/ESP8266_NONOS_SDK_2.2.1/lib/libpp.a(pm_for_bcn_only_mode.o)
                                         0xa8 (size before relaxing)
 .xt.lit        0x0000000000000618       0xd8 /home/wall/projects/IoT/mcu/platforms/espressif/esp8266_sdk/2.2.1/ESP8266_NONOS_SDK_2.2.1/lib/libpp.a(pp.o)
                                        0x1d8 (size before relaxing)
 .xt.lit        0x00000000000006f0       0x18 /home/wall/projects/IoT/mcu/platforms/espressif/esp8266_sdk/2.2.1/ESP8266_NONOS_SDK_2.2.1/lib/libpp.a(rate_control.o)
                                         0x38 (size before relaxing)
 .xt.lit        0x0000000000000708       0x68 /home/wall/projects/IoT/mcu/platforms/espressif/esp8266_sdk/2.2.1/ESP8266_NONOS_SDK_2.2.1/lib/libpp.a(trc.o)
                                         0xa8 (size before relaxing)
 .xt.lit        0x0000000000000770       0xf0 /home/wall/projects/IoT/mcu/platforms/espressif/esp8266_sdk/2.2.1/ESP8266_NONOS_SDK_2.2.1/lib/libpp.a(wdev.o)
                                        0x1b8 (size before relaxing)
 .xt.lit        0x0000000000000860       0x18 /home/wall/projects/IoT/mcu/platforms/espressif/esp8266_sdk/2.2.1/ESP8266_NONOS_SDK_2.2.1/lib/libpp.a(esf_buf.o)
                                         0x20 (size before relaxing)
 .xt.lit        0x0000000000000878       0x10 /home/wall/projects/IoT/mcu/platforms/espressif/esp8266_sdk/2.2.1/ESP8266_NONOS_SDK_2.2.1/lib/libphy.a(phy.o)
                                         0x68 (size before relaxing)
 .xt.lit        0x0000000000000888       0x90 /home/wall/projects/IoT/mcu/platforms/espressif/esp8266_sdk/2.2.1/ESP8266_NONOS_SDK_2.2.1/lib/libphy.a(phy_chip_v6_ana.o)
                                         0xc8 (size before relaxing)
 .xt.lit        0x0000000000000918      0x160 /home/wall/projects/IoT/mcu/platforms/espressif/esp8266_sdk/2.2.1/ESP8266_NONOS_SDK_2.2.1/lib/libphy.a(phy_chip_v6.o)
                                        0x250 (size before relaxing)
 .xt.lit        0x0000000000000a78       0x80 /home/wall/projects/IoT/mcu/platforms/espressif/esp8266_sdk/2.2.1/ESP8266_NONOS_SDK_2.2.1/lib/libphy.a(phy_chip_v6_cal.o)
                                         0xf0 (size before relaxing)
 .xt.lit        0x0000000000000af8       0x78 /home/wall/projects/IoT/mcu/platforms/espressif/esp8266_sdk/2.2.1/ESP8266_NONOS_SDK_2.2.1/lib/libphy.a(phy_sleep.o)
                                         0xd8 (size before relaxing)
 .xt.lit        0x0000000000000b70       0x48 /home/wall/projects/IoT/mcu/platforms/espressif/esp8266_sdk/2.2.1/ESP8266_NONOS_SDK_2.2.1/lib/libnet80211.a(ieee80211.o)
                                         0x50 (size before relaxing)
 .xt.lit        0x0000000000000bb8        0x0 /home/wall/projects/IoT/mcu/platforms/espressif/esp8266_sdk/2.2.1/ESP8266_NONOS_SDK_2.2.1/lib/libnet80211.a(ieee80211_crypto.o)
                                         0x10 (size before relaxing)
 .xt.lit        0x0000000000000bb8        0x8 /home/wall/projects/IoT/mcu/platforms/espressif/esp8266_sdk/2.2.1/ESP8266_NONOS_SDK_2.2.1/lib/libnet80211.a(ieee80211_ets.o)
 .xt.lit        0x0000000000000bc0       0x78 /home/wall/projects/IoT/mcu/platforms/espressif/esp8266_sdk/2.2.1/ESP8266_NONOS_SDK_2.2.1/lib/libnet80211.a(ieee80211_hostap.o)
                                         0x88 (size before relaxing)
 .xt.lit        0x0000000000000c38       0x50 /home/wall/projects/IoT/mcu/platforms/espressif/esp8266_sdk/2.2.1/ESP8266_NONOS_SDK_2.2.1/lib/libnet80211.a(ieee80211_ht.o)
                                         0x90 (size before relaxing)
 .xt.lit        0x0000000000000c88       0x38 /home/wall/projects/IoT/mcu/platforms/espressif/esp8266_sdk/2.2.1/ESP8266_NONOS_SDK_2.2.1/lib/libnet80211.a(ieee80211_input.o)
                                         0x60 (size before relaxing)
 .xt.lit        0x0000000000000cc0       0x18 /home/wall/projects/IoT/mcu/platforms/espressif/esp8266_sdk/2.2.1/ESP8266_NONOS_SDK_2.2.1/lib/libnet80211.a(ieee80211_mesh_quick.o)
                                         0x28 (size before relaxing)
 .xt.lit        0x0000000000000cd8       0x50 /home/wall/projects/IoT/mcu/platforms/espressif/esp8266_sdk/2.2.1/ESP8266_NONOS_SDK_2.2.1/lib/libnet80211.a(ieee80211_output.o)
                                         0xb0 (size before relaxing)
 .xt.lit        0x0000000000000d28        0x8 /home/wall/projects/IoT/mcu/platforms/espressif/esp8266_sdk/2.2.1/ESP8266_NONOS_SDK_2.2.1/lib/libnet80211.a(ieee80211_phy.o)
                                         0x18 (size before relaxing)
 .xt.lit        0x0000000000000d30        0x8 /home/wall/projects/IoT/mcu/platforms/espressif/esp8266_sdk/2.2.1/ESP8266_NONOS_SDK_2.2.1/lib/libnet80211.a(ieee80211_power.o)
                                         0x28 (size before relaxing)
 .xt.lit        0x0000000000000d38       0x18 /home/wall/projects/IoT/mcu/platforms/espressif/esp8266_sdk/2.2.1/ESP8266_NONOS_SDK_2.2.1/lib/libnet80211.a(ieee80211_proto.o)
 .xt.lit        0x0000000000000d50       0x10 /home/wall/projects/IoT/mcu/platforms/espressif/esp8266_sdk/2.2.1/ESP8266_NONOS_SDK_2.2.1/lib/libnet80211.a(ieee80211_regdomain.o)
                                         0x38 (size before relaxing)
 .xt.lit        0x0000000000000d60       0x10 /home/wall/projects/IoT/mcu/platforms/espressif/esp8266_sdk/2.2.1/ESP8266_NONOS_SDK_2.2.1/lib/libnet80211.a(ieee80211_rfid.o)
                                         0x30 (size before relaxing)
 .xt.lit        0x0000000000000d70       0x58 /home/wall/projects/IoT/mcu/platforms/espressif/esp8266_sdk/2.2.1/ESP8266_NONOS_SDK_2.2.1/lib/libnet80211.a(ieee80211_scan.o)
                                        0x108 (size before relaxing)
 .xt.lit        0x0000000000000dc8       0x48 /home/wall/projects/IoT/mcu/platforms/espressif/esp8266_sdk/2.2.1/ESP8266_NONOS_SDK_2.2.1/lib/libnet80211.a(ieee80211_sta.o)
                                         0x68 (size before relaxing)
 .xt.lit        0x0000000000000e10       0x20 /home/wall/projects/IoT/mcu/platforms/espressif/esp8266_sdk/2.2.1/ESP8266_NONOS_SDK_2.2.1/lib/libnet80211.a(wl_chm.o)
                                         0x68 (size before relaxing)
 .xt.lit        0x0000000000000e30       0xa8 /home/wall/projects/IoT/mcu/platforms/espressif/esp8266_sdk/2.2.1/ESP8266_NONOS_SDK_2.2.1/lib/libnet80211.a(wl_cnx.o)
                                        0x160 (size before relaxing)
 .xt.lit        0x0000000000000ed8       0x20 /home/wall/projects/IoT/mcu/platforms/espressif/esp8266_sdk/2.2.1/ESP8266_NONOS_SDK_2.2.1/lib/libnet80211.a(ieee80211_action.o)
                                         0x30 (size before relaxing)
 .xt.lit        0x0000000000000ef8       0x20 /home/wall/projects/IoT/mcu/platforms/espressif/esp8266_sdk/2.2.1/ESP8266_NONOS_SDK_2.2.1/lib/libnet80211.a(ieee80211_action_vendor.o)
                                         0x60 (size before relaxing)
 .xt.lit        0x0000000000000f18        0x0 /home/wall/projects/IoT/mcu/platforms/espressif/esp8266_sdk/2.2.1/ESP8266_NONOS_SDK_2.2.1/lib/libnet80211.a(ieee80211_crypto_ccmp.o)
                                         0x10 (size before relaxing)
 .xt.lit        0x0000000000000f18        0x8 /home/wall/projects/IoT/mcu/platforms/espressif/esp8266_sdk/2.2.1/ESP8266_NONOS_SDK_2.2.1/lib/libnet80211.a(ieee80211_ie_vendor.o)
                                         0x40 (size before relaxing)
 .xt.lit        0x0000000000000f20       0x38 /home/wall/projects/IoT/mcu/platforms/espressif/esp8266_sdk/2.2.1/ESP8266_NONOS_SDK_2.2.1/lib/liblwip.a(dhcp.o)
                                         0xa8 (size before relaxing)
 .xt.lit        0x0000000000000f58       0x30 /home/wall/projects/IoT/mcu/platforms/espressif/esp8266_sdk/2.2.1/ESP8266_NONOS_SDK_2.2.1/lib/liblwip.a(dhcpserver.o)
                                         0x70 (size before relaxing)
 .xt.lit        0x0000000000000f88       0x20 /home/wall/projects/IoT/mcu/platforms/espressif/esp8266_sdk/2.2.1/ESP8266_NONOS_SDK_2.2.1/lib/liblwip.a(dns.o)
                                         0x40 (size before relaxing)
 .xt.lit        0x0000000000000fa8       0x78 /home/wall/projects/IoT/mcu/platforms/espressif/esp8266_sdk/2.2.1/ESP8266_NONOS_SDK_2.2.1/lib/liblwip.a(espconn_tcp.o)
                                         0xc0 (size before relaxing)
 .xt.lit        0x0000000000001020       0x28 /home/wall/projects/IoT/mcu/platforms/espressif/esp8266_sdk/2.2.1/ESP8266_NONOS_SDK_2.2.1/lib/liblwip.a(etharp.o)
                                         0x60 (size before relaxing)
 .xt.lit        0x0000000000001048        0x8 /home/wall/projects/IoT/mcu/platforms/espressif/esp8266_sdk/2.2.1/ESP8266_NONOS_SDK_2.2.1/lib/liblwip.a(init.o)
 .xt.lit        0x0000000000001050       0x18 /home/wall/projects/IoT/mcu/platforms/espressif/esp8266_sdk/2.2.1/ESP8266_NONOS_SDK_2.2.1/lib/liblwip.a(ip.o)
                                         0x20 (size before relaxing)
 .xt.lit        0x0000000000001068       0x10 /home/wall/projects/IoT/mcu/platforms/espressif/esp8266_sdk/2.2.1/ESP8266_NONOS_SDK_2.2.1/lib/liblwip.a(ip_addr.o)
                                         0x20 (size before relaxing)
 .xt.lit        0x0000000000001078        0x8 /home/wall/projects/IoT/mcu/platforms/espressif/esp8266_sdk/2.2.1/ESP8266_NONOS_SDK_2.2.1/lib/liblwip.a(netif.o)
                                         0x40 (size before relaxing)
 .xt.lit        0x0000000000001080       0x10 /home/wall/projects/IoT/mcu/platforms/espressif/esp8266_sdk/2.2.1/ESP8266_NONOS_SDK_2.2.1/lib/liblwip.a(pbuf.o)
                                         0x48 (size before relaxing)
 .xt.lit        0x0000000000001090        0x8 /home/wall/projects/IoT/mcu/platforms/espressif/esp8266_sdk/2.2.1/ESP8266_NONOS_SDK_2.2.1/lib/liblwip.a(raw.o)
                                         0x20 (size before relaxing)
 .xt.lit        0x0000000000001098       0x38 /home/wall/projects/IoT/mcu/platforms/espressif/esp8266_sdk/2.2.1/ESP8266_NONOS_SDK_2.2.1/lib/liblwip.a(tcp.o)
                                         0xa8 (size before relaxing)
 .xt.lit        0x00000000000010d0       0x18 /home/wall/projects/IoT/mcu/platforms/espressif/esp8266_sdk/2.2.1/ESP8266_NONOS_SDK_2.2.1/lib/liblwip.a(tcp_in.o)
                                         0x20 (size before relaxing)
 .xt.lit        0x00000000000010e8       0x10 /home/wall/projects/IoT/mcu/platforms/espressif/esp8266_sdk/2.2.1/ESP8266_NONOS_SDK_2.2.1/lib/liblwip.a(tcp_out.o)
                                         0x50 (size before relaxing)
 .xt.lit        0x00000000000010f8       0x38 /home/wall/projects/IoT/mcu/platforms/espressif/esp8266_sdk/2.2.1/ESP8266_NONOS_SDK_2.2.1/lib/liblwip.a(timers.o)
                                         0x60 (size before relaxing)
 .xt.lit        0x0000000000001130       0x10 /home/wall/projects/IoT/mcu/platforms/espressif/esp8266_sdk/2.2.1/ESP8266_NONOS_SDK_2.2.1/lib/liblwip.a(udp.o)
                                         0x38 (size before relaxing)
 .xt.lit        0x0000000000001140       0x10 /home/wall/projects/IoT/mcu/platforms/espressif/esp8266_sdk/2.2.1/ESP8266_NONOS_SDK_2.2.1/lib/liblwip.a(espconn.o)
                                         0xf0 (size before relaxing)
 .xt.lit        0x0000000000001150       0x30 /home/wall/projects/IoT/mcu/platforms/espressif/esp8266_sdk/2.2.1/ESP8266_NONOS_SDK_2.2.1/lib/liblwip.a(espconn_buf.o)
                                         0x38 (size before relaxing)
 .xt.lit        0x0000000000001180       0x10 /home/wall/projects/IoT/mcu/platforms/espressif/esp8266_sdk/2.2.1/ESP8266_NONOS_SDK_2.2.1/lib/liblwip.a(espconn_udp.o)
                                         0x40 (size before relaxing)
 .xt.lit        0x0000000000001190        0x0 /home/wall/projects/IoT/mcu/platforms/espressif/esp8266_sdk/2.2.1/ESP8266_NONOS_SDK_2.2.1/lib/liblwip.a(icmp.o)
                                         0x10 (size before relaxing)
 .xt.lit        0x0000000000001190       0x20 /home/wall/projects/IoT/mcu/platforms/espressif/esp8266_sdk/2.2.1/ESP8266_NONOS_SDK_2.2.1/lib/liblwip.a(igmp.o)
                                         0x60 (size before relaxing)
 .xt.lit        0x00000000000011b0       0x18 /home/wall/projects/IoT/mcu/platforms/espressif/esp8266_sdk/2.2.1/ESP8266_NONOS_SDK_2.2.1/lib/libwpa.a(ap_config.o)
                                         0x48 (size before relaxing)
 .xt.lit        0x00000000000011c8       0x10 /home/wall/projects/IoT/mcu/platforms/espressif/esp8266_sdk/2.2.1/ESP8266_NONOS_SDK_2.2.1/lib/libwpa.a(common.o)
                                         0x28 (size before relaxing)
 .xt.lit        0x00000000000011d8        0x8 /home/wall/projects/IoT/mcu/platforms/espressif/esp8266_sdk/2.2.1/ESP8266_NONOS_SDK_2.2.1/lib/libwpa.a(os_xtensa.o)
                                         0x20 (size before relaxing)
 .xt.lit        0x00000000000011e0       0x80 /home/wall/projects/IoT/mcu/platforms/espressif/esp8266_sdk/2.2.1/ESP8266_NONOS_SDK_2.2.1/lib/libwpa.a(wpa_auth.o)
                                        0x178 (size before relaxing)
 .xt.lit        0x0000000000001260       0x10 /home/wall/projects/IoT/mcu/platforms/espressif/esp8266_sdk/2.2.1/ESP8266_NONOS_SDK_2.2.1/lib/libwpa.a(wpa_auth_ie.o)
                                         0x38 (size before relaxing)
 .xt.lit        0x0000000000001270       0x48 /home/wall/projects/IoT/mcu/platforms/espressif/esp8266_sdk/2.2.1/ESP8266_NONOS_SDK_2.2.1/lib/libwpa.a(wpa.o)
                                        0x130 (size before relaxing)
 .xt.lit        0x00000000000012b8       0x28 /home/wall/projects/IoT/mcu/platforms/espressif/esp8266_sdk/2.2.1/ESP8266_NONOS_SDK_2.2.1/lib/libwpa.a(wpa_common.o)
                                         0x58 (size before relaxing)
 .xt.lit        0x00000000000012e0        0x8 /home/wall/projects/IoT/mcu/platforms/espressif/esp8266_sdk/2.2.1/ESP8266_NONOS_SDK_2.2.1/lib/libwpa.a(wpa_debug.o)
                                         0x18 (size before relaxing)
 .xt.lit        0x00000000000012e8        0x0 /home/wall/projects/IoT/mcu/platforms/espressif/esp8266_sdk/2.2.1/ESP8266_NONOS_SDK_2.2.1/lib/libwpa.a(wpa_ie.o)
                                         0x20 (size before relaxing)
 .xt.lit        0x00000000000012e8       0x18 /home/wall/projects/IoT/mcu/platforms/espressif/esp8266_sdk/2.2.1/ESP8266_NONOS_SDK_2.2.1/lib/libwpa.a(wpa_main.o)
                                         0x58 (size before relaxing)
 .xt.lit        0x0000000000001300        0x0 /home/wall/projects/IoT/mcu/platforms/espressif/esp8266_sdk/2.2.1/ESP8266_NONOS_SDK_2.2.1/lib/libwpa.a(wpas_glue.o)
                                         0x10 (size before relaxing)
 .xt.lit        0x0000000000001300        0x8 /home/wall/projects/IoT/mcu/platforms/espressif/esp8266_sdk/2.2.1/ESP8266_NONOS_SDK_2.2.1/lib/libcrypto.a(aes-wrap.o)
 .xt.lit        0x0000000000001308       0x10 /home/wall/projects/IoT/mcu/platforms/espressif/esp8266_sdk/2.2.1/ESP8266_NONOS_SDK_2.2.1/lib/libcrypto.a(aes-internal-enc.o)
                                         0x20 (size before relaxing)
 .xt.lit        0x0000000000001318        0x8 /home/wall/projects/IoT/mcu/platforms/espressif/esp8266_sdk/2.2.1/ESP8266_NONOS_SDK_2.2.1/lib/libcrypto.a(aes-internal.o)
 .xt.lit        0x0000000000001320        0x8 /home/wall/projects/IoT/mcu/platforms/espressif/esp8266_sdk/2.2.1/ESP8266_NONOS_SDK_2.2.1/lib/libc.a(lib_a-isxdigit.o)
 .xt.lit        0x0000000000001328        0x8 /home/wall/projects/IoT/mcu/platforms/espressif/esp8266_sdk/2.2.1/ESP8266_NONOS_SDK_2.2.1/lib/libgcc.a(_divsf3.o)
 .xt.lit        0x0000000000001330        0x0 /home/wall/projects/IoT/mcu/platforms/espressif/esp8266_sdk/2.2.1/ESP8266_NONOS_SDK_2.2.1/lib/libgcc.a(_fixsfsi.o)
                                          0x8 (size before relaxing)
 .xt.lit        0x0000000000001330       0x10 /home/wall/projects/IoT/mcu/platforms/espressif/esp8266_sdk/2.2.1/ESP8266_NONOS_SDK_2.2.1/lib/libnet80211.a(ieee80211_crypto_tkip.o)
 .xt.lit        0x0000000000001340        0x8 /home/wall/projects/IoT/mcu/platforms/espressif/esp8266_sdk/2.2.1/ESP8266_NONOS_SDK_2.2.1/lib/libnet80211.a(ieee80211_crypto_wep.o)

.comment        0x0000000000000000     0x14a6
 .comment       0x0000000000000000       0x55 /home/wall/projects/IoT/mcu/platforms/espressif/esp8266_sdk/2.2.1/ESP8266_NONOS_SDK_2.2.1/lib/libmain.a(app_main.o)
                                         0x56 (size before relaxing)
 .comment       0x0000000000000055       0x56 /home/wall/projects/IoT/mcu/platforms/espressif/esp8266_sdk/2.2.1/ESP8266_NONOS_SDK_2.2.1/lib/libmain.a(ets_timer.o)
                                         0x57 (size before relaxing)
 .comment       0x00000000000000ab       0x58 /home/wall/projects/IoT/mcu/platforms/espressif/esp8266_sdk/2.2.1/ESP8266_NONOS_SDK_2.2.1/lib/libmain.a(mem_manager.o)
                                         0x59 (size before relaxing)
 .comment       0x0000000000000103       0x5b /home/wall/projects/IoT/mcu/platforms/espressif/esp8266_sdk/2.2.1/ESP8266_NONOS_SDK_2.2.1/lib/libmain.a(user_interface.o)
                                         0x5c (size before relaxing)
 .comment       0x000000000000015e       0x56 /home/wall/projects/IoT/mcu/platforms/espressif/esp8266_sdk/2.2.1/ESP8266_NONOS_SDK_2.2.1/lib/libmain.a(spi_flash.o)
                                         0x57 (size before relaxing)
 .comment       0x00000000000001b4       0x56 /home/wall/projects/IoT/mcu/platforms/espressif/esp8266_sdk/2.2.1/ESP8266_NONOS_SDK_2.2.1/lib/libmain.a(eagle_lib.o)
                                         0x57 (size before relaxing)
 .comment       0x000000000000020a       0x5a /home/wall/projects/IoT/mcu/platforms/espressif/esp8266_sdk/2.2.1/ESP8266_NONOS_SDK_2.2.1/lib/libmain.a(eagle_lwip_if.o)
                                         0x5b (size before relaxing)
 .comment       0x0000000000000264       0x3b /home/wall/projects/templates/Makefile/Makefile_generic/esp/esp8266/build/user/blinky/blinky.a(rf_init.o)
                                         0x3c (size before relaxing)
 .comment       0x000000000000029f       0x3c /home/wall/projects/templates/Makefile/Makefile_generic/esp/esp8266/build/user/blinky/blinky.a(main.o)
 .comment       0x000000000000029f       0x56 /home/wall/projects/IoT/mcu/platforms/espressif/esp8266_sdk/2.2.1/ESP8266_NONOS_SDK_2.2.1/lib/libpp.a(if_hwctrl.o)
                                         0x57 (size before relaxing)
 .comment       0x00000000000002f5       0x51 /home/wall/projects/IoT/mcu/platforms/espressif/esp8266_sdk/2.2.1/ESP8266_NONOS_SDK_2.2.1/lib/libpp.a(lmac.o)
                                         0x52 (size before relaxing)
 .comment       0x0000000000000346       0x4f /home/wall/projects/IoT/mcu/platforms/espressif/esp8266_sdk/2.2.1/ESP8266_NONOS_SDK_2.2.1/lib/libpp.a(pm.o)
                                         0x50 (size before relaxing)
 .comment       0x0000000000000395       0x61 /home/wall/projects/IoT/mcu/platforms/espressif/esp8266_sdk/2.2.1/ESP8266_NONOS_SDK_2.2.1/lib/libpp.a(pm_for_bcn_only_mode.o)
                                         0x62 (size before relaxing)
 .comment       0x00000000000003f6       0x4f /home/wall/projects/IoT/mcu/platforms/espressif/esp8266_sdk/2.2.1/ESP8266_NONOS_SDK_2.2.1/lib/libpp.a(pp.o)
                                         0x50 (size before relaxing)
 .comment       0x0000000000000445       0x59 /home/wall/projects/IoT/mcu/platforms/espressif/esp8266_sdk/2.2.1/ESP8266_NONOS_SDK_2.2.1/lib/libpp.a(rate_control.o)
                                         0x5a (size before relaxing)
 .comment       0x000000000000049e       0x50 /home/wall/projects/IoT/mcu/platforms/espressif/esp8266_sdk/2.2.1/ESP8266_NONOS_SDK_2.2.1/lib/libpp.a(trc.o)
                                         0x51 (size before relaxing)
 .comment       0x00000000000004ee       0x51 /home/wall/projects/IoT/mcu/platforms/espressif/esp8266_sdk/2.2.1/ESP8266_NONOS_SDK_2.2.1/lib/libpp.a(wdev.o)
                                         0x52 (size before relaxing)
 .comment       0x000000000000053f       0x54 /home/wall/projects/IoT/mcu/platforms/espressif/esp8266_sdk/2.2.1/ESP8266_NONOS_SDK_2.2.1/lib/libpp.a(esf_buf.o)
                                         0x55 (size before relaxing)
 .comment       0x0000000000000593       0x41 /home/wall/projects/IoT/mcu/platforms/espressif/esp8266_sdk/2.2.1/ESP8266_NONOS_SDK_2.2.1/lib/libphy.a(phy.o)
 .comment       0x00000000000005d4       0x4d /home/wall/projects/IoT/mcu/platforms/espressif/esp8266_sdk/2.2.1/ESP8266_NONOS_SDK_2.2.1/lib/libphy.a(phy_chip_v6_ana.o)
 .comment       0x0000000000000621       0x49 /home/wall/projects/IoT/mcu/platforms/espressif/esp8266_sdk/2.2.1/ESP8266_NONOS_SDK_2.2.1/lib/libphy.a(phy_chip_v6.o)
 .comment       0x000000000000066a       0x4d /home/wall/projects/IoT/mcu/platforms/espressif/esp8266_sdk/2.2.1/ESP8266_NONOS_SDK_2.2.1/lib/libphy.a(phy_chip_v6_cal.o)
 .comment       0x00000000000006b7       0x50 /home/wall/projects/IoT/mcu/platforms/espressif/esp8266_sdk/2.2.1/ESP8266_NONOS_SDK_2.2.1/lib/libphy.a(phy_chip_v6_unused.o)
 .comment       0x0000000000000707       0x47 /home/wall/projects/IoT/mcu/platforms/espressif/esp8266_sdk/2.2.1/ESP8266_NONOS_SDK_2.2.1/lib/libphy.a(phy_sleep.o)
 .comment       0x000000000000074e       0x56 /home/wall/projects/IoT/mcu/platforms/espressif/esp8266_sdk/2.2.1/ESP8266_NONOS_SDK_2.2.1/lib/libnet80211.a(ieee80211.o)
                                         0x57 (size before relaxing)
 .comment       0x00000000000007a4       0x5d /home/wall/projects/IoT/mcu/platforms/espressif/esp8266_sdk/2.2.1/ESP8266_NONOS_SDK_2.2.1/lib/libnet80211.a(ieee80211_crypto.o)
                                         0x5e (size before relaxing)
 .comment       0x0000000000000801       0x5a /home/wall/projects/IoT/mcu/platforms/espressif/esp8266_sdk/2.2.1/ESP8266_NONOS_SDK_2.2.1/lib/libnet80211.a(ieee80211_ets.o)
                                         0x5b (size before relaxing)
 .comment       0x000000000000085b       0x5d /home/wall/projects/IoT/mcu/platforms/espressif/esp8266_sdk/2.2.1/ESP8266_NONOS_SDK_2.2.1/lib/libnet80211.a(ieee80211_hostap.o)
                                         0x5e (size before relaxing)
 .comment       0x00000000000008b8       0x59 /home/wall/projects/IoT/mcu/platforms/espressif/esp8266_sdk/2.2.1/ESP8266_NONOS_SDK_2.2.1/lib/libnet80211.a(ieee80211_ht.o)
                                         0x5a (size before relaxing)
 .comment       0x0000000000000911       0x5c /home/wall/projects/IoT/mcu/platforms/espressif/esp8266_sdk/2.2.1/ESP8266_NONOS_SDK_2.2.1/lib/libnet80211.a(ieee80211_input.o)
                                         0x5d (size before relaxing)
 .comment       0x000000000000096d       0x61 /home/wall/projects/IoT/mcu/platforms/espressif/esp8266_sdk/2.2.1/ESP8266_NONOS_SDK_2.2.1/lib/libnet80211.a(ieee80211_mesh_quick.o)
                                         0x62 (size before relaxing)
 .comment       0x00000000000009ce       0x5d /home/wall/projects/IoT/mcu/platforms/espressif/esp8266_sdk/2.2.1/ESP8266_NONOS_SDK_2.2.1/lib/libnet80211.a(ieee80211_output.o)
                                         0x5e (size before relaxing)
 .comment       0x0000000000000a2b       0x5a /home/wall/projects/IoT/mcu/platforms/espressif/esp8266_sdk/2.2.1/ESP8266_NONOS_SDK_2.2.1/lib/libnet80211.a(ieee80211_phy.o)
                                         0x5b (size before relaxing)
 .comment       0x0000000000000a85       0x5c /home/wall/projects/IoT/mcu/platforms/espressif/esp8266_sdk/2.2.1/ESP8266_NONOS_SDK_2.2.1/lib/libnet80211.a(ieee80211_power.o)
                                         0x5d (size before relaxing)
 .comment       0x0000000000000ae1       0x5c /home/wall/projects/IoT/mcu/platforms/espressif/esp8266_sdk/2.2.1/ESP8266_NONOS_SDK_2.2.1/lib/libnet80211.a(ieee80211_proto.o)
                                         0x5d (size before relaxing)
 .comment       0x0000000000000b3d       0x60 /home/wall/projects/IoT/mcu/platforms/espressif/esp8266_sdk/2.2.1/ESP8266_NONOS_SDK_2.2.1/lib/libnet80211.a(ieee80211_regdomain.o)
                                         0x61 (size before relaxing)
 .comment       0x0000000000000b9d       0x5b /home/wall/projects/IoT/mcu/platforms/espressif/esp8266_sdk/2.2.1/ESP8266_NONOS_SDK_2.2.1/lib/libnet80211.a(ieee80211_rfid.o)
                                         0x5c (size before relaxing)
 .comment       0x0000000000000bf8       0x5b /home/wall/projects/IoT/mcu/platforms/espressif/esp8266_sdk/2.2.1/ESP8266_NONOS_SDK_2.2.1/lib/libnet80211.a(ieee80211_scan.o)
                                         0x5c (size before relaxing)
 .comment       0x0000000000000c53       0x5a /home/wall/projects/IoT/mcu/platforms/espressif/esp8266_sdk/2.2.1/ESP8266_NONOS_SDK_2.2.1/lib/libnet80211.a(ieee80211_sta.o)
                                         0x5b (size before relaxing)
 .comment       0x0000000000000cad       0x53 /home/wall/projects/IoT/mcu/platforms/espressif/esp8266_sdk/2.2.1/ESP8266_NONOS_SDK_2.2.1/lib/libnet80211.a(wl_chm.o)
                                         0x54 (size before relaxing)
 .comment       0x0000000000000d00       0x53 /home/wall/projects/IoT/mcu/platforms/espressif/esp8266_sdk/2.2.1/ESP8266_NONOS_SDK_2.2.1/lib/libnet80211.a(wl_cnx.o)
                                         0x54 (size before relaxing)
 .comment       0x0000000000000d53       0x5d /home/wall/projects/IoT/mcu/platforms/espressif/esp8266_sdk/2.2.1/ESP8266_NONOS_SDK_2.2.1/lib/libnet80211.a(ieee80211_action.o)
                                         0x5e (size before relaxing)
 .comment       0x0000000000000db0       0x64 /home/wall/projects/IoT/mcu/platforms/espressif/esp8266_sdk/2.2.1/ESP8266_NONOS_SDK_2.2.1/lib/libnet80211.a(ieee80211_action_vendor.o)
                                         0x65 (size before relaxing)
 .comment       0x0000000000000e14       0x62 /home/wall/projects/IoT/mcu/platforms/espressif/esp8266_sdk/2.2.1/ESP8266_NONOS_SDK_2.2.1/lib/libnet80211.a(ieee80211_crypto_ccmp.o)
                                         0x63 (size before relaxing)
 .comment       0x0000000000000e76       0x60 /home/wall/projects/IoT/mcu/platforms/espressif/esp8266_sdk/2.2.1/ESP8266_NONOS_SDK_2.2.1/lib/libnet80211.a(ieee80211_ie_vendor.o)
                                         0x61 (size before relaxing)
 .comment       0x0000000000000ed6       0x21 /home/wall/projects/IoT/mcu/platforms/espressif/esp8266_sdk/2.2.1/ESP8266_NONOS_SDK_2.2.1/lib/liblwip.a(dhcp.o)
                                         0x22 (size before relaxing)
 .comment       0x0000000000000ef7       0x22 /home/wall/projects/IoT/mcu/platforms/espressif/esp8266_sdk/2.2.1/ESP8266_NONOS_SDK_2.2.1/lib/liblwip.a(dhcpserver.o)
 .comment       0x0000000000000ef7       0x22 /home/wall/projects/IoT/mcu/platforms/espressif/esp8266_sdk/2.2.1/ESP8266_NONOS_SDK_2.2.1/lib/liblwip.a(dns.o)
 .comment       0x0000000000000ef7       0x22 /home/wall/projects/IoT/mcu/platforms/espressif/esp8266_sdk/2.2.1/ESP8266_NONOS_SDK_2.2.1/lib/liblwip.a(espconn_tcp.o)
 .comment       0x0000000000000ef7       0x22 /home/wall/projects/IoT/mcu/platforms/espressif/esp8266_sdk/2.2.1/ESP8266_NONOS_SDK_2.2.1/lib/liblwip.a(etharp.o)
 .comment       0x0000000000000ef7       0x22 /home/wall/projects/IoT/mcu/platforms/espressif/esp8266_sdk/2.2.1/ESP8266_NONOS_SDK_2.2.1/lib/liblwip.a(init.o)
 .comment       0x0000000000000ef7       0x22 /home/wall/projects/IoT/mcu/platforms/espressif/esp8266_sdk/2.2.1/ESP8266_NONOS_SDK_2.2.1/lib/liblwip.a(ip.o)
 .comment       0x0000000000000ef7       0x22 /home/wall/projects/IoT/mcu/platforms/espressif/esp8266_sdk/2.2.1/ESP8266_NONOS_SDK_2.2.1/lib/liblwip.a(ip_addr.o)
 .comment       0x0000000000000ef7       0x22 /home/wall/projects/IoT/mcu/platforms/espressif/esp8266_sdk/2.2.1/ESP8266_NONOS_SDK_2.2.1/lib/liblwip.a(memp.o)
 .comment       0x0000000000000ef7       0x22 /home/wall/projects/IoT/mcu/platforms/espressif/esp8266_sdk/2.2.1/ESP8266_NONOS_SDK_2.2.1/lib/liblwip.a(netif.o)
 .comment       0x0000000000000ef7       0x22 /home/wall/projects/IoT/mcu/platforms/espressif/esp8266_sdk/2.2.1/ESP8266_NONOS_SDK_2.2.1/lib/liblwip.a(pbuf.o)
 .comment       0x0000000000000ef7       0x22 /home/wall/projects/IoT/mcu/platforms/espressif/esp8266_sdk/2.2.1/ESP8266_NONOS_SDK_2.2.1/lib/liblwip.a(raw.o)
 .comment       0x0000000000000ef7       0x22 /home/wall/projects/IoT/mcu/platforms/espressif/esp8266_sdk/2.2.1/ESP8266_NONOS_SDK_2.2.1/lib/liblwip.a(tcp.o)
 .comment       0x0000000000000ef7       0x22 /home/wall/projects/IoT/mcu/platforms/espressif/esp8266_sdk/2.2.1/ESP8266_NONOS_SDK_2.2.1/lib/liblwip.a(tcp_in.o)
 .comment       0x0000000000000ef7       0x22 /home/wall/projects/IoT/mcu/platforms/espressif/esp8266_sdk/2.2.1/ESP8266_NONOS_SDK_2.2.1/lib/liblwip.a(tcp_out.o)
 .comment       0x0000000000000ef7       0x22 /home/wall/projects/IoT/mcu/platforms/espressif/esp8266_sdk/2.2.1/ESP8266_NONOS_SDK_2.2.1/lib/liblwip.a(timers.o)
 .comment       0x0000000000000ef7       0x22 /home/wall/projects/IoT/mcu/platforms/espressif/esp8266_sdk/2.2.1/ESP8266_NONOS_SDK_2.2.1/lib/liblwip.a(udp.o)
 .comment       0x0000000000000ef7       0x22 /home/wall/projects/IoT/mcu/platforms/espressif/esp8266_sdk/2.2.1/ESP8266_NONOS_SDK_2.2.1/lib/liblwip.a(espconn.o)
 .comment       0x0000000000000ef7       0x22 /home/wall/projects/IoT/mcu/platforms/espressif/esp8266_sdk/2.2.1/ESP8266_NONOS_SDK_2.2.1/lib/liblwip.a(espconn_buf.o)
 .comment       0x0000000000000ef7       0x22 /home/wall/projects/IoT/mcu/platforms/espressif/esp8266_sdk/2.2.1/ESP8266_NONOS_SDK_2.2.1/lib/liblwip.a(espconn_udp.o)
 .comment       0x0000000000000ef7       0x22 /home/wall/projects/IoT/mcu/platforms/espressif/esp8266_sdk/2.2.1/ESP8266_NONOS_SDK_2.2.1/lib/liblwip.a(icmp.o)
 .comment       0x0000000000000ef7       0x22 /home/wall/projects/IoT/mcu/platforms/espressif/esp8266_sdk/2.2.1/ESP8266_NONOS_SDK_2.2.1/lib/liblwip.a(igmp.o)
 .comment       0x0000000000000ef7       0x22 /home/wall/projects/IoT/mcu/platforms/espressif/esp8266_sdk/2.2.1/ESP8266_NONOS_SDK_2.2.1/lib/liblwip.a(inet_chksum.o)
 .comment       0x0000000000000ef7       0x56 /home/wall/projects/IoT/mcu/platforms/espressif/esp8266_sdk/2.2.1/ESP8266_NONOS_SDK_2.2.1/lib/libwpa.a(ap_config.o)
                                         0x57 (size before relaxing)
 .comment       0x0000000000000f4d       0x53 /home/wall/projects/IoT/mcu/platforms/espressif/esp8266_sdk/2.2.1/ESP8266_NONOS_SDK_2.2.1/lib/libwpa.a(common.o)
                                         0x54 (size before relaxing)
 .comment       0x0000000000000fa0       0x56 /home/wall/projects/IoT/mcu/platforms/espressif/esp8266_sdk/2.2.1/ESP8266_NONOS_SDK_2.2.1/lib/libwpa.a(os_xtensa.o)
                                         0x57 (size before relaxing)
 .comment       0x0000000000000ff6       0x55 /home/wall/projects/IoT/mcu/platforms/espressif/esp8266_sdk/2.2.1/ESP8266_NONOS_SDK_2.2.1/lib/libwpa.a(wpa_auth.o)
                                         0x56 (size before relaxing)
 .comment       0x000000000000104b       0x58 /home/wall/projects/IoT/mcu/platforms/espressif/esp8266_sdk/2.2.1/ESP8266_NONOS_SDK_2.2.1/lib/libwpa.a(wpa_auth_ie.o)
                                         0x59 (size before relaxing)
 .comment       0x00000000000010a3       0x50 /home/wall/projects/IoT/mcu/platforms/espressif/esp8266_sdk/2.2.1/ESP8266_NONOS_SDK_2.2.1/lib/libwpa.a(wpa.o)
                                         0x51 (size before relaxing)
 .comment       0x00000000000010f3       0x57 /home/wall/projects/IoT/mcu/platforms/espressif/esp8266_sdk/2.2.1/ESP8266_NONOS_SDK_2.2.1/lib/libwpa.a(wpa_common.o)
                                         0x58 (size before relaxing)
 .comment       0x000000000000114a       0x56 /home/wall/projects/IoT/mcu/platforms/espressif/esp8266_sdk/2.2.1/ESP8266_NONOS_SDK_2.2.1/lib/libwpa.a(wpa_debug.o)
                                         0x57 (size before relaxing)
 .comment       0x00000000000011a0       0x53 /home/wall/projects/IoT/mcu/platforms/espressif/esp8266_sdk/2.2.1/ESP8266_NONOS_SDK_2.2.1/lib/libwpa.a(wpa_ie.o)
                                         0x54 (size before relaxing)
 .comment       0x00000000000011f3       0x55 /home/wall/projects/IoT/mcu/platforms/espressif/esp8266_sdk/2.2.1/ESP8266_NONOS_SDK_2.2.1/lib/libwpa.a(wpa_main.o)
                                         0x56 (size before relaxing)
 .comment       0x0000000000001248       0x56 /home/wall/projects/IoT/mcu/platforms/espressif/esp8266_sdk/2.2.1/ESP8266_NONOS_SDK_2.2.1/lib/libwpa.a(wpas_glue.o)
                                         0x57 (size before relaxing)
 .comment       0x000000000000129e       0x55 /home/wall/projects/IoT/mcu/platforms/espressif/esp8266_sdk/2.2.1/ESP8266_NONOS_SDK_2.2.1/lib/libcrypto.a(aes-wrap.o)
                                         0x56 (size before relaxing)
 .comment       0x00000000000012f3       0x5d /home/wall/projects/IoT/mcu/platforms/espressif/esp8266_sdk/2.2.1/ESP8266_NONOS_SDK_2.2.1/lib/libcrypto.a(aes-internal-enc.o)
                                         0x5e (size before relaxing)
 .comment       0x0000000000001350       0x59 /home/wall/projects/IoT/mcu/platforms/espressif/esp8266_sdk/2.2.1/ESP8266_NONOS_SDK_2.2.1/lib/libcrypto.a(aes-internal.o)
                                         0x5a (size before relaxing)
 .comment       0x00000000000013a9       0x3a /home/wall/projects/IoT/mcu/platforms/espressif/esp8266_sdk/2.2.1/ESP8266_NONOS_SDK_2.2.1/lib/libc.a(lib_a-isxdigit.o)
                                         0x3b (size before relaxing)
 .comment       0x00000000000013e3       0x3b /home/wall/projects/IoT/mcu/platforms/espressif/esp8266_sdk/2.2.1/ESP8266_NONOS_SDK_2.2.1/lib/libc.a(lib_a-memchr.o)
 .comment       0x00000000000013e3       0x3b /home/wall/projects/IoT/mcu/platforms/espressif/esp8266_sdk/2.2.1/ESP8266_NONOS_SDK_2.2.1/lib/libc.a(lib_a-ctype_.o)
 .comment       0x00000000000013e3       0x62 /home/wall/projects/IoT/mcu/platforms/espressif/esp8266_sdk/2.2.1/ESP8266_NONOS_SDK_2.2.1/lib/libnet80211.a(ieee80211_crypto_tkip.o)
                                         0x63 (size before relaxing)
 .comment       0x0000000000001445       0x61 /home/wall/projects/IoT/mcu/platforms/espressif/esp8266_sdk/2.2.1/ESP8266_NONOS_SDK_2.2.1/lib/libnet80211.a(ieee80211_crypto_wep.o)
                                         0x62 (size before relaxing)

.debug_frame    0x0000000000000000      0x104
 .debug_frame   0x0000000000000000       0x50 /home/wall/projects/templates/Makefile/Makefile_generic/esp/esp8266/build/user/blinky/blinky.a(rf_init.o)
 .debug_frame   0x0000000000000050       0x74 /home/wall/projects/templates/Makefile/Makefile_generic/esp/esp8266/build/user/blinky/blinky.a(main.o)
 .debug_frame   0x00000000000000c4       0x20 /home/wall/projects/IoT/mcu/platforms/espressif/esp8266_sdk/2.2.1/ESP8266_NONOS_SDK_2.2.1/lib/libc.a(lib_a-isxdigit.o)
 .debug_frame   0x00000000000000e4       0x20 /home/wall/projects/IoT/mcu/platforms/espressif/esp8266_sdk/2.2.1/ESP8266_NONOS_SDK_2.2.1/lib/libc.a(lib_a-memchr.o)

.debug_info     0x0000000000000000      0xa9a
 .debug_info    0x0000000000000000      0x199 /home/wall/projects/templates/Makefile/Makefile_generic/esp/esp8266/build/user/blinky/blinky.a(rf_init.o)
 .debug_info    0x0000000000000199      0x307 /home/wall/projects/templates/Makefile/Makefile_generic/esp/esp8266/build/user/blinky/blinky.a(main.o)
 .debug_info    0x00000000000004a0       0x6d /home/wall/projects/IoT/mcu/platforms/espressif/esp8266_sdk/2.2.1/ESP8266_NONOS_SDK_2.2.1/lib/libc.a(lib_a-isxdigit.o)
 .debug_info    0x000000000000050d       0xf4 /home/wall/projects/IoT/mcu/platforms/espressif/esp8266_sdk/2.2.1/ESP8266_NONOS_SDK_2.2.1/lib/libc.a(lib_a-memchr.o)
 .debug_info    0x0000000000000601       0x6b /home/wall/projects/IoT/mcu/platforms/espressif/esp8266_sdk/2.2.1/ESP8266_NONOS_SDK_2.2.1/lib/libc.a(lib_a-ctype_.o)
 .debug_info    0x000000000000066c      0x10b /home/wall/projects/IoT/mcu/platforms/espressif/esp8266_sdk/2.2.1/ESP8266_NONOS_SDK_2.2.1/lib/libgcc.a(_modsi3.o)
 .debug_info    0x0000000000000777      0x10b /home/wall/projects/IoT/mcu/platforms/espressif/esp8266_sdk/2.2.1/ESP8266_NONOS_SDK_2.2.1/lib/libgcc.a(_ashrdi3.o)
 .debug_info    0x0000000000000882      0x10c /home/wall/projects/IoT/mcu/platforms/espressif/esp8266_sdk/2.2.1/ESP8266_NONOS_SDK_2.2.1/lib/libgcc.a(_divsf3.o)
 .debug_info    0x000000000000098e      0x10c /home/wall/projects/IoT/mcu/platforms/espressif/esp8266_sdk/2.2.1/ESP8266_NONOS_SDK_2.2.1/lib/libgcc.a(_fixsfsi.o)

.debug_abbrev   0x0000000000000000      0x41c
 .debug_abbrev  0x0000000000000000       0xf0 /home/wall/projects/templates/Makefile/Makefile_generic/esp/esp8266/build/user/blinky/blinky.a(rf_init.o)
 .debug_abbrev  0x00000000000000f0      0x173 /home/wall/projects/templates/Makefile/Makefile_generic/esp/esp8266/build/user/blinky/blinky.a(main.o)
 .debug_abbrev  0x0000000000000263       0x74 /home/wall/projects/IoT/mcu/platforms/espressif/esp8266_sdk/2.2.1/ESP8266_NONOS_SDK_2.2.1/lib/libc.a(lib_a-isxdigit.o)
 .debug_abbrev  0x00000000000002d7       0xa9 /home/wall/projects/IoT/mcu/platforms/espressif/esp8266_sdk/2.2.1/ESP8266_NONOS_SDK_2.2.1/lib/libc.a(lib_a-memchr.o)
 .debug_abbrev  0x0000000000000380       0x4c /home/wall/projects/IoT/mcu/platforms/espressif/esp8266_sdk/2.2.1/ESP8266_NONOS_SDK_2.2.1/lib/libc.a(lib_a-ctype_.o)
 .debug_abbrev  0x00000000000003cc       0x14 /home/wall/projects/IoT/mcu/platforms/espressif/esp8266_sdk/2.2.1/ESP8266_NONOS_SDK_2.2.1/lib/libgcc.a(_modsi3.o)
 .debug_abbrev  0x00000000000003e0       0x14 /home/wall/projects/IoT/mcu/platforms/espressif/esp8266_sdk/2.2.1/ESP8266_NONOS_SDK_2.2.1/lib/libgcc.a(_ashrdi3.o)
 .debug_abbrev  0x00000000000003f4       0x14 /home/wall/projects/IoT/mcu/platforms/espressif/esp8266_sdk/2.2.1/ESP8266_NONOS_SDK_2.2.1/lib/libgcc.a(_divsf3.o)
 .debug_abbrev  0x0000000000000408       0x14 /home/wall/projects/IoT/mcu/platforms/espressif/esp8266_sdk/2.2.1/ESP8266_NONOS_SDK_2.2.1/lib/libgcc.a(_fixsfsi.o)

.debug_loc      0x0000000000000000       0xfa
 .debug_loc     0x0000000000000000       0x32 /home/wall/projects/templates/Makefile/Makefile_generic/esp/esp8266/build/user/blinky/blinky.a(rf_init.o)
 .debug_loc     0x0000000000000032       0x21 /home/wall/projects/templates/Makefile/Makefile_generic/esp/esp8266/build/user/blinky/blinky.a(main.o)
 .debug_loc     0x0000000000000053       0x21 /home/wall/projects/IoT/mcu/platforms/espressif/esp8266_sdk/2.2.1/ESP8266_NONOS_SDK_2.2.1/lib/libc.a(lib_a-isxdigit.o)
 .debug_loc     0x0000000000000074       0x86 /home/wall/projects/IoT/mcu/platforms/espressif/esp8266_sdk/2.2.1/ESP8266_NONOS_SDK_2.2.1/lib/libc.a(lib_a-memchr.o)

.debug_aranges  0x0000000000000000      0x130
 .debug_aranges
                0x0000000000000000       0x28 /home/wall/projects/templates/Makefile/Makefile_generic/esp/esp8266/build/user/blinky/blinky.a(rf_init.o)
 .debug_aranges
                0x0000000000000028       0x30 /home/wall/projects/templates/Makefile/Makefile_generic/esp/esp8266/build/user/blinky/blinky.a(main.o)
 .debug_aranges
                0x0000000000000058       0x20 /home/wall/projects/IoT/mcu/platforms/espressif/esp8266_sdk/2.2.1/ESP8266_NONOS_SDK_2.2.1/lib/libc.a(lib_a-isxdigit.o)
 .debug_aranges
                0x0000000000000078       0x20 /home/wall/projects/IoT/mcu/platforms/espressif/esp8266_sdk/2.2.1/ESP8266_NONOS_SDK_2.2.1/lib/libc.a(lib_a-memchr.o)
 .debug_aranges
                0x0000000000000098       0x18 /home/wall/projects/IoT/mcu/platforms/espressif/esp8266_sdk/2.2.1/ESP8266_NONOS_SDK_2.2.1/lib/libc.a(lib_a-ctype_.o)
 .debug_aranges
                0x00000000000000b0       0x20 /home/wall/projects/IoT/mcu/platforms/espressif/esp8266_sdk/2.2.1/ESP8266_NONOS_SDK_2.2.1/lib/libgcc.a(_modsi3.o)
 .debug_aranges
                0x00000000000000d0       0x20 /home/wall/projects/IoT/mcu/platforms/espressif/esp8266_sdk/2.2.1/ESP8266_NONOS_SDK_2.2.1/lib/libgcc.a(_ashrdi3.o)
 .debug_aranges
                0x00000000000000f0       0x20 /home/wall/projects/IoT/mcu/platforms/espressif/esp8266_sdk/2.2.1/ESP8266_NONOS_SDK_2.2.1/lib/libgcc.a(_divsf3.o)
 .debug_aranges
                0x0000000000000110       0x20 /home/wall/projects/IoT/mcu/platforms/espressif/esp8266_sdk/2.2.1/ESP8266_NONOS_SDK_2.2.1/lib/libgcc.a(_fixsfsi.o)

.debug_ranges   0x0000000000000000       0x38
 .debug_ranges  0x0000000000000000       0x18 /home/wall/projects/templates/Makefile/Makefile_generic/esp/esp8266/build/user/blinky/blinky.a(rf_init.o)
 .debug_ranges  0x0000000000000018       0x20 /home/wall/projects/templates/Makefile/Makefile_generic/esp/esp8266/build/user/blinky/blinky.a(main.o)

.debug_line     0x0000000000000000      0xc9c
 .debug_line    0x0000000000000000      0x145 /home/wall/projects/templates/Makefile/Makefile_generic/esp/esp8266/build/user/blinky/blinky.a(rf_init.o)
 .debug_line    0x0000000000000145      0x1e8 /home/wall/projects/templates/Makefile/Makefile_generic/esp/esp8266/build/user/blinky/blinky.a(main.o)
 .debug_line    0x000000000000032d      0x10c /home/wall/projects/IoT/mcu/platforms/espressif/esp8266_sdk/2.2.1/ESP8266_NONOS_SDK_2.2.1/lib/libc.a(lib_a-isxdigit.o)
 .debug_line    0x0000000000000439      0x1b7 /home/wall/projects/IoT/mcu/platforms/espressif/esp8266_sdk/2.2.1/ESP8266_NONOS_SDK_2.2.1/lib/libc.a(lib_a-memchr.o)
 .debug_line    0x00000000000005f0       0x86 /home/wall/projects/IoT/mcu/platforms/espressif/esp8266_sdk/2.2.1/ESP8266_NONOS_SDK_2.2.1/lib/libc.a(lib_a-ctype_.o)
 .debug_line    0x0000000000000676      0x123 /home/wall/projects/IoT/mcu/platforms/espressif/esp8266_sdk/2.2.1/ESP8266_NONOS_SDK_2.2.1/lib/libgcc.a(_modsi3.o)
 .debug_line    0x0000000000000799       0xc3 /home/wall/projects/IoT/mcu/platforms/espressif/esp8266_sdk/2.2.1/ESP8266_NONOS_SDK_2.2.1/lib/libgcc.a(_ashrdi3.o)
 .debug_line    0x000000000000085c      0x322 /home/wall/projects/IoT/mcu/platforms/espressif/esp8266_sdk/2.2.1/ESP8266_NONOS_SDK_2.2.1/lib/libgcc.a(_divsf3.o)
 .debug_line    0x0000000000000b7e      0x11e /home/wall/projects/IoT/mcu/platforms/espressif/esp8266_sdk/2.2.1/ESP8266_NONOS_SDK_2.2.1/lib/libgcc.a(_fixsfsi.o)

.debug_str      0x0000000000000000      0x640
 .debug_str     0x0000000000000000      0x313 /home/wall/projects/templates/Makefile/Makefile_generic/esp/esp8266/build/user/blinky/blinky.a(rf_init.o)
                                        0x364 (size before relaxing)
 .debug_str     0x0000000000000313      0x17d /home/wall/projects/templates/Makefile/Makefile_generic/esp/esp8266/build/user/blinky/blinky.a(main.o)
                                        0x2a5 (size before relaxing)
 .debug_str     0x0000000000000490       0xbf /home/wall/projects/IoT/mcu/platforms/espressif/esp8266_sdk/2.2.1/ESP8266_NONOS_SDK_2.2.1/lib/libc.a(lib_a-isxdigit.o)
                                         0xc4 (size before relaxing)
 .debug_str     0x000000000000054f       0x84 /home/wall/projects/IoT/mcu/platforms/espressif/esp8266_sdk/2.2.1/ESP8266_NONOS_SDK_2.2.1/lib/libc.a(lib_a-memchr.o)
                                        0x157 (size before relaxing)
 .debug_str     0x00000000000005d3       0x6d /home/wall/projects/IoT/mcu/platforms/espressif/esp8266_sdk/2.2.1/ESP8266_NONOS_SDK_2.2.1/lib/libc.a(lib_a-ctype_.o)
                                         0xca (size before relaxing)
